ARM GAS  C:\Users\GKQ\AppData\Local\Temp\ccFEMZSq.s 			page 1


   1              		.cpu cortex-m3
   2              		.eabi_attribute 20, 1
   3              		.eabi_attribute 21, 1
   4              		.eabi_attribute 23, 3
   5              		.eabi_attribute 24, 1
   6              		.eabi_attribute 25, 1
   7              		.eabi_attribute 26, 1
   8              		.eabi_attribute 30, 1
   9              		.eabi_attribute 34, 1
  10              		.eabi_attribute 18, 4
  11              		.file	"oled_draw.c"
  12              		.text
  13              	.Ltext0:
  14              		.cfi_sections	.debug_frame
  15              		.section	.text.DrawPixel,"ax",%progbits
  16              		.align	1
  17              		.global	DrawPixel
  18              		.arch armv7-m
  19              		.syntax unified
  20              		.thumb
  21              		.thumb_func
  22              		.fpu softvfp
  24              	DrawPixel:
  25              	.LVL0:
  26              	.LFB0:
  27              		.file 1 "oledlib/oled_draw.c"
   1:oledlib/oled_draw.c **** #include "oled_draw.h"
   2:oledlib/oled_draw.c **** #include "oled_buffer.h"
   3:oledlib/oled_draw.c **** #include "oled_config.h"
   4:oledlib/oled_draw.c **** #include "stdlib.h"
   5:oledlib/oled_draw.c **** #include "math.h"
   6:oledlib/oled_draw.c **** #include "oled_bmp.h"
   7:oledlib/oled_draw.c **** #include "oled_font.h"
   8:oledlib/oled_draw.c **** #include "oled_color.h"
   9:oledlib/oled_draw.c **** 
  10:oledlib/oled_draw.c **** static int _pointx = 0;
  11:oledlib/oled_draw.c **** static int _pointy = 0;
  12:oledlib/oled_draw.c **** void DrawPixel(int x, int y)
  13:oledlib/oled_draw.c **** {
  28              		.loc 1 13 1 view -0
  29              		.cfi_startproc
  30              		@ args = 0, pretend = 0, frame = 0
  31              		@ frame_needed = 0, uses_anonymous_args = 0
  32              		.loc 1 13 1 is_stmt 0 view .LVU1
  33 0000 38B5     		push	{r3, r4, r5, lr}
  34              	.LCFI0:
  35              		.cfi_def_cfa_offset 16
  36              		.cfi_offset 3, -16
  37              		.cfi_offset 4, -12
  38              		.cfi_offset 5, -8
  39              		.cfi_offset 14, -4
  40 0002 0446     		mov	r4, r0
  41 0004 0D46     		mov	r5, r1
  14:oledlib/oled_draw.c ****     SetPointBuffer(x, y, GetDrawColor());
  42              		.loc 1 14 5 is_stmt 1 view .LVU2
  43              		.loc 1 14 26 is_stmt 0 view .LVU3
  44 0006 FFF7FEFF 		bl	GetDrawColor
ARM GAS  C:\Users\GKQ\AppData\Local\Temp\ccFEMZSq.s 			page 2


  45              	.LVL1:
  46              		.loc 1 14 26 view .LVU4
  47 000a 0246     		mov	r2, r0
  48              		.loc 1 14 5 view .LVU5
  49 000c 2946     		mov	r1, r5
  50 000e 2046     		mov	r0, r4
  51 0010 FFF7FEFF 		bl	SetPointBuffer
  52              	.LVL2:
  15:oledlib/oled_draw.c **** }
  53              		.loc 1 15 1 view .LVU6
  54 0014 38BD     		pop	{r3, r4, r5, pc}
  55              		.loc 1 15 1 view .LVU7
  56              		.cfi_endproc
  57              	.LFE0:
  59              		.section	.text.GetPixel,"ax",%progbits
  60              		.align	1
  61              		.global	GetPixel
  62              		.syntax unified
  63              		.thumb
  64              		.thumb_func
  65              		.fpu softvfp
  67              	GetPixel:
  68              	.LVL3:
  69              	.LFB1:
  16:oledlib/oled_draw.c **** Type_color GetPixel(int x, int y)
  17:oledlib/oled_draw.c **** {
  70              		.loc 1 17 1 is_stmt 1 view -0
  71              		.cfi_startproc
  72              		@ args = 0, pretend = 0, frame = 0
  73              		@ frame_needed = 0, uses_anonymous_args = 0
  74              		.loc 1 17 1 is_stmt 0 view .LVU9
  75 0000 08B5     		push	{r3, lr}
  76              	.LCFI1:
  77              		.cfi_def_cfa_offset 8
  78              		.cfi_offset 3, -8
  79              		.cfi_offset 14, -4
  18:oledlib/oled_draw.c ****     if (GetPointBuffer(x, y))
  80              		.loc 1 18 5 is_stmt 1 view .LVU10
  81              		.loc 1 18 9 is_stmt 0 view .LVU11
  82 0002 FFF7FEFF 		bl	GetPointBuffer
  83              	.LVL4:
  84              		.loc 1 18 8 view .LVU12
  85 0006 00B1     		cbz	r0, .L4
  19:oledlib/oled_draw.c ****         return pix_white;
  86              		.loc 1 19 16 view .LVU13
  87 0008 0120     		movs	r0, #1
  88              	.L4:
  20:oledlib/oled_draw.c ****     else
  21:oledlib/oled_draw.c ****         return pix_black;
  22:oledlib/oled_draw.c **** }
  89              		.loc 1 22 1 view .LVU14
  90 000a 08BD     		pop	{r3, pc}
  91              		.cfi_endproc
  92              	.LFE1:
  94              		.section	.text.MoveTo,"ax",%progbits
  95              		.align	1
  96              		.global	MoveTo
ARM GAS  C:\Users\GKQ\AppData\Local\Temp\ccFEMZSq.s 			page 3


  97              		.syntax unified
  98              		.thumb
  99              		.thumb_func
 100              		.fpu softvfp
 102              	MoveTo:
 103              	.LVL5:
 104              	.LFB2:
  23:oledlib/oled_draw.c **** 
  24:oledlib/oled_draw.c **** void MoveTo(int x, int y)
  25:oledlib/oled_draw.c **** {
 105              		.loc 1 25 1 is_stmt 1 view -0
 106              		.cfi_startproc
 107              		@ args = 0, pretend = 0, frame = 0
 108              		@ frame_needed = 0, uses_anonymous_args = 0
 109              		@ link register save eliminated.
  26:oledlib/oled_draw.c ****     _pointx = x;
 110              		.loc 1 26 5 view .LVU16
 111              		.loc 1 26 13 is_stmt 0 view .LVU17
 112 0000 024B     		ldr	r3, .L7
 113 0002 1860     		str	r0, [r3]
  27:oledlib/oled_draw.c ****     _pointy = y;
 114              		.loc 1 27 5 is_stmt 1 view .LVU18
 115              		.loc 1 27 13 is_stmt 0 view .LVU19
 116 0004 024B     		ldr	r3, .L7+4
 117 0006 1960     		str	r1, [r3]
  28:oledlib/oled_draw.c **** }
 118              		.loc 1 28 1 view .LVU20
 119 0008 7047     		bx	lr
 120              	.L8:
 121 000a 00BF     		.align	2
 122              	.L7:
 123 000c 00000000 		.word	.LANCHOR0
 124 0010 00000000 		.word	.LANCHOR1
 125              		.cfi_endproc
 126              	.LFE2:
 128              		.section	.text.GetXY,"ax",%progbits
 129              		.align	1
 130              		.global	GetXY
 131              		.syntax unified
 132              		.thumb
 133              		.thumb_func
 134              		.fpu softvfp
 136              	GetXY:
 137              	.LVL6:
 138              	.LFB3:
  29:oledlib/oled_draw.c **** TypeXY GetXY(void)
  30:oledlib/oled_draw.c **** {
 139              		.loc 1 30 1 is_stmt 1 view -0
 140              		.cfi_startproc
 141              		@ args = 0, pretend = 0, frame = 0
 142              		@ frame_needed = 0, uses_anonymous_args = 0
 143              		@ link register save eliminated.
  31:oledlib/oled_draw.c **** 
  32:oledlib/oled_draw.c ****     TypeXY m;
 144              		.loc 1 32 5 view .LVU22
  33:oledlib/oled_draw.c ****     m.x = _pointx;
 145              		.loc 1 33 5 view .LVU23
ARM GAS  C:\Users\GKQ\AppData\Local\Temp\ccFEMZSq.s 			page 4


 146              		.loc 1 33 9 is_stmt 0 view .LVU24
 147 0000 034A     		ldr	r2, .L10
 148 0002 1268     		ldr	r2, [r2]
 149 0004 0260     		str	r2, [r0]
  34:oledlib/oled_draw.c ****     m.y = _pointy;
 150              		.loc 1 34 5 is_stmt 1 view .LVU25
 151              		.loc 1 34 9 is_stmt 0 view .LVU26
 152 0006 034A     		ldr	r2, .L10+4
 153 0008 1268     		ldr	r2, [r2]
 154 000a 4260     		str	r2, [r0, #4]
  35:oledlib/oled_draw.c ****     return m;
 155              		.loc 1 35 5 is_stmt 1 view .LVU27
  36:oledlib/oled_draw.c **** }
 156              		.loc 1 36 1 is_stmt 0 view .LVU28
 157 000c 7047     		bx	lr
 158              	.L11:
 159 000e 00BF     		.align	2
 160              	.L10:
 161 0010 00000000 		.word	.LANCHOR0
 162 0014 00000000 		.word	.LANCHOR1
 163              		.cfi_endproc
 164              	.LFE3:
 166              		.section	.text.GetX,"ax",%progbits
 167              		.align	1
 168              		.global	GetX
 169              		.syntax unified
 170              		.thumb
 171              		.thumb_func
 172              		.fpu softvfp
 174              	GetX:
 175              	.LFB4:
  37:oledlib/oled_draw.c **** int GetX(void)
  38:oledlib/oled_draw.c **** {
 176              		.loc 1 38 1 is_stmt 1 view -0
 177              		.cfi_startproc
 178              		@ args = 0, pretend = 0, frame = 0
 179              		@ frame_needed = 0, uses_anonymous_args = 0
 180              		@ link register save eliminated.
  39:oledlib/oled_draw.c ****     return _pointx;
 181              		.loc 1 39 5 view .LVU30
  40:oledlib/oled_draw.c **** }
 182              		.loc 1 40 1 is_stmt 0 view .LVU31
 183 0000 014B     		ldr	r3, .L13
 184 0002 1868     		ldr	r0, [r3]
 185 0004 7047     		bx	lr
 186              	.L14:
 187 0006 00BF     		.align	2
 188              	.L13:
 189 0008 00000000 		.word	.LANCHOR0
 190              		.cfi_endproc
 191              	.LFE4:
 193              		.section	.text.GetY,"ax",%progbits
 194              		.align	1
 195              		.global	GetY
 196              		.syntax unified
 197              		.thumb
 198              		.thumb_func
ARM GAS  C:\Users\GKQ\AppData\Local\Temp\ccFEMZSq.s 			page 5


 199              		.fpu softvfp
 201              	GetY:
 202              	.LFB5:
  41:oledlib/oled_draw.c **** int GetY(void)
  42:oledlib/oled_draw.c **** {
 203              		.loc 1 42 1 is_stmt 1 view -0
 204              		.cfi_startproc
 205              		@ args = 0, pretend = 0, frame = 0
 206              		@ frame_needed = 0, uses_anonymous_args = 0
 207              		@ link register save eliminated.
  43:oledlib/oled_draw.c ****     return _pointy;
 208              		.loc 1 43 5 view .LVU33
  44:oledlib/oled_draw.c **** }
 209              		.loc 1 44 1 is_stmt 0 view .LVU34
 210 0000 014B     		ldr	r3, .L16
 211 0002 1868     		ldr	r0, [r3]
 212 0004 7047     		bx	lr
 213              	.L17:
 214 0006 00BF     		.align	2
 215              	.L16:
 216 0008 00000000 		.word	.LANCHOR1
 217              		.cfi_endproc
 218              	.LFE5:
 220              		.section	.text.DrawLine,"ax",%progbits
 221              		.align	1
 222              		.global	DrawLine
 223              		.syntax unified
 224              		.thumb
 225              		.thumb_func
 226              		.fpu softvfp
 228              	DrawLine:
 229              	.LVL7:
 230              	.LFB7:
  45:oledlib/oled_draw.c **** void LineTo(int x, int y)
  46:oledlib/oled_draw.c **** {
  47:oledlib/oled_draw.c ****     DrawLine(_pointx, _pointy, x, y);
  48:oledlib/oled_draw.c ****     _pointx = x;
  49:oledlib/oled_draw.c ****     _pointy = y;
  50:oledlib/oled_draw.c **** }
  51:oledlib/oled_draw.c **** //int GetPixel(int x,int y)
  52:oledlib/oled_draw.c **** //{
  53:oledlib/oled_draw.c **** //	//return ;
  54:oledlib/oled_draw.c **** //}
  55:oledlib/oled_draw.c **** void DrawLine(int x1, int y1, int x2, int y2)
  56:oledlib/oled_draw.c **** {
 231              		.loc 1 56 1 is_stmt 1 view -0
 232              		.cfi_startproc
 233              		@ args = 0, pretend = 0, frame = 8
 234              		@ frame_needed = 0, uses_anonymous_args = 0
 235              		.loc 1 56 1 is_stmt 0 view .LVU36
 236 0000 2DE9F04F 		push	{r4, r5, r6, r7, r8, r9, r10, fp, lr}
 237              	.LCFI2:
 238              		.cfi_def_cfa_offset 36
 239              		.cfi_offset 4, -36
 240              		.cfi_offset 5, -32
 241              		.cfi_offset 6, -28
 242              		.cfi_offset 7, -24
ARM GAS  C:\Users\GKQ\AppData\Local\Temp\ccFEMZSq.s 			page 6


 243              		.cfi_offset 8, -20
 244              		.cfi_offset 9, -16
 245              		.cfi_offset 10, -12
 246              		.cfi_offset 11, -8
 247              		.cfi_offset 14, -4
 248 0004 83B0     		sub	sp, sp, #12
 249              	.LCFI3:
 250              		.cfi_def_cfa_offset 48
  57:oledlib/oled_draw.c ****     unsigned short us;
 251              		.loc 1 57 5 is_stmt 1 view .LVU37
  58:oledlib/oled_draw.c ****     unsigned short usX_Current, usY_Current;
 252              		.loc 1 58 5 view .LVU38
  59:oledlib/oled_draw.c **** 
  60:oledlib/oled_draw.c ****     int lError_X = 0, lError_Y = 0, lDelta_X, lDelta_Y, lDistance;
 253              		.loc 1 60 5 view .LVU39
 254              	.LVL8:
  61:oledlib/oled_draw.c ****     int lIncrease_X, lIncrease_Y;
 255              		.loc 1 61 5 view .LVU40
  62:oledlib/oled_draw.c **** 
  63:oledlib/oled_draw.c ****     lDelta_X = x2 - x1; //计算坐标增量
 256              		.loc 1 63 5 view .LVU41
 257              		.loc 1 63 14 is_stmt 0 view .LVU42
 258 0006 A2EB000A 		sub	r10, r2, r0
 259              	.LVL9:
  64:oledlib/oled_draw.c ****     lDelta_Y = y2 - y1;
 260              		.loc 1 64 5 is_stmt 1 view .LVU43
 261              		.loc 1 64 14 is_stmt 0 view .LVU44
 262 000a A3EB010B 		sub	fp, r3, r1
 263              	.LVL10:
  65:oledlib/oled_draw.c **** 
  66:oledlib/oled_draw.c ****     usX_Current = x1;
 264              		.loc 1 66 5 is_stmt 1 view .LVU45
 265              		.loc 1 66 17 is_stmt 0 view .LVU46
 266 000e 1FFA80F8 		uxth	r8, r0
 267              	.LVL11:
  67:oledlib/oled_draw.c ****     usY_Current = y1;
 268              		.loc 1 67 5 is_stmt 1 view .LVU47
 269              		.loc 1 67 17 is_stmt 0 view .LVU48
 270 0012 1FFA81F9 		uxth	r9, r1
 271              	.LVL12:
  68:oledlib/oled_draw.c **** 
  69:oledlib/oled_draw.c ****     if (lDelta_X > 0)
 272              		.loc 1 69 5 is_stmt 1 view .LVU49
 273              		.loc 1 69 8 is_stmt 0 view .LVU50
 274 0016 BAF1000F 		cmp	r10, #0
 275 001a 0DDD     		ble	.L32
  70:oledlib/oled_draw.c ****         lIncrease_X = 1; //设置单步方向
 276              		.loc 1 70 21 view .LVU51
 277 001c 0122     		movs	r2, #1
 278              	.LVL13:
 279              		.loc 1 70 21 view .LVU52
 280 001e 0092     		str	r2, [sp]
 281              	.L19:
 282              	.LVL14:
  71:oledlib/oled_draw.c **** 
  72:oledlib/oled_draw.c ****     else if (lDelta_X == 0)
  73:oledlib/oled_draw.c ****         lIncrease_X = 0; //垂直线
ARM GAS  C:\Users\GKQ\AppData\Local\Temp\ccFEMZSq.s 			page 7


  74:oledlib/oled_draw.c **** 
  75:oledlib/oled_draw.c ****     else
  76:oledlib/oled_draw.c ****     {
  77:oledlib/oled_draw.c ****         lIncrease_X = -1;
  78:oledlib/oled_draw.c ****         lDelta_X = -lDelta_X;
  79:oledlib/oled_draw.c ****     }
  80:oledlib/oled_draw.c **** 
  81:oledlib/oled_draw.c ****     if (lDelta_Y > 0)
 283              		.loc 1 81 5 is_stmt 1 view .LVU53
 284              		.loc 1 81 8 is_stmt 0 view .LVU54
 285 0020 BBF1000F 		cmp	fp, #0
 286 0024 14DD     		ble	.L33
  82:oledlib/oled_draw.c ****         lIncrease_Y = 1;
 287              		.loc 1 82 21 view .LVU55
 288 0026 0123     		movs	r3, #1
 289              	.LVL15:
 290              		.loc 1 82 21 view .LVU56
 291 0028 0193     		str	r3, [sp, #4]
 292              	.L20:
 293              	.LVL16:
  83:oledlib/oled_draw.c **** 
  84:oledlib/oled_draw.c ****     else if (lDelta_Y == 0)
  85:oledlib/oled_draw.c ****         lIncrease_Y = 0; //水平线
  86:oledlib/oled_draw.c **** 
  87:oledlib/oled_draw.c ****     else
  88:oledlib/oled_draw.c ****     {
  89:oledlib/oled_draw.c ****         lIncrease_Y = -1;
  90:oledlib/oled_draw.c ****         lDelta_Y = -lDelta_Y;
  91:oledlib/oled_draw.c ****     }
  92:oledlib/oled_draw.c **** 
  93:oledlib/oled_draw.c ****     if (lDelta_X > lDelta_Y)
 294              		.loc 1 93 5 is_stmt 1 view .LVU57
 295              		.loc 1 93 8 is_stmt 0 view .LVU58
 296 002a DA45     		cmp	r10, fp
 297 002c 1CDD     		ble	.L30
  94:oledlib/oled_draw.c ****         lDistance = lDelta_X; //选取基本增量坐标轴
 298              		.loc 1 94 19 view .LVU59
 299 002e 5646     		mov	r6, r10
 300              	.L21:
 301              	.LVL17:
  95:oledlib/oled_draw.c **** 
  96:oledlib/oled_draw.c ****     else
  97:oledlib/oled_draw.c ****         lDistance = lDelta_Y;
  98:oledlib/oled_draw.c **** 
  99:oledlib/oled_draw.c ****     for (us = 0; us <= lDistance + 1; us++) //画线输出
 302              		.loc 1 99 5 is_stmt 1 view .LVU60
  60:oledlib/oled_draw.c ****     int lIncrease_X, lIncrease_Y;
 303              		.loc 1 60 23 is_stmt 0 view .LVU61
 304 0030 0025     		movs	r5, #0
  60:oledlib/oled_draw.c ****     int lIncrease_X, lIncrease_Y;
 305              		.loc 1 60 9 view .LVU62
 306 0032 2F46     		mov	r7, r5
 307              		.loc 1 99 13 view .LVU63
 308 0034 2C46     		mov	r4, r5
 309              		.loc 1 99 5 view .LVU64
 310 0036 1BE0     		b	.L22
 311              	.LVL18:
ARM GAS  C:\Users\GKQ\AppData\Local\Temp\ccFEMZSq.s 			page 8


 312              	.L32:
  72:oledlib/oled_draw.c ****         lIncrease_X = 0; //垂直线
 313              		.loc 1 72 10 is_stmt 1 view .LVU65
  72:oledlib/oled_draw.c ****         lIncrease_X = 0; //垂直线
 314              		.loc 1 72 13 is_stmt 0 view .LVU66
 315 0038 BAF1000F 		cmp	r10, #0
 316 003c 05D0     		beq	.L27
  77:oledlib/oled_draw.c ****         lDelta_X = -lDelta_X;
 317              		.loc 1 77 9 is_stmt 1 view .LVU67
 318              	.LVL19:
  78:oledlib/oled_draw.c ****     }
 319              		.loc 1 78 9 view .LVU68
  78:oledlib/oled_draw.c ****     }
 320              		.loc 1 78 18 is_stmt 0 view .LVU69
 321 003e A0EB020A 		sub	r10, r0, r2
 322              	.LVL20:
  77:oledlib/oled_draw.c ****         lDelta_X = -lDelta_X;
 323              		.loc 1 77 21 view .LVU70
 324 0042 4FF0FF32 		mov	r2, #-1
 325              	.LVL21:
  77:oledlib/oled_draw.c ****         lDelta_X = -lDelta_X;
 326              		.loc 1 77 21 view .LVU71
 327 0046 0092     		str	r2, [sp]
 328 0048 EAE7     		b	.L19
 329              	.LVL22:
 330              	.L27:
  73:oledlib/oled_draw.c **** 
 331              		.loc 1 73 21 view .LVU72
 332 004a CDF800A0 		str	r10, [sp]
 333 004e E7E7     		b	.L19
 334              	.LVL23:
 335              	.L33:
  84:oledlib/oled_draw.c ****         lIncrease_Y = 0; //水平线
 336              		.loc 1 84 10 is_stmt 1 view .LVU73
  84:oledlib/oled_draw.c ****         lIncrease_Y = 0; //水平线
 337              		.loc 1 84 13 is_stmt 0 view .LVU74
 338 0050 BBF1000F 		cmp	fp, #0
 339 0054 05D0     		beq	.L29
  89:oledlib/oled_draw.c ****         lDelta_Y = -lDelta_Y;
 340              		.loc 1 89 9 is_stmt 1 view .LVU75
 341              	.LVL24:
  90:oledlib/oled_draw.c ****     }
 342              		.loc 1 90 9 view .LVU76
  90:oledlib/oled_draw.c ****     }
 343              		.loc 1 90 18 is_stmt 0 view .LVU77
 344 0056 A1EB030B 		sub	fp, r1, r3
 345              	.LVL25:
  89:oledlib/oled_draw.c ****         lDelta_Y = -lDelta_Y;
 346              		.loc 1 89 21 view .LVU78
 347 005a 4FF0FF33 		mov	r3, #-1
 348              	.LVL26:
  89:oledlib/oled_draw.c ****         lDelta_Y = -lDelta_Y;
 349              		.loc 1 89 21 view .LVU79
 350 005e 0193     		str	r3, [sp, #4]
 351 0060 E3E7     		b	.L20
 352              	.LVL27:
 353              	.L29:
ARM GAS  C:\Users\GKQ\AppData\Local\Temp\ccFEMZSq.s 			page 9


  85:oledlib/oled_draw.c **** 
 354              		.loc 1 85 21 view .LVU80
 355 0062 CDF804B0 		str	fp, [sp, #4]
 356 0066 E0E7     		b	.L20
 357              	.LVL28:
 358              	.L30:
  97:oledlib/oled_draw.c **** 
 359              		.loc 1 97 19 view .LVU81
 360 0068 5E46     		mov	r6, fp
 361 006a E1E7     		b	.L21
 362              	.LVL29:
 363              	.L24:
 364              		.loc 1 99 39 is_stmt 1 discriminator 2 view .LVU82
 365              		.loc 1 99 41 is_stmt 0 discriminator 2 view .LVU83
 366 006c 0134     		adds	r4, r4, #1
 367              	.LVL30:
 368              		.loc 1 99 41 discriminator 2 view .LVU84
 369 006e A4B2     		uxth	r4, r4
 370              	.LVL31:
 371              	.L22:
 372              		.loc 1 99 18 is_stmt 1 discriminator 1 view .LVU85
 373              		.loc 1 99 34 is_stmt 0 discriminator 1 view .LVU86
 374 0070 731C     		adds	r3, r6, #1
 375              		.loc 1 99 5 discriminator 1 view .LVU87
 376 0072 9C42     		cmp	r4, r3
 377 0074 17DC     		bgt	.L34
 100:oledlib/oled_draw.c ****     {
 101:oledlib/oled_draw.c ****         SetPointBuffer(usX_Current, usY_Current, GetDrawColor()); //画点
 378              		.loc 1 101 9 is_stmt 1 view .LVU88
 379              		.loc 1 101 50 is_stmt 0 view .LVU89
 380 0076 FFF7FEFF 		bl	GetDrawColor
 381              	.LVL32:
 382 007a 0246     		mov	r2, r0
 383              		.loc 1 101 9 view .LVU90
 384 007c 4946     		mov	r1, r9
 385 007e 4046     		mov	r0, r8
 386 0080 FFF7FEFF 		bl	SetPointBuffer
 387              	.LVL33:
 102:oledlib/oled_draw.c ****         lError_X += lDelta_X;
 388              		.loc 1 102 9 is_stmt 1 view .LVU91
 389              		.loc 1 102 18 is_stmt 0 view .LVU92
 390 0084 5744     		add	r7, r7, r10
 391              	.LVL34:
 103:oledlib/oled_draw.c ****         lError_Y += lDelta_Y;
 392              		.loc 1 103 9 is_stmt 1 view .LVU93
 393              		.loc 1 103 18 is_stmt 0 view .LVU94
 394 0086 5D44     		add	r5, r5, fp
 395              	.LVL35:
 104:oledlib/oled_draw.c **** 
 105:oledlib/oled_draw.c ****         if (lError_X > lDistance)
 396              		.loc 1 105 9 is_stmt 1 view .LVU95
 397              		.loc 1 105 12 is_stmt 0 view .LVU96
 398 0088 BE42     		cmp	r6, r7
 399 008a 04DA     		bge	.L23
 106:oledlib/oled_draw.c ****         {
 107:oledlib/oled_draw.c ****             lError_X -= lDistance;
 400              		.loc 1 107 13 is_stmt 1 view .LVU97
ARM GAS  C:\Users\GKQ\AppData\Local\Temp\ccFEMZSq.s 			page 10


 401              		.loc 1 107 22 is_stmt 0 view .LVU98
 402 008c BF1B     		subs	r7, r7, r6
 403              	.LVL36:
 108:oledlib/oled_draw.c ****             usX_Current += lIncrease_X;
 404              		.loc 1 108 13 is_stmt 1 view .LVU99
 405              		.loc 1 108 25 is_stmt 0 view .LVU100
 406 008e 009B     		ldr	r3, [sp]
 407 0090 9844     		add	r8, r8, r3
 408              	.LVL37:
 409              		.loc 1 108 25 view .LVU101
 410 0092 1FFA88F8 		uxth	r8, r8
 411              	.LVL38:
 412              	.L23:
 109:oledlib/oled_draw.c ****         }
 110:oledlib/oled_draw.c **** 
 111:oledlib/oled_draw.c ****         if (lError_Y > lDistance)
 413              		.loc 1 111 9 is_stmt 1 view .LVU102
 414              		.loc 1 111 12 is_stmt 0 view .LVU103
 415 0096 AE42     		cmp	r6, r5
 416 0098 E8DA     		bge	.L24
 112:oledlib/oled_draw.c ****         {
 113:oledlib/oled_draw.c ****             lError_Y -= lDistance;
 417              		.loc 1 113 13 is_stmt 1 view .LVU104
 418              		.loc 1 113 22 is_stmt 0 view .LVU105
 419 009a AD1B     		subs	r5, r5, r6
 420              	.LVL39:
 114:oledlib/oled_draw.c ****             usY_Current += lIncrease_Y;
 421              		.loc 1 114 13 is_stmt 1 view .LVU106
 422              		.loc 1 114 25 is_stmt 0 view .LVU107
 423 009c 019B     		ldr	r3, [sp, #4]
 424 009e 9944     		add	r9, r9, r3
 425              	.LVL40:
 426              		.loc 1 114 25 view .LVU108
 427 00a0 1FFA89F9 		uxth	r9, r9
 428              	.LVL41:
 429              		.loc 1 114 25 view .LVU109
 430 00a4 E2E7     		b	.L24
 431              	.L34:
 115:oledlib/oled_draw.c ****         }
 116:oledlib/oled_draw.c ****     }
 117:oledlib/oled_draw.c **** }
 432              		.loc 1 117 1 view .LVU110
 433 00a6 03B0     		add	sp, sp, #12
 434              	.LCFI4:
 435              		.cfi_def_cfa_offset 36
 436              	.LVL42:
 437              		.loc 1 117 1 view .LVU111
 438              		@ sp needed
 439 00a8 BDE8F08F 		pop	{r4, r5, r6, r7, r8, r9, r10, fp, pc}
 440              		.loc 1 117 1 view .LVU112
 441              		.cfi_endproc
 442              	.LFE7:
 444              		.section	.text.LineTo,"ax",%progbits
 445              		.align	1
 446              		.global	LineTo
 447              		.syntax unified
 448              		.thumb
ARM GAS  C:\Users\GKQ\AppData\Local\Temp\ccFEMZSq.s 			page 11


 449              		.thumb_func
 450              		.fpu softvfp
 452              	LineTo:
 453              	.LVL43:
 454              	.LFB6:
  46:oledlib/oled_draw.c ****     DrawLine(_pointx, _pointy, x, y);
 455              		.loc 1 46 1 is_stmt 1 view -0
 456              		.cfi_startproc
 457              		@ args = 0, pretend = 0, frame = 0
 458              		@ frame_needed = 0, uses_anonymous_args = 0
  46:oledlib/oled_draw.c ****     DrawLine(_pointx, _pointy, x, y);
 459              		.loc 1 46 1 is_stmt 0 view .LVU114
 460 0000 F8B5     		push	{r3, r4, r5, r6, r7, lr}
 461              	.LCFI5:
 462              		.cfi_def_cfa_offset 24
 463              		.cfi_offset 3, -24
 464              		.cfi_offset 4, -20
 465              		.cfi_offset 5, -16
 466              		.cfi_offset 6, -12
 467              		.cfi_offset 7, -8
 468              		.cfi_offset 14, -4
 469 0002 0546     		mov	r5, r0
 470 0004 0C46     		mov	r4, r1
  47:oledlib/oled_draw.c ****     _pointx = x;
 471              		.loc 1 47 5 is_stmt 1 view .LVU115
 472 0006 054E     		ldr	r6, .L37
 473 0008 054F     		ldr	r7, .L37+4
 474 000a 0B46     		mov	r3, r1
 475 000c 0246     		mov	r2, r0
 476 000e 3168     		ldr	r1, [r6]
 477              	.LVL44:
  47:oledlib/oled_draw.c ****     _pointx = x;
 478              		.loc 1 47 5 is_stmt 0 view .LVU116
 479 0010 3868     		ldr	r0, [r7]
 480              	.LVL45:
  47:oledlib/oled_draw.c ****     _pointx = x;
 481              		.loc 1 47 5 view .LVU117
 482 0012 FFF7FEFF 		bl	DrawLine
 483              	.LVL46:
  48:oledlib/oled_draw.c ****     _pointy = y;
 484              		.loc 1 48 5 is_stmt 1 view .LVU118
  48:oledlib/oled_draw.c ****     _pointy = y;
 485              		.loc 1 48 13 is_stmt 0 view .LVU119
 486 0016 3D60     		str	r5, [r7]
  49:oledlib/oled_draw.c **** }
 487              		.loc 1 49 5 is_stmt 1 view .LVU120
  49:oledlib/oled_draw.c **** }
 488              		.loc 1 49 13 is_stmt 0 view .LVU121
 489 0018 3460     		str	r4, [r6]
  50:oledlib/oled_draw.c **** //int GetPixel(int x,int y)
 490              		.loc 1 50 1 view .LVU122
 491 001a F8BD     		pop	{r3, r4, r5, r6, r7, pc}
 492              	.LVL47:
 493              	.L38:
  50:oledlib/oled_draw.c **** //int GetPixel(int x,int y)
 494              		.loc 1 50 1 view .LVU123
 495              		.align	2
ARM GAS  C:\Users\GKQ\AppData\Local\Temp\ccFEMZSq.s 			page 12


 496              	.L37:
 497 001c 00000000 		.word	.LANCHOR1
 498 0020 00000000 		.word	.LANCHOR0
 499              		.cfi_endproc
 500              	.LFE6:
 502              		.section	.text.DrawFastHLine,"ax",%progbits
 503              		.align	1
 504              		.global	DrawFastHLine
 505              		.syntax unified
 506              		.thumb
 507              		.thumb_func
 508              		.fpu softvfp
 510              	DrawFastHLine:
 511              	.LVL48:
 512              	.LFB8:
 118:oledlib/oled_draw.c **** 
 119:oledlib/oled_draw.c **** void DrawFastHLine(int x, int y, unsigned char w)
 120:oledlib/oled_draw.c **** {
 513              		.loc 1 120 1 is_stmt 1 view -0
 514              		.cfi_startproc
 515              		@ args = 0, pretend = 0, frame = 0
 516              		@ frame_needed = 0, uses_anonymous_args = 0
 517              		.loc 1 120 1 is_stmt 0 view .LVU125
 518 0000 F8B5     		push	{r3, r4, r5, r6, r7, lr}
 519              	.LCFI6:
 520              		.cfi_def_cfa_offset 24
 521              		.cfi_offset 3, -24
 522              		.cfi_offset 4, -20
 523              		.cfi_offset 5, -16
 524              		.cfi_offset 6, -12
 525              		.cfi_offset 7, -8
 526              		.cfi_offset 14, -4
 527 0002 0446     		mov	r4, r0
 528 0004 0F46     		mov	r7, r1
 121:oledlib/oled_draw.c ****     int end = x + w;
 529              		.loc 1 121 5 is_stmt 1 view .LVU126
 530              		.loc 1 121 9 is_stmt 0 view .LVU127
 531 0006 1518     		adds	r5, r2, r0
 532              	.LVL49:
 122:oledlib/oled_draw.c ****     int a;
 533              		.loc 1 122 5 is_stmt 1 view .LVU128
 123:oledlib/oled_draw.c ****     Type_color color = GetDrawColor();
 534              		.loc 1 123 5 view .LVU129
 535              		.loc 1 123 24 is_stmt 0 view .LVU130
 536 0008 FFF7FEFF 		bl	GetDrawColor
 537              	.LVL50:
 538              		.loc 1 123 24 view .LVU131
 539 000c 0646     		mov	r6, r0
 540              	.LVL51:
 124:oledlib/oled_draw.c ****     for (a = MAX(0, x); a < MIN(end, SCREEN_COLUMN); a++)
 541              		.loc 1 124 5 is_stmt 1 view .LVU132
 542              		.loc 1 124 12 is_stmt 0 view .LVU133
 543 000e 24EAE474 		bic	r4, r4, r4, asr #31
 544              	.LVL52:
 545              	.L40:
 546              		.loc 1 124 25 is_stmt 1 discriminator 1 view .LVU134
 547              		.loc 1 124 29 is_stmt 0 discriminator 1 view .LVU135
ARM GAS  C:\Users\GKQ\AppData\Local\Temp\ccFEMZSq.s 			page 13


 548 0012 2B46     		mov	r3, r5
 549 0014 802D     		cmp	r5, #128
 550 0016 A8BF     		it	ge
 551 0018 8023     		movge	r3, #128
 552              		.loc 1 124 5 discriminator 1 view .LVU136
 553 001a A342     		cmp	r3, r4
 554 001c 06DD     		ble	.L43
 125:oledlib/oled_draw.c ****     {
 126:oledlib/oled_draw.c ****         SetPointBuffer(a, y, color);
 555              		.loc 1 126 9 is_stmt 1 discriminator 3 view .LVU137
 556 001e 3246     		mov	r2, r6
 557 0020 3946     		mov	r1, r7
 558 0022 2046     		mov	r0, r4
 559 0024 FFF7FEFF 		bl	SetPointBuffer
 560              	.LVL53:
 124:oledlib/oled_draw.c ****     for (a = MAX(0, x); a < MIN(end, SCREEN_COLUMN); a++)
 561              		.loc 1 124 54 discriminator 3 view .LVU138
 124:oledlib/oled_draw.c ****     for (a = MAX(0, x); a < MIN(end, SCREEN_COLUMN); a++)
 562              		.loc 1 124 55 is_stmt 0 discriminator 3 view .LVU139
 563 0028 0134     		adds	r4, r4, #1
 564              	.LVL54:
 124:oledlib/oled_draw.c ****     for (a = MAX(0, x); a < MIN(end, SCREEN_COLUMN); a++)
 565              		.loc 1 124 55 discriminator 3 view .LVU140
 566 002a F2E7     		b	.L40
 567              	.L43:
 127:oledlib/oled_draw.c ****     }
 128:oledlib/oled_draw.c **** }
 568              		.loc 1 128 1 view .LVU141
 569 002c F8BD     		pop	{r3, r4, r5, r6, r7, pc}
 570              		.loc 1 128 1 view .LVU142
 571              		.cfi_endproc
 572              	.LFE8:
 574              		.section	.text.DrawFastVLine,"ax",%progbits
 575              		.align	1
 576              		.global	DrawFastVLine
 577              		.syntax unified
 578              		.thumb
 579              		.thumb_func
 580              		.fpu softvfp
 582              	DrawFastVLine:
 583              	.LVL55:
 584              	.LFB9:
 129:oledlib/oled_draw.c **** void DrawFastVLine(int x, int y, unsigned char h)
 130:oledlib/oled_draw.c **** {
 585              		.loc 1 130 1 is_stmt 1 view -0
 586              		.cfi_startproc
 587              		@ args = 0, pretend = 0, frame = 0
 588              		@ frame_needed = 0, uses_anonymous_args = 0
 589              		.loc 1 130 1 is_stmt 0 view .LVU144
 590 0000 F8B5     		push	{r3, r4, r5, r6, r7, lr}
 591              	.LCFI7:
 592              		.cfi_def_cfa_offset 24
 593              		.cfi_offset 3, -24
 594              		.cfi_offset 4, -20
 595              		.cfi_offset 5, -16
 596              		.cfi_offset 6, -12
 597              		.cfi_offset 7, -8
ARM GAS  C:\Users\GKQ\AppData\Local\Temp\ccFEMZSq.s 			page 14


 598              		.cfi_offset 14, -4
 599 0002 0746     		mov	r7, r0
 600 0004 0C46     		mov	r4, r1
 131:oledlib/oled_draw.c ****     int end = y + h;
 601              		.loc 1 131 5 is_stmt 1 view .LVU145
 602              		.loc 1 131 9 is_stmt 0 view .LVU146
 603 0006 5518     		adds	r5, r2, r1
 604              	.LVL56:
 132:oledlib/oled_draw.c ****     int a;
 605              		.loc 1 132 5 is_stmt 1 view .LVU147
 133:oledlib/oled_draw.c ****     Type_color color = GetDrawColor();
 606              		.loc 1 133 5 view .LVU148
 607              		.loc 1 133 24 is_stmt 0 view .LVU149
 608 0008 FFF7FEFF 		bl	GetDrawColor
 609              	.LVL57:
 610              		.loc 1 133 24 view .LVU150
 611 000c 0646     		mov	r6, r0
 612              	.LVL58:
 134:oledlib/oled_draw.c ****     for (a = MAX(0, y); a < MIN(end, SCREEN_ROW); a++)
 613              		.loc 1 134 5 is_stmt 1 view .LVU151
 614              		.loc 1 134 12 is_stmt 0 view .LVU152
 615 000e 24EAE474 		bic	r4, r4, r4, asr #31
 616              	.LVL59:
 617              	.L45:
 618              		.loc 1 134 25 is_stmt 1 discriminator 1 view .LVU153
 619              		.loc 1 134 29 is_stmt 0 discriminator 1 view .LVU154
 620 0012 2B46     		mov	r3, r5
 621 0014 402D     		cmp	r5, #64
 622 0016 A8BF     		it	ge
 623 0018 4023     		movge	r3, #64
 624              		.loc 1 134 5 discriminator 1 view .LVU155
 625 001a A342     		cmp	r3, r4
 626 001c 06DD     		ble	.L48
 135:oledlib/oled_draw.c ****     {
 136:oledlib/oled_draw.c ****         SetPointBuffer(x, a, color);
 627              		.loc 1 136 9 is_stmt 1 discriminator 3 view .LVU156
 628 001e 3246     		mov	r2, r6
 629 0020 2146     		mov	r1, r4
 630 0022 3846     		mov	r0, r7
 631 0024 FFF7FEFF 		bl	SetPointBuffer
 632              	.LVL60:
 134:oledlib/oled_draw.c ****     for (a = MAX(0, y); a < MIN(end, SCREEN_ROW); a++)
 633              		.loc 1 134 51 discriminator 3 view .LVU157
 134:oledlib/oled_draw.c ****     for (a = MAX(0, y); a < MIN(end, SCREEN_ROW); a++)
 634              		.loc 1 134 52 is_stmt 0 discriminator 3 view .LVU158
 635 0028 0134     		adds	r4, r4, #1
 636              	.LVL61:
 134:oledlib/oled_draw.c ****     for (a = MAX(0, y); a < MIN(end, SCREEN_ROW); a++)
 637              		.loc 1 134 52 discriminator 3 view .LVU159
 638 002a F2E7     		b	.L45
 639              	.L48:
 137:oledlib/oled_draw.c ****     }
 138:oledlib/oled_draw.c **** }
 640              		.loc 1 138 1 view .LVU160
 641 002c F8BD     		pop	{r3, r4, r5, r6, r7, pc}
 642              		.loc 1 138 1 view .LVU161
 643              		.cfi_endproc
ARM GAS  C:\Users\GKQ\AppData\Local\Temp\ccFEMZSq.s 			page 15


 644              	.LFE9:
 646              		.section	.text.DrawPolyLineTo,"ax",%progbits
 647              		.align	1
 648              		.global	DrawPolyLineTo
 649              		.syntax unified
 650              		.thumb
 651              		.thumb_func
 652              		.fpu softvfp
 654              	DrawPolyLineTo:
 655              	.LVL62:
 656              	.LFB10:
 139:oledlib/oled_draw.c **** 
 140:oledlib/oled_draw.c **** void DrawPolyLineTo(const TypeXY *points, int num)
 141:oledlib/oled_draw.c **** {
 657              		.loc 1 141 1 is_stmt 1 view -0
 658              		.cfi_startproc
 659              		@ args = 0, pretend = 0, frame = 0
 660              		@ frame_needed = 0, uses_anonymous_args = 0
 661              		.loc 1 141 1 is_stmt 0 view .LVU163
 662 0000 70B5     		push	{r4, r5, r6, lr}
 663              	.LCFI8:
 664              		.cfi_def_cfa_offset 16
 665              		.cfi_offset 4, -16
 666              		.cfi_offset 5, -12
 667              		.cfi_offset 6, -8
 668              		.cfi_offset 14, -4
 669 0002 0546     		mov	r5, r0
 670 0004 0E46     		mov	r6, r1
 142:oledlib/oled_draw.c ****     int i = 0;
 671              		.loc 1 142 5 is_stmt 1 view .LVU164
 672              	.LVL63:
 143:oledlib/oled_draw.c ****     MoveTo(points[0].x, points[0].y);
 673              		.loc 1 143 5 view .LVU165
 674 0006 4168     		ldr	r1, [r0, #4]
 675              	.LVL64:
 676              		.loc 1 143 5 is_stmt 0 view .LVU166
 677 0008 0068     		ldr	r0, [r0]
 678              	.LVL65:
 679              		.loc 1 143 5 view .LVU167
 680 000a FFF7FEFF 		bl	MoveTo
 681              	.LVL66:
 144:oledlib/oled_draw.c ****     for (i = 1; i < num; i++)
 682              		.loc 1 144 5 is_stmt 1 view .LVU168
 683              		.loc 1 144 12 is_stmt 0 view .LVU169
 684 000e 0124     		movs	r4, #1
 685              	.LVL67:
 686              	.L50:
 687              		.loc 1 144 17 is_stmt 1 discriminator 1 view .LVU170
 688              		.loc 1 144 5 is_stmt 0 discriminator 1 view .LVU171
 689 0010 B442     		cmp	r4, r6
 690 0012 08DA     		bge	.L53
 145:oledlib/oled_draw.c ****     {
 146:oledlib/oled_draw.c ****         LineTo(points[i].x, points[i].y);
 691              		.loc 1 146 9 is_stmt 1 discriminator 3 view .LVU172
 692              		.loc 1 146 22 is_stmt 0 discriminator 3 view .LVU173
 693 0014 05EBC403 		add	r3, r5, r4, lsl #3
 694              		.loc 1 146 9 discriminator 3 view .LVU174
ARM GAS  C:\Users\GKQ\AppData\Local\Temp\ccFEMZSq.s 			page 16


 695 0018 5968     		ldr	r1, [r3, #4]
 696 001a 55F83400 		ldr	r0, [r5, r4, lsl #3]
 697 001e FFF7FEFF 		bl	LineTo
 698              	.LVL68:
 144:oledlib/oled_draw.c ****     for (i = 1; i < num; i++)
 699              		.loc 1 144 26 is_stmt 1 discriminator 3 view .LVU175
 144:oledlib/oled_draw.c ****     for (i = 1; i < num; i++)
 700              		.loc 1 144 27 is_stmt 0 discriminator 3 view .LVU176
 701 0022 0134     		adds	r4, r4, #1
 702              	.LVL69:
 144:oledlib/oled_draw.c ****     for (i = 1; i < num; i++)
 703              		.loc 1 144 27 discriminator 3 view .LVU177
 704 0024 F4E7     		b	.L50
 705              	.L53:
 147:oledlib/oled_draw.c ****     }
 148:oledlib/oled_draw.c **** }
 706              		.loc 1 148 1 view .LVU178
 707 0026 70BD     		pop	{r4, r5, r6, pc}
 708              		.loc 1 148 1 view .LVU179
 709              		.cfi_endproc
 710              	.LFE10:
 712              		.section	.text.DrawRect1,"ax",%progbits
 713              		.align	1
 714              		.global	DrawRect1
 715              		.syntax unified
 716              		.thumb
 717              		.thumb_func
 718              		.fpu softvfp
 720              	DrawRect1:
 721              	.LVL70:
 722              	.LFB11:
 149:oledlib/oled_draw.c **** 
 150:oledlib/oled_draw.c **** void DrawRect1(int left, int top, int right, int bottom)
 151:oledlib/oled_draw.c **** {
 723              		.loc 1 151 1 is_stmt 1 view -0
 724              		.cfi_startproc
 725              		@ args = 0, pretend = 0, frame = 0
 726              		@ frame_needed = 0, uses_anonymous_args = 0
 727              		.loc 1 151 1 is_stmt 0 view .LVU181
 728 0000 F8B5     		push	{r3, r4, r5, r6, r7, lr}
 729              	.LCFI9:
 730              		.cfi_def_cfa_offset 24
 731              		.cfi_offset 3, -24
 732              		.cfi_offset 4, -20
 733              		.cfi_offset 5, -16
 734              		.cfi_offset 6, -12
 735              		.cfi_offset 7, -8
 736              		.cfi_offset 14, -4
 737 0002 0746     		mov	r7, r0
 738 0004 0E46     		mov	r6, r1
 739 0006 1546     		mov	r5, r2
 740 0008 1C46     		mov	r4, r3
 152:oledlib/oled_draw.c ****     DrawLine(left, top, right, top);
 741              		.loc 1 152 5 is_stmt 1 view .LVU182
 742 000a 0B46     		mov	r3, r1
 743              	.LVL71:
 744              		.loc 1 152 5 is_stmt 0 view .LVU183
ARM GAS  C:\Users\GKQ\AppData\Local\Temp\ccFEMZSq.s 			page 17


 745 000c FFF7FEFF 		bl	DrawLine
 746              	.LVL72:
 153:oledlib/oled_draw.c ****     DrawLine(left, bottom, right, bottom);
 747              		.loc 1 153 5 is_stmt 1 view .LVU184
 748 0010 2346     		mov	r3, r4
 749 0012 2A46     		mov	r2, r5
 750 0014 2146     		mov	r1, r4
 751 0016 3846     		mov	r0, r7
 752 0018 FFF7FEFF 		bl	DrawLine
 753              	.LVL73:
 154:oledlib/oled_draw.c ****     DrawLine(left, top, left, bottom);
 754              		.loc 1 154 5 view .LVU185
 755 001c 2346     		mov	r3, r4
 756 001e 3A46     		mov	r2, r7
 757 0020 3146     		mov	r1, r6
 758 0022 3846     		mov	r0, r7
 759 0024 FFF7FEFF 		bl	DrawLine
 760              	.LVL74:
 155:oledlib/oled_draw.c ****     DrawLine(right, top, right, bottom);
 761              		.loc 1 155 5 view .LVU186
 762 0028 2346     		mov	r3, r4
 763 002a 2A46     		mov	r2, r5
 764 002c 3146     		mov	r1, r6
 765 002e 2846     		mov	r0, r5
 766 0030 FFF7FEFF 		bl	DrawLine
 767              	.LVL75:
 156:oledlib/oled_draw.c **** }
 768              		.loc 1 156 1 is_stmt 0 view .LVU187
 769 0034 F8BD     		pop	{r3, r4, r5, r6, r7, pc}
 770              		.loc 1 156 1 view .LVU188
 771              		.cfi_endproc
 772              	.LFE11:
 774              		.section	.text.DrawFillRect1,"ax",%progbits
 775              		.align	1
 776              		.global	DrawFillRect1
 777              		.syntax unified
 778              		.thumb
 779              		.thumb_func
 780              		.fpu softvfp
 782              	DrawFillRect1:
 783              	.LVL76:
 784              	.LFB12:
 157:oledlib/oled_draw.c **** 
 158:oledlib/oled_draw.c **** void DrawFillRect1(int left, int top, int right, int bottom)
 159:oledlib/oled_draw.c **** {
 785              		.loc 1 159 1 is_stmt 1 view -0
 786              		.cfi_startproc
 787              		@ args = 0, pretend = 0, frame = 0
 788              		@ frame_needed = 0, uses_anonymous_args = 0
 789              		.loc 1 159 1 is_stmt 0 view .LVU190
 790 0000 F8B5     		push	{r3, r4, r5, r6, r7, lr}
 791              	.LCFI10:
 792              		.cfi_def_cfa_offset 24
 793              		.cfi_offset 3, -24
 794              		.cfi_offset 4, -20
 795              		.cfi_offset 5, -16
 796              		.cfi_offset 6, -12
ARM GAS  C:\Users\GKQ\AppData\Local\Temp\ccFEMZSq.s 			page 18


 797              		.cfi_offset 7, -8
 798              		.cfi_offset 14, -4
 799 0002 0646     		mov	r6, r0
 800 0004 0F46     		mov	r7, r1
 801 0006 1446     		mov	r4, r2
 802 0008 1D46     		mov	r5, r3
 160:oledlib/oled_draw.c **** 
 161:oledlib/oled_draw.c ****     DrawRect1(left, top, right, bottom);
 803              		.loc 1 161 5 is_stmt 1 view .LVU191
 804 000a FFF7FEFF 		bl	DrawRect1
 805              	.LVL77:
 162:oledlib/oled_draw.c ****     FillRect(left + 1, top + 1, right - left - 1, bottom - top - 1);
 806              		.loc 1 162 5 view .LVU192
 807              		.loc 1 162 39 is_stmt 0 view .LVU193
 808 000e A21B     		subs	r2, r4, r6
 809              		.loc 1 162 58 view .LVU194
 810 0010 EB1B     		subs	r3, r5, r7
 811              		.loc 1 162 5 view .LVU195
 812 0012 013B     		subs	r3, r3, #1
 813 0014 013A     		subs	r2, r2, #1
 814 0016 791C     		adds	r1, r7, #1
 815 0018 701C     		adds	r0, r6, #1
 816 001a FFF7FEFF 		bl	FillRect
 817              	.LVL78:
 163:oledlib/oled_draw.c **** }
 818              		.loc 1 163 1 view .LVU196
 819 001e F8BD     		pop	{r3, r4, r5, r6, r7, pc}
 820              		.loc 1 163 1 view .LVU197
 821              		.cfi_endproc
 822              	.LFE12:
 824              		.section	.text.DrawRect2,"ax",%progbits
 825              		.align	1
 826              		.global	DrawRect2
 827              		.syntax unified
 828              		.thumb
 829              		.thumb_func
 830              		.fpu softvfp
 832              	DrawRect2:
 833              	.LVL79:
 834              	.LFB13:
 164:oledlib/oled_draw.c **** 
 165:oledlib/oled_draw.c **** void DrawRect2(int left, int top, int width, int height)
 166:oledlib/oled_draw.c **** {
 835              		.loc 1 166 1 is_stmt 1 view -0
 836              		.cfi_startproc
 837              		@ args = 0, pretend = 0, frame = 0
 838              		@ frame_needed = 0, uses_anonymous_args = 0
 839              		.loc 1 166 1 is_stmt 0 view .LVU199
 840 0000 F8B5     		push	{r3, r4, r5, r6, r7, lr}
 841              	.LCFI11:
 842              		.cfi_def_cfa_offset 24
 843              		.cfi_offset 3, -24
 844              		.cfi_offset 4, -20
 845              		.cfi_offset 5, -16
 846              		.cfi_offset 6, -12
 847              		.cfi_offset 7, -8
 848              		.cfi_offset 14, -4
ARM GAS  C:\Users\GKQ\AppData\Local\Temp\ccFEMZSq.s 			page 19


 849 0002 0746     		mov	r7, r0
 850 0004 0E46     		mov	r6, r1
 851 0006 1C46     		mov	r4, r3
 167:oledlib/oled_draw.c ****     DrawLine(left, top, left + width - 1, top);
 852              		.loc 1 167 5 is_stmt 1 view .LVU200
 853              		.loc 1 167 30 is_stmt 0 view .LVU201
 854 0008 0244     		add	r2, r2, r0
 855              	.LVL80:
 856              		.loc 1 167 5 view .LVU202
 857 000a 551E     		subs	r5, r2, #1
 858 000c 0B46     		mov	r3, r1
 859              	.LVL81:
 860              		.loc 1 167 5 view .LVU203
 861 000e 2A46     		mov	r2, r5
 862 0010 FFF7FEFF 		bl	DrawLine
 863              	.LVL82:
 168:oledlib/oled_draw.c ****     DrawLine(left, top + height - 1, left + width - 1, top + height - 1);
 864              		.loc 1 168 5 is_stmt 1 view .LVU204
 865              		.loc 1 168 24 is_stmt 0 view .LVU205
 866 0014 3444     		add	r4, r4, r6
 867              	.LVL83:
 868              		.loc 1 168 5 view .LVU206
 869 0016 013C     		subs	r4, r4, #1
 870 0018 2346     		mov	r3, r4
 871 001a 2A46     		mov	r2, r5
 872 001c 2146     		mov	r1, r4
 873 001e 3846     		mov	r0, r7
 874 0020 FFF7FEFF 		bl	DrawLine
 875              	.LVL84:
 169:oledlib/oled_draw.c ****     DrawLine(left, top, left, top + height - 1);
 876              		.loc 1 169 5 is_stmt 1 view .LVU207
 877 0024 2346     		mov	r3, r4
 878 0026 3A46     		mov	r2, r7
 879 0028 3146     		mov	r1, r6
 880 002a 3846     		mov	r0, r7
 881 002c FFF7FEFF 		bl	DrawLine
 882              	.LVL85:
 170:oledlib/oled_draw.c ****     DrawLine(left + width - 1, top, left + width - 1, top + height - 1);
 883              		.loc 1 170 5 view .LVU208
 884 0030 2346     		mov	r3, r4
 885 0032 2A46     		mov	r2, r5
 886 0034 3146     		mov	r1, r6
 887 0036 2846     		mov	r0, r5
 888 0038 FFF7FEFF 		bl	DrawLine
 889              	.LVL86:
 171:oledlib/oled_draw.c **** }
 890              		.loc 1 171 1 is_stmt 0 view .LVU209
 891 003c F8BD     		pop	{r3, r4, r5, r6, r7, pc}
 892              		.loc 1 171 1 view .LVU210
 893              		.cfi_endproc
 894              	.LFE13:
 896              		.section	.text.DrawFillRect2,"ax",%progbits
 897              		.align	1
 898              		.global	DrawFillRect2
 899              		.syntax unified
 900              		.thumb
 901              		.thumb_func
ARM GAS  C:\Users\GKQ\AppData\Local\Temp\ccFEMZSq.s 			page 20


 902              		.fpu softvfp
 904              	DrawFillRect2:
 905              	.LVL87:
 906              	.LFB14:
 172:oledlib/oled_draw.c **** void DrawFillRect2(int left, int top, int width, int height)
 173:oledlib/oled_draw.c **** {
 907              		.loc 1 173 1 is_stmt 1 view -0
 908              		.cfi_startproc
 909              		@ args = 0, pretend = 0, frame = 0
 910              		@ frame_needed = 0, uses_anonymous_args = 0
 911              		.loc 1 173 1 is_stmt 0 view .LVU212
 912 0000 F8B5     		push	{r3, r4, r5, r6, r7, lr}
 913              	.LCFI12:
 914              		.cfi_def_cfa_offset 24
 915              		.cfi_offset 3, -24
 916              		.cfi_offset 4, -20
 917              		.cfi_offset 5, -16
 918              		.cfi_offset 6, -12
 919              		.cfi_offset 7, -8
 920              		.cfi_offset 14, -4
 921 0002 0446     		mov	r4, r0
 922 0004 0D46     		mov	r5, r1
 923 0006 1646     		mov	r6, r2
 924 0008 1F46     		mov	r7, r3
 174:oledlib/oled_draw.c ****     DrawRect2(left, top, width, height);
 925              		.loc 1 174 5 is_stmt 1 view .LVU213
 926 000a FFF7FEFF 		bl	DrawRect2
 927              	.LVL88:
 175:oledlib/oled_draw.c ****     FillRect(left + 1, top + 1, width - 1, height - 1);
 928              		.loc 1 175 5 view .LVU214
 929 000e 7B1E     		subs	r3, r7, #1
 930 0010 721E     		subs	r2, r6, #1
 931 0012 691C     		adds	r1, r5, #1
 932 0014 601C     		adds	r0, r4, #1
 933 0016 FFF7FEFF 		bl	FillRect
 934              	.LVL89:
 176:oledlib/oled_draw.c **** }
 935              		.loc 1 176 1 is_stmt 0 view .LVU215
 936 001a F8BD     		pop	{r3, r4, r5, r6, r7, pc}
 937              		.loc 1 176 1 view .LVU216
 938              		.cfi_endproc
 939              	.LFE14:
 941              		.section	.text.DrawCircle,"ax",%progbits
 942              		.align	1
 943              		.global	DrawCircle
 944              		.syntax unified
 945              		.thumb
 946              		.thumb_func
 947              		.fpu softvfp
 949              	DrawCircle:
 950              	.LVL90:
 951              	.LFB15:
 177:oledlib/oled_draw.c **** 
 178:oledlib/oled_draw.c **** void DrawCircle(int usX_Center, int usY_Center, int usRadius)
 179:oledlib/oled_draw.c **** {
 952              		.loc 1 179 1 is_stmt 1 view -0
 953              		.cfi_startproc
ARM GAS  C:\Users\GKQ\AppData\Local\Temp\ccFEMZSq.s 			page 21


 954              		@ args = 0, pretend = 0, frame = 8
 955              		@ frame_needed = 0, uses_anonymous_args = 0
 956              		.loc 1 179 1 is_stmt 0 view .LVU218
 957 0000 2DE9F04F 		push	{r4, r5, r6, r7, r8, r9, r10, fp, lr}
 958              	.LCFI13:
 959              		.cfi_def_cfa_offset 36
 960              		.cfi_offset 4, -36
 961              		.cfi_offset 5, -32
 962              		.cfi_offset 6, -28
 963              		.cfi_offset 7, -24
 964              		.cfi_offset 8, -20
 965              		.cfi_offset 9, -16
 966              		.cfi_offset 10, -12
 967              		.cfi_offset 11, -8
 968              		.cfi_offset 14, -4
 969 0004 83B0     		sub	sp, sp, #12
 970              	.LCFI14:
 971              		.cfi_def_cfa_offset 48
 972 0006 0746     		mov	r7, r0
 973 0008 0E46     		mov	r6, r1
 180:oledlib/oled_draw.c ****     short sCurrentX, sCurrentY;
 974              		.loc 1 180 5 is_stmt 1 view .LVU219
 181:oledlib/oled_draw.c ****     short sError;
 975              		.loc 1 181 5 view .LVU220
 182:oledlib/oled_draw.c ****     sCurrentX = 0;
 976              		.loc 1 182 5 view .LVU221
 977              	.LVL91:
 183:oledlib/oled_draw.c ****     sCurrentY = usRadius;
 978              		.loc 1 183 5 view .LVU222
 979              		.loc 1 183 15 is_stmt 0 view .LVU223
 980 000a 15B2     		sxth	r5, r2
 981              	.LVL92:
 184:oledlib/oled_draw.c ****     sError = 3 - (usRadius << 1); //判断下个点位置的标志
 982              		.loc 1 184 5 is_stmt 1 view .LVU224
 983              		.loc 1 184 28 is_stmt 0 view .LVU225
 984 000c 5200     		lsls	r2, r2, #1
 985              	.LVL93:
 986              		.loc 1 184 28 view .LVU226
 987 000e 92B2     		uxth	r2, r2
 988              		.loc 1 184 16 view .LVU227
 989 0010 C2F10302 		rsb	r2, r2, #3
 990              		.loc 1 184 12 view .LVU228
 991 0014 0FFA82FA 		sxth	r10, r2
 992              	.LVL94:
 185:oledlib/oled_draw.c ****     while (sCurrentX <= sCurrentY)
 993              		.loc 1 185 5 is_stmt 1 view .LVU229
 182:oledlib/oled_draw.c ****     sCurrentY = usRadius;
 994              		.loc 1 182 15 is_stmt 0 view .LVU230
 995 0018 0024     		movs	r4, #0
 996              		.loc 1 185 11 view .LVU231
 997 001a 05E0     		b	.L63
 998              	.LVL95:
 999              	.L69:
 186:oledlib/oled_draw.c ****     {
 187:oledlib/oled_draw.c ****         SetPointBuffer(usX_Center + sCurrentX, usY_Center + sCurrentY, GetDrawColor()); //1，研究对
 188:oledlib/oled_draw.c ****         SetPointBuffer(usX_Center - sCurrentX, usY_Center + sCurrentY, GetDrawColor()); //2
 189:oledlib/oled_draw.c ****         SetPointBuffer(usX_Center - sCurrentY, usY_Center + sCurrentX, GetDrawColor()); //3
ARM GAS  C:\Users\GKQ\AppData\Local\Temp\ccFEMZSq.s 			page 22


 190:oledlib/oled_draw.c ****         SetPointBuffer(usX_Center - sCurrentY, usY_Center - sCurrentX, GetDrawColor()); //4
 191:oledlib/oled_draw.c ****         SetPointBuffer(usX_Center - sCurrentX, usY_Center - sCurrentY, GetDrawColor()); //5
 192:oledlib/oled_draw.c ****         SetPointBuffer(usX_Center + sCurrentX, usY_Center - sCurrentY, GetDrawColor()); //6
 193:oledlib/oled_draw.c ****         SetPointBuffer(usX_Center + sCurrentY, usY_Center - sCurrentX, GetDrawColor()); //7
 194:oledlib/oled_draw.c ****         SetPointBuffer(usX_Center + sCurrentY, usY_Center + sCurrentX, GetDrawColor()); //0
 195:oledlib/oled_draw.c ****         sCurrentX++;
 196:oledlib/oled_draw.c ****         if (sError < 0)
 197:oledlib/oled_draw.c ****             sError += 4 * sCurrentX + 6;
 1000              		.loc 1 197 13 is_stmt 1 view .LVU232
 1001              		.loc 1 197 25 is_stmt 0 view .LVU233
 1002 001c 9B00     		lsls	r3, r3, #2
 1003 001e 9BB2     		uxth	r3, r3
 1004              		.loc 1 197 20 view .LVU234
 1005 0020 5344     		add	r3, r3, r10
 1006 0022 0633     		adds	r3, r3, #6
 1007 0024 0FFA83FA 		sxth	r10, r3
 1008              	.LVL96:
 1009              	.L63:
 185:oledlib/oled_draw.c ****     {
 1010              		.loc 1 185 11 is_stmt 1 view .LVU235
 1011 0028 AC42     		cmp	r4, r5
 1012 002a 56DC     		bgt	.L68
 187:oledlib/oled_draw.c ****         SetPointBuffer(usX_Center - sCurrentX, usY_Center + sCurrentY, GetDrawColor()); //2
 1013              		.loc 1 187 9 view .LVU236
 1014 002c 04EB0709 		add	r9, r4, r7
 1015 0030 05EB0608 		add	r8, r5, r6
 187:oledlib/oled_draw.c ****         SetPointBuffer(usX_Center - sCurrentX, usY_Center + sCurrentY, GetDrawColor()); //2
 1016              		.loc 1 187 72 is_stmt 0 view .LVU237
 1017 0034 FFF7FEFF 		bl	GetDrawColor
 1018              	.LVL97:
 1019 0038 0246     		mov	r2, r0
 187:oledlib/oled_draw.c ****         SetPointBuffer(usX_Center - sCurrentX, usY_Center + sCurrentY, GetDrawColor()); //2
 1020              		.loc 1 187 9 view .LVU238
 1021 003a 4146     		mov	r1, r8
 1022 003c 4846     		mov	r0, r9
 1023 003e FFF7FEFF 		bl	SetPointBuffer
 1024              	.LVL98:
 188:oledlib/oled_draw.c ****         SetPointBuffer(usX_Center - sCurrentY, usY_Center + sCurrentX, GetDrawColor()); //3
 1025              		.loc 1 188 9 is_stmt 1 view .LVU239
 1026 0042 3B1B     		subs	r3, r7, r4
 1027 0044 0093     		str	r3, [sp]
 188:oledlib/oled_draw.c ****         SetPointBuffer(usX_Center - sCurrentY, usY_Center + sCurrentX, GetDrawColor()); //3
 1028              		.loc 1 188 72 is_stmt 0 view .LVU240
 1029 0046 FFF7FEFF 		bl	GetDrawColor
 1030              	.LVL99:
 1031 004a 0246     		mov	r2, r0
 188:oledlib/oled_draw.c ****         SetPointBuffer(usX_Center - sCurrentY, usY_Center + sCurrentX, GetDrawColor()); //3
 1032              		.loc 1 188 9 view .LVU241
 1033 004c 4146     		mov	r1, r8
 1034 004e 0098     		ldr	r0, [sp]
 1035 0050 FFF7FEFF 		bl	SetPointBuffer
 1036              	.LVL100:
 189:oledlib/oled_draw.c ****         SetPointBuffer(usX_Center - sCurrentY, usY_Center - sCurrentX, GetDrawColor()); //4
 1037              		.loc 1 189 9 is_stmt 1 view .LVU242
 1038 0054 A7EB050B 		sub	fp, r7, r5
 1039 0058 A219     		adds	r2, r4, r6
 1040 005a 0192     		str	r2, [sp, #4]
ARM GAS  C:\Users\GKQ\AppData\Local\Temp\ccFEMZSq.s 			page 23


 189:oledlib/oled_draw.c ****         SetPointBuffer(usX_Center - sCurrentY, usY_Center - sCurrentX, GetDrawColor()); //4
 1041              		.loc 1 189 72 is_stmt 0 view .LVU243
 1042 005c FFF7FEFF 		bl	GetDrawColor
 1043              	.LVL101:
 1044 0060 0246     		mov	r2, r0
 189:oledlib/oled_draw.c ****         SetPointBuffer(usX_Center - sCurrentY, usY_Center - sCurrentX, GetDrawColor()); //4
 1045              		.loc 1 189 9 view .LVU244
 1046 0062 0199     		ldr	r1, [sp, #4]
 1047 0064 5846     		mov	r0, fp
 1048 0066 FFF7FEFF 		bl	SetPointBuffer
 1049              	.LVL102:
 190:oledlib/oled_draw.c ****         SetPointBuffer(usX_Center - sCurrentX, usY_Center - sCurrentY, GetDrawColor()); //5
 1050              		.loc 1 190 9 is_stmt 1 view .LVU245
 1051 006a A6EB0408 		sub	r8, r6, r4
 190:oledlib/oled_draw.c ****         SetPointBuffer(usX_Center - sCurrentX, usY_Center - sCurrentY, GetDrawColor()); //5
 1052              		.loc 1 190 72 is_stmt 0 view .LVU246
 1053 006e FFF7FEFF 		bl	GetDrawColor
 1054              	.LVL103:
 1055 0072 0246     		mov	r2, r0
 190:oledlib/oled_draw.c ****         SetPointBuffer(usX_Center - sCurrentX, usY_Center - sCurrentY, GetDrawColor()); //5
 1056              		.loc 1 190 9 view .LVU247
 1057 0074 4146     		mov	r1, r8
 1058 0076 5846     		mov	r0, fp
 1059 0078 FFF7FEFF 		bl	SetPointBuffer
 1060              	.LVL104:
 191:oledlib/oled_draw.c ****         SetPointBuffer(usX_Center + sCurrentX, usY_Center - sCurrentY, GetDrawColor()); //6
 1061              		.loc 1 191 9 is_stmt 1 view .LVU248
 1062 007c A6EB050B 		sub	fp, r6, r5
 191:oledlib/oled_draw.c ****         SetPointBuffer(usX_Center + sCurrentX, usY_Center - sCurrentY, GetDrawColor()); //6
 1063              		.loc 1 191 72 is_stmt 0 view .LVU249
 1064 0080 FFF7FEFF 		bl	GetDrawColor
 1065              	.LVL105:
 1066 0084 0246     		mov	r2, r0
 191:oledlib/oled_draw.c ****         SetPointBuffer(usX_Center + sCurrentX, usY_Center - sCurrentY, GetDrawColor()); //6
 1067              		.loc 1 191 9 view .LVU250
 1068 0086 5946     		mov	r1, fp
 1069 0088 0098     		ldr	r0, [sp]
 1070 008a FFF7FEFF 		bl	SetPointBuffer
 1071              	.LVL106:
 192:oledlib/oled_draw.c ****         SetPointBuffer(usX_Center + sCurrentY, usY_Center - sCurrentX, GetDrawColor()); //7
 1072              		.loc 1 192 9 is_stmt 1 view .LVU251
 192:oledlib/oled_draw.c ****         SetPointBuffer(usX_Center + sCurrentY, usY_Center - sCurrentX, GetDrawColor()); //7
 1073              		.loc 1 192 72 is_stmt 0 view .LVU252
 1074 008e FFF7FEFF 		bl	GetDrawColor
 1075              	.LVL107:
 1076 0092 0246     		mov	r2, r0
 192:oledlib/oled_draw.c ****         SetPointBuffer(usX_Center + sCurrentY, usY_Center - sCurrentX, GetDrawColor()); //7
 1077              		.loc 1 192 9 view .LVU253
 1078 0094 5946     		mov	r1, fp
 1079 0096 4846     		mov	r0, r9
 1080 0098 FFF7FEFF 		bl	SetPointBuffer
 1081              	.LVL108:
 193:oledlib/oled_draw.c ****         SetPointBuffer(usX_Center + sCurrentY, usY_Center + sCurrentX, GetDrawColor()); //0
 1082              		.loc 1 193 9 is_stmt 1 view .LVU254
 1083 009c 05EB0709 		add	r9, r5, r7
 193:oledlib/oled_draw.c ****         SetPointBuffer(usX_Center + sCurrentY, usY_Center + sCurrentX, GetDrawColor()); //0
 1084              		.loc 1 193 72 is_stmt 0 view .LVU255
ARM GAS  C:\Users\GKQ\AppData\Local\Temp\ccFEMZSq.s 			page 24


 1085 00a0 FFF7FEFF 		bl	GetDrawColor
 1086              	.LVL109:
 1087 00a4 0246     		mov	r2, r0
 193:oledlib/oled_draw.c ****         SetPointBuffer(usX_Center + sCurrentY, usY_Center + sCurrentX, GetDrawColor()); //0
 1088              		.loc 1 193 9 view .LVU256
 1089 00a6 4146     		mov	r1, r8
 1090 00a8 4846     		mov	r0, r9
 1091 00aa FFF7FEFF 		bl	SetPointBuffer
 1092              	.LVL110:
 194:oledlib/oled_draw.c ****         sCurrentX++;
 1093              		.loc 1 194 9 is_stmt 1 view .LVU257
 194:oledlib/oled_draw.c ****         sCurrentX++;
 1094              		.loc 1 194 72 is_stmt 0 view .LVU258
 1095 00ae FFF7FEFF 		bl	GetDrawColor
 1096              	.LVL111:
 1097 00b2 0246     		mov	r2, r0
 194:oledlib/oled_draw.c ****         sCurrentX++;
 1098              		.loc 1 194 9 view .LVU259
 1099 00b4 0199     		ldr	r1, [sp, #4]
 1100 00b6 4846     		mov	r0, r9
 1101 00b8 FFF7FEFF 		bl	SetPointBuffer
 1102              	.LVL112:
 195:oledlib/oled_draw.c ****         if (sError < 0)
 1103              		.loc 1 195 9 is_stmt 1 view .LVU260
 195:oledlib/oled_draw.c ****         if (sError < 0)
 1104              		.loc 1 195 18 is_stmt 0 view .LVU261
 1105 00bc 0134     		adds	r4, r4, #1
 1106              	.LVL113:
 195:oledlib/oled_draw.c ****         if (sError < 0)
 1107              		.loc 1 195 18 view .LVU262
 1108 00be A3B2     		uxth	r3, r4
 1109 00c0 24B2     		sxth	r4, r4
 1110              	.LVL114:
 196:oledlib/oled_draw.c ****             sError += 4 * sCurrentX + 6;
 1111              		.loc 1 196 9 is_stmt 1 view .LVU263
 196:oledlib/oled_draw.c ****             sError += 4 * sCurrentX + 6;
 1112              		.loc 1 196 12 is_stmt 0 view .LVU264
 1113 00c2 BAF1000F 		cmp	r10, #0
 1114 00c6 A9DB     		blt	.L69
 198:oledlib/oled_draw.c ****         else
 199:oledlib/oled_draw.c ****         {
 200:oledlib/oled_draw.c ****             sError += 10 + 4 * (sCurrentX - sCurrentY);
 1115              		.loc 1 200 13 is_stmt 1 view .LVU265
 1116              		.loc 1 200 43 is_stmt 0 view .LVU266
 1117 00c8 631B     		subs	r3, r4, r5
 1118              		.loc 1 200 20 view .LVU267
 1119 00ca 0AEB8303 		add	r3, r10, r3, lsl #2
 1120 00ce 0A33     		adds	r3, r3, #10
 1121 00d0 0FFA83FA 		sxth	r10, r3
 1122              	.LVL115:
 201:oledlib/oled_draw.c ****             sCurrentY--;
 1123              		.loc 1 201 13 is_stmt 1 view .LVU268
 1124              		.loc 1 201 22 is_stmt 0 view .LVU269
 1125 00d4 013D     		subs	r5, r5, #1
 1126              	.LVL116:
 1127              		.loc 1 201 22 view .LVU270
 1128 00d6 2DB2     		sxth	r5, r5
ARM GAS  C:\Users\GKQ\AppData\Local\Temp\ccFEMZSq.s 			page 25


 1129              	.LVL117:
 1130              		.loc 1 201 22 view .LVU271
 1131 00d8 A6E7     		b	.L63
 1132              	.L68:
 202:oledlib/oled_draw.c ****         }
 203:oledlib/oled_draw.c ****     }
 204:oledlib/oled_draw.c **** }
 1133              		.loc 1 204 1 view .LVU272
 1134 00da 03B0     		add	sp, sp, #12
 1135              	.LCFI15:
 1136              		.cfi_def_cfa_offset 36
 1137              		@ sp needed
 1138 00dc BDE8F08F 		pop	{r4, r5, r6, r7, r8, r9, r10, fp, pc}
 1139              		.loc 1 204 1 view .LVU273
 1140              		.cfi_endproc
 1141              	.LFE15:
 1143              		.section	.text.DrawCircleHelper,"ax",%progbits
 1144              		.align	1
 1145              		.global	DrawCircleHelper
 1146              		.syntax unified
 1147              		.thumb
 1148              		.thumb_func
 1149              		.fpu softvfp
 1151              	DrawCircleHelper:
 1152              	.LVL118:
 1153              	.LFB17:
 205:oledlib/oled_draw.c **** void DrawFillCircle(int usX_Center, int usY_Center, int r)
 206:oledlib/oled_draw.c **** {
 207:oledlib/oled_draw.c ****     DrawFastVLine(usX_Center, usY_Center - r, 2 * r + 1);
 208:oledlib/oled_draw.c ****     DrawFillCircleHelper(usX_Center, usY_Center, r, 3, 0);
 209:oledlib/oled_draw.c **** }
 210:oledlib/oled_draw.c **** 
 211:oledlib/oled_draw.c **** #if 0
 212:oledlib/oled_draw.c **** void DrawFillCircle( int usX_Center, int usY_Center, int usRadius)
 213:oledlib/oled_draw.c **** {
 214:oledlib/oled_draw.c **** 	short sCurrentX, sCurrentY;
 215:oledlib/oled_draw.c **** 	short sError;
 216:oledlib/oled_draw.c **** 	DrawCircle(usX_Center,usY_Center,usRadius);
 217:oledlib/oled_draw.c **** 	usRadius=usRadius-1;
 218:oledlib/oled_draw.c **** 	sCurrentX = 0; sCurrentY = usRadius;	  
 219:oledlib/oled_draw.c **** 	sError = 3 - ( usRadius << 1 );     //判断下个点位置的标志
 220:oledlib/oled_draw.c **** 	while ( sCurrentX <= sCurrentY )
 221:oledlib/oled_draw.c **** 	{
 222:oledlib/oled_draw.c **** 			short sCountY;   
 223:oledlib/oled_draw.c **** 			for ( sCountY = sCurrentX; sCountY <= sCurrentY; sCountY ++ ) 
 224:oledlib/oled_draw.c **** 			{
 225:oledlib/oled_draw.c **** 				SetPointBuffer ( usX_Center + sCurrentX, usY_Center + sCountY ,GetFillColor());             //1
 226:oledlib/oled_draw.c **** 				SetPointBuffer ( usX_Center - sCurrentX, usY_Center + sCountY  ,GetFillColor());             //
 227:oledlib/oled_draw.c **** 				SetPointBuffer ( usX_Center - sCountY,   usY_Center + sCurrentX ,GetFillColor());             /
 228:oledlib/oled_draw.c **** 				SetPointBuffer ( usX_Center - sCountY,   usY_Center - sCurrentX ,GetFillColor());             /
 229:oledlib/oled_draw.c **** 				SetPointBuffer ( usX_Center - sCurrentX, usY_Center - sCountY ,GetFillColor());             //5
 230:oledlib/oled_draw.c **** 				SetPointBuffer ( usX_Center + sCurrentX, usY_Center - sCountY ,GetFillColor());             //6
 231:oledlib/oled_draw.c **** 				SetPointBuffer ( usX_Center + sCountY,   usY_Center - sCurrentX ,GetFillColor());             /
 232:oledlib/oled_draw.c **** 				SetPointBuffer ( usX_Center + sCountY,   usY_Center + sCurrentX ,GetFillColor());             /
 233:oledlib/oled_draw.c **** 			}
 234:oledlib/oled_draw.c **** 			sCurrentX ++;		
 235:oledlib/oled_draw.c **** 			if ( sError < 0 ) 
ARM GAS  C:\Users\GKQ\AppData\Local\Temp\ccFEMZSq.s 			page 26


 236:oledlib/oled_draw.c **** 				sError += 4 * sCurrentX + 6;	  
 237:oledlib/oled_draw.c **** 			else
 238:oledlib/oled_draw.c **** 			{
 239:oledlib/oled_draw.c **** 				sError += 10 + 4 * ( sCurrentX - sCurrentY );   
 240:oledlib/oled_draw.c **** 				sCurrentY --;
 241:oledlib/oled_draw.c **** 			} 		
 242:oledlib/oled_draw.c **** 	}
 243:oledlib/oled_draw.c **** }
 244:oledlib/oled_draw.c **** #endif
 245:oledlib/oled_draw.c **** 
 246:oledlib/oled_draw.c **** void DrawCircleHelper(int x0, int y0, unsigned char r, unsigned char cornername)
 247:oledlib/oled_draw.c **** {
 1154              		.loc 1 247 1 is_stmt 1 view -0
 1155              		.cfi_startproc
 1156              		@ args = 0, pretend = 0, frame = 8
 1157              		@ frame_needed = 0, uses_anonymous_args = 0
 1158              		.loc 1 247 1 is_stmt 0 view .LVU275
 1159 0000 2DE9F04F 		push	{r4, r5, r6, r7, r8, r9, r10, fp, lr}
 1160              	.LCFI16:
 1161              		.cfi_def_cfa_offset 36
 1162              		.cfi_offset 4, -36
 1163              		.cfi_offset 5, -32
 1164              		.cfi_offset 6, -28
 1165              		.cfi_offset 7, -24
 1166              		.cfi_offset 8, -20
 1167              		.cfi_offset 9, -16
 1168              		.cfi_offset 10, -12
 1169              		.cfi_offset 11, -8
 1170              		.cfi_offset 14, -4
 1171 0004 83B0     		sub	sp, sp, #12
 1172              	.LCFI17:
 1173              		.cfi_def_cfa_offset 48
 1174 0006 8346     		mov	fp, r0
 1175 0008 8A46     		mov	r10, r1
 1176 000a 1E46     		mov	r6, r3
 248:oledlib/oled_draw.c ****     int f = 1 - r;
 1177              		.loc 1 248 5 is_stmt 1 view .LVU276
 1178              		.loc 1 248 15 is_stmt 0 view .LVU277
 1179 000c 1546     		mov	r5, r2
 1180              		.loc 1 248 9 view .LVU278
 1181 000e C2F10107 		rsb	r7, r2, #1
 1182              	.LVL119:
 249:oledlib/oled_draw.c ****     int ddF_x = 1;
 1183              		.loc 1 249 5 is_stmt 1 view .LVU279
 250:oledlib/oled_draw.c ****     int ddF_y = -2 * r;
 1184              		.loc 1 250 5 view .LVU280
 1185              		.loc 1 250 9 is_stmt 0 view .LVU281
 1186 0012 C2EBC272 		rsb	r2, r2, r2, lsl #31
 1187              	.LVL120:
 1188              		.loc 1 250 9 view .LVU282
 1189 0016 5300     		lsls	r3, r2, #1
 1190              	.LVL121:
 1191              		.loc 1 250 9 view .LVU283
 1192 0018 0193     		str	r3, [sp, #4]
 1193              	.LVL122:
 251:oledlib/oled_draw.c ****     int x = 0;
 1194              		.loc 1 251 5 is_stmt 1 view .LVU284
ARM GAS  C:\Users\GKQ\AppData\Local\Temp\ccFEMZSq.s 			page 27


 252:oledlib/oled_draw.c ****     int y = r;
 1195              		.loc 1 252 5 view .LVU285
 253:oledlib/oled_draw.c ****     Type_color color = GetDrawColor();
 1196              		.loc 1 253 5 view .LVU286
 1197              		.loc 1 253 24 is_stmt 0 view .LVU287
 1198 001a FFF7FEFF 		bl	GetDrawColor
 1199              	.LVL123:
 1200              		.loc 1 253 24 view .LVU288
 1201 001e 8146     		mov	r9, r0
 1202              	.LVL124:
 254:oledlib/oled_draw.c ****     while (x < y)
 1203              		.loc 1 254 5 is_stmt 1 view .LVU289
 251:oledlib/oled_draw.c ****     int y = r;
 1204              		.loc 1 251 9 is_stmt 0 view .LVU290
 1205 0020 0024     		movs	r4, #0
 249:oledlib/oled_draw.c ****     int ddF_y = -2 * r;
 1206              		.loc 1 249 9 view .LVU291
 1207 0022 4FF00108 		mov	r8, #1
 1208              		.loc 1 254 11 view .LVU292
 1209 0026 0FE0     		b	.L71
 1210              	.LVL125:
 1211              	.L72:
 255:oledlib/oled_draw.c ****     {
 256:oledlib/oled_draw.c ****         if (f >= 0)
 257:oledlib/oled_draw.c ****         {
 258:oledlib/oled_draw.c ****             y--;
 259:oledlib/oled_draw.c ****             ddF_y += 2;
 260:oledlib/oled_draw.c ****             f += ddF_y;
 261:oledlib/oled_draw.c ****         }
 262:oledlib/oled_draw.c **** 
 263:oledlib/oled_draw.c ****         x++;
 1212              		.loc 1 263 9 is_stmt 1 view .LVU293
 1213              		.loc 1 263 10 is_stmt 0 view .LVU294
 1214 0028 0134     		adds	r4, r4, #1
 1215              	.LVL126:
 264:oledlib/oled_draw.c ****         ddF_x += 2;
 1216              		.loc 1 264 9 is_stmt 1 view .LVU295
 1217              		.loc 1 264 15 is_stmt 0 view .LVU296
 1218 002a 08F10208 		add	r8, r8, #2
 1219              	.LVL127:
 265:oledlib/oled_draw.c ****         f += ddF_x;
 1220              		.loc 1 265 9 is_stmt 1 view .LVU297
 1221              		.loc 1 265 11 is_stmt 0 view .LVU298
 1222 002e 4744     		add	r7, r7, r8
 1223              	.LVL128:
 266:oledlib/oled_draw.c **** 
 267:oledlib/oled_draw.c ****         if (cornername & 0x4)
 1224              		.loc 1 267 9 is_stmt 1 view .LVU299
 1225              		.loc 1 267 12 is_stmt 0 view .LVU300
 1226 0030 16F0040F 		tst	r6, #4
 1227 0034 12D1     		bne	.L79
 1228              	.L73:
 268:oledlib/oled_draw.c ****         {
 269:oledlib/oled_draw.c ****             SetPointBuffer(x0 + x, y0 + y, color);
 270:oledlib/oled_draw.c ****             SetPointBuffer(x0 + y, y0 + x, color);
 271:oledlib/oled_draw.c ****         }
 272:oledlib/oled_draw.c ****         if (cornername & 0x2)
ARM GAS  C:\Users\GKQ\AppData\Local\Temp\ccFEMZSq.s 			page 28


 1229              		.loc 1 272 9 is_stmt 1 view .LVU301
 1230              		.loc 1 272 12 is_stmt 0 view .LVU302
 1231 0036 16F0020F 		tst	r6, #2
 1232 003a 1ED1     		bne	.L80
 1233              	.L74:
 273:oledlib/oled_draw.c ****         {
 274:oledlib/oled_draw.c ****             SetPointBuffer(x0 + x, y0 - y, color);
 275:oledlib/oled_draw.c ****             SetPointBuffer(x0 + y, y0 - x, color);
 276:oledlib/oled_draw.c ****         }
 277:oledlib/oled_draw.c ****         if (cornername & 0x8)
 1234              		.loc 1 277 9 is_stmt 1 view .LVU303
 1235              		.loc 1 277 12 is_stmt 0 view .LVU304
 1236 003c 16F0080F 		tst	r6, #8
 1237 0040 2AD1     		bne	.L81
 1238              	.L75:
 278:oledlib/oled_draw.c ****         {
 279:oledlib/oled_draw.c ****             SetPointBuffer(x0 - y, y0 + x, color);
 280:oledlib/oled_draw.c ****             SetPointBuffer(x0 - x, y0 + y, color);
 281:oledlib/oled_draw.c ****         }
 282:oledlib/oled_draw.c ****         if (cornername & 0x1)
 1239              		.loc 1 282 9 is_stmt 1 view .LVU305
 1240              		.loc 1 282 12 is_stmt 0 view .LVU306
 1241 0042 16F0010F 		tst	r6, #1
 1242 0046 36D1     		bne	.L82
 1243              	.LVL129:
 1244              	.L71:
 254:oledlib/oled_draw.c ****     {
 1245              		.loc 1 254 11 is_stmt 1 view .LVU307
 1246 0048 AC42     		cmp	r4, r5
 1247 004a 43DA     		bge	.L83
 256:oledlib/oled_draw.c ****         {
 1248              		.loc 1 256 9 view .LVU308
 256:oledlib/oled_draw.c ****         {
 1249              		.loc 1 256 12 is_stmt 0 view .LVU309
 1250 004c 002F     		cmp	r7, #0
 1251 004e EBDB     		blt	.L72
 258:oledlib/oled_draw.c ****             ddF_y += 2;
 1252              		.loc 1 258 13 is_stmt 1 view .LVU310
 258:oledlib/oled_draw.c ****             ddF_y += 2;
 1253              		.loc 1 258 14 is_stmt 0 view .LVU311
 1254 0050 013D     		subs	r5, r5, #1
 1255              	.LVL130:
 259:oledlib/oled_draw.c ****             f += ddF_y;
 1256              		.loc 1 259 13 is_stmt 1 view .LVU312
 259:oledlib/oled_draw.c ****             f += ddF_y;
 1257              		.loc 1 259 19 is_stmt 0 view .LVU313
 1258 0052 019B     		ldr	r3, [sp, #4]
 1259 0054 0233     		adds	r3, r3, #2
 1260 0056 0193     		str	r3, [sp, #4]
 1261              	.LVL131:
 260:oledlib/oled_draw.c ****         }
 1262              		.loc 1 260 13 is_stmt 1 view .LVU314
 260:oledlib/oled_draw.c ****         }
 1263              		.loc 1 260 15 is_stmt 0 view .LVU315
 1264 0058 1F44     		add	r7, r7, r3
 1265              	.LVL132:
 260:oledlib/oled_draw.c ****         }
ARM GAS  C:\Users\GKQ\AppData\Local\Temp\ccFEMZSq.s 			page 29


 1266              		.loc 1 260 15 view .LVU316
 1267 005a E5E7     		b	.L72
 1268              	.LVL133:
 1269              	.L79:
 269:oledlib/oled_draw.c ****             SetPointBuffer(x0 + y, y0 + x, color);
 1270              		.loc 1 269 13 is_stmt 1 view .LVU317
 1271 005c 4A46     		mov	r2, r9
 1272 005e 05EB0A01 		add	r1, r5, r10
 1273 0062 04EB0B00 		add	r0, r4, fp
 1274 0066 FFF7FEFF 		bl	SetPointBuffer
 1275              	.LVL134:
 270:oledlib/oled_draw.c ****         }
 1276              		.loc 1 270 13 view .LVU318
 1277 006a 4A46     		mov	r2, r9
 1278 006c 04EB0A01 		add	r1, r4, r10
 1279 0070 05EB0B00 		add	r0, r5, fp
 1280 0074 FFF7FEFF 		bl	SetPointBuffer
 1281              	.LVL135:
 1282 0078 DDE7     		b	.L73
 1283              	.L80:
 274:oledlib/oled_draw.c ****             SetPointBuffer(x0 + y, y0 - x, color);
 1284              		.loc 1 274 13 view .LVU319
 1285 007a 4A46     		mov	r2, r9
 1286 007c AAEB0501 		sub	r1, r10, r5
 1287 0080 04EB0B00 		add	r0, r4, fp
 1288 0084 FFF7FEFF 		bl	SetPointBuffer
 1289              	.LVL136:
 275:oledlib/oled_draw.c ****         }
 1290              		.loc 1 275 13 view .LVU320
 1291 0088 4A46     		mov	r2, r9
 1292 008a AAEB0401 		sub	r1, r10, r4
 1293 008e 05EB0B00 		add	r0, r5, fp
 1294 0092 FFF7FEFF 		bl	SetPointBuffer
 1295              	.LVL137:
 1296 0096 D1E7     		b	.L74
 1297              	.L81:
 279:oledlib/oled_draw.c ****             SetPointBuffer(x0 - x, y0 + y, color);
 1298              		.loc 1 279 13 view .LVU321
 1299 0098 4A46     		mov	r2, r9
 1300 009a 04EB0A01 		add	r1, r4, r10
 1301 009e ABEB0500 		sub	r0, fp, r5
 1302 00a2 FFF7FEFF 		bl	SetPointBuffer
 1303              	.LVL138:
 280:oledlib/oled_draw.c ****         }
 1304              		.loc 1 280 13 view .LVU322
 1305 00a6 4A46     		mov	r2, r9
 1306 00a8 05EB0A01 		add	r1, r5, r10
 1307 00ac ABEB0400 		sub	r0, fp, r4
 1308 00b0 FFF7FEFF 		bl	SetPointBuffer
 1309              	.LVL139:
 1310 00b4 C5E7     		b	.L75
 1311              	.L82:
 283:oledlib/oled_draw.c ****         {
 284:oledlib/oled_draw.c ****             SetPointBuffer(x0 - y, y0 - x, color);
 1312              		.loc 1 284 13 view .LVU323
 1313 00b6 4A46     		mov	r2, r9
 1314 00b8 AAEB0401 		sub	r1, r10, r4
ARM GAS  C:\Users\GKQ\AppData\Local\Temp\ccFEMZSq.s 			page 30


 1315 00bc ABEB0500 		sub	r0, fp, r5
 1316 00c0 FFF7FEFF 		bl	SetPointBuffer
 1317              	.LVL140:
 285:oledlib/oled_draw.c ****             SetPointBuffer(x0 - x, y0 - y, color);
 1318              		.loc 1 285 13 view .LVU324
 1319 00c4 4A46     		mov	r2, r9
 1320 00c6 AAEB0501 		sub	r1, r10, r5
 1321 00ca ABEB0400 		sub	r0, fp, r4
 1322 00ce FFF7FEFF 		bl	SetPointBuffer
 1323              	.LVL141:
 1324 00d2 B9E7     		b	.L71
 1325              	.L83:
 286:oledlib/oled_draw.c ****         }
 287:oledlib/oled_draw.c ****     }
 288:oledlib/oled_draw.c **** }
 1326              		.loc 1 288 1 is_stmt 0 view .LVU325
 1327 00d4 03B0     		add	sp, sp, #12
 1328              	.LCFI18:
 1329              		.cfi_def_cfa_offset 36
 1330              		@ sp needed
 1331 00d6 BDE8F08F 		pop	{r4, r5, r6, r7, r8, r9, r10, fp, pc}
 1332              		.loc 1 288 1 view .LVU326
 1333              		.cfi_endproc
 1334              	.LFE17:
 1336              		.section	.text.DrawFillCircleHelper,"ax",%progbits
 1337              		.align	1
 1338              		.global	DrawFillCircleHelper
 1339              		.syntax unified
 1340              		.thumb
 1341              		.thumb_func
 1342              		.fpu softvfp
 1344              	DrawFillCircleHelper:
 1345              	.LVL142:
 1346              	.LFB18:
 289:oledlib/oled_draw.c **** 
 290:oledlib/oled_draw.c **** void DrawFillCircleHelper(int x0, int y0, unsigned char r, unsigned char cornername, int delta)
 291:oledlib/oled_draw.c **** {
 1347              		.loc 1 291 1 is_stmt 1 view -0
 1348              		.cfi_startproc
 1349              		@ args = 4, pretend = 0, frame = 8
 1350              		@ frame_needed = 0, uses_anonymous_args = 0
 1351              		.loc 1 291 1 is_stmt 0 view .LVU328
 1352 0000 2DE9F04F 		push	{r4, r5, r6, r7, r8, r9, r10, fp, lr}
 1353              	.LCFI19:
 1354              		.cfi_def_cfa_offset 36
 1355              		.cfi_offset 4, -36
 1356              		.cfi_offset 5, -32
 1357              		.cfi_offset 6, -28
 1358              		.cfi_offset 7, -24
 1359              		.cfi_offset 8, -20
 1360              		.cfi_offset 9, -16
 1361              		.cfi_offset 10, -12
 1362              		.cfi_offset 11, -8
 1363              		.cfi_offset 14, -4
 1364 0004 83B0     		sub	sp, sp, #12
 1365              	.LCFI20:
 1366              		.cfi_def_cfa_offset 48
ARM GAS  C:\Users\GKQ\AppData\Local\Temp\ccFEMZSq.s 			page 31


 1367 0006 8346     		mov	fp, r0
 1368 0008 8A46     		mov	r10, r1
 1369 000a 9946     		mov	r9, r3
 292:oledlib/oled_draw.c ****     // used to do circles and roundrects!
 293:oledlib/oled_draw.c ****     int f = 1 - r;
 1370              		.loc 1 293 5 is_stmt 1 view .LVU329
 1371              		.loc 1 293 15 is_stmt 0 view .LVU330
 1372 000c 1546     		mov	r5, r2
 1373              		.loc 1 293 9 view .LVU331
 1374 000e C2F10106 		rsb	r6, r2, #1
 1375              	.LVL143:
 294:oledlib/oled_draw.c ****     int ddF_x = 1;
 1376              		.loc 1 294 5 is_stmt 1 view .LVU332
 295:oledlib/oled_draw.c ****     int ddF_y = -2 * r;
 1377              		.loc 1 295 5 view .LVU333
 1378              		.loc 1 295 9 is_stmt 0 view .LVU334
 1379 0012 C2EBC272 		rsb	r2, r2, r2, lsl #31
 1380              	.LVL144:
 1381              		.loc 1 295 9 view .LVU335
 1382 0016 4FEA4208 		lsl	r8, r2, #1
 1383              	.LVL145:
 296:oledlib/oled_draw.c ****     int x = 0;
 1384              		.loc 1 296 5 is_stmt 1 view .LVU336
 297:oledlib/oled_draw.c ****     int y = r;
 1385              		.loc 1 297 5 view .LVU337
 298:oledlib/oled_draw.c ****     //Type_color color = GetDrawColor();
 299:oledlib/oled_draw.c ****     while (x < y)
 1386              		.loc 1 299 5 view .LVU338
 296:oledlib/oled_draw.c ****     int y = r;
 1387              		.loc 1 296 9 is_stmt 0 view .LVU339
 1388 001a 0024     		movs	r4, #0
 294:oledlib/oled_draw.c ****     int ddF_y = -2 * r;
 1389              		.loc 1 294 9 view .LVU340
 1390 001c 0127     		movs	r7, #1
 1391              		.loc 1 299 11 view .LVU341
 1392 001e 08E0     		b	.L85
 1393              	.LVL146:
 1394              	.L86:
 300:oledlib/oled_draw.c ****     {
 301:oledlib/oled_draw.c ****         if (f >= 0)
 302:oledlib/oled_draw.c ****         {
 303:oledlib/oled_draw.c ****             y--;
 304:oledlib/oled_draw.c ****             ddF_y += 2;
 305:oledlib/oled_draw.c ****             f += ddF_y;
 306:oledlib/oled_draw.c ****         }
 307:oledlib/oled_draw.c **** 
 308:oledlib/oled_draw.c ****         x++;
 1395              		.loc 1 308 9 is_stmt 1 view .LVU342
 1396              		.loc 1 308 10 is_stmt 0 view .LVU343
 1397 0020 0134     		adds	r4, r4, #1
 1398              	.LVL147:
 309:oledlib/oled_draw.c ****         ddF_x += 2;
 1399              		.loc 1 309 9 is_stmt 1 view .LVU344
 1400              		.loc 1 309 15 is_stmt 0 view .LVU345
 1401 0022 0237     		adds	r7, r7, #2
 1402              	.LVL148:
 310:oledlib/oled_draw.c ****         f += ddF_x;
ARM GAS  C:\Users\GKQ\AppData\Local\Temp\ccFEMZSq.s 			page 32


 1403              		.loc 1 310 9 is_stmt 1 view .LVU346
 1404              		.loc 1 310 11 is_stmt 0 view .LVU347
 1405 0024 3E44     		add	r6, r6, r7
 1406              	.LVL149:
 311:oledlib/oled_draw.c **** 
 312:oledlib/oled_draw.c ****         if (cornername & 0x1)
 1407              		.loc 1 312 9 is_stmt 1 view .LVU348
 1408              		.loc 1 312 12 is_stmt 0 view .LVU349
 1409 0026 19F0010F 		tst	r9, #1
 1410 002a 0BD1     		bne	.L91
 1411              	.L87:
 313:oledlib/oled_draw.c ****         {
 314:oledlib/oled_draw.c ****             DrawFastVLine(x0 + x, y0 - y, 2 * y + 1 + delta);
 315:oledlib/oled_draw.c ****             DrawFastVLine(x0 + y, y0 - x, 2 * x + 1 + delta);
 316:oledlib/oled_draw.c ****         }
 317:oledlib/oled_draw.c **** 
 318:oledlib/oled_draw.c ****         if (cornername & 0x2)
 1412              		.loc 1 318 9 is_stmt 1 view .LVU350
 1413              		.loc 1 318 12 is_stmt 0 view .LVU351
 1414 002c 19F0020F 		tst	r9, #2
 1415 0030 23D1     		bne	.L92
 1416              	.LVL150:
 1417              	.L85:
 299:oledlib/oled_draw.c ****     {
 1418              		.loc 1 299 11 is_stmt 1 view .LVU352
 1419 0032 AC42     		cmp	r4, r5
 1420 0034 3CDA     		bge	.L93
 301:oledlib/oled_draw.c ****         {
 1421              		.loc 1 301 9 view .LVU353
 301:oledlib/oled_draw.c ****         {
 1422              		.loc 1 301 12 is_stmt 0 view .LVU354
 1423 0036 002E     		cmp	r6, #0
 1424 0038 F2DB     		blt	.L86
 303:oledlib/oled_draw.c ****             ddF_y += 2;
 1425              		.loc 1 303 13 is_stmt 1 view .LVU355
 303:oledlib/oled_draw.c ****             ddF_y += 2;
 1426              		.loc 1 303 14 is_stmt 0 view .LVU356
 1427 003a 013D     		subs	r5, r5, #1
 1428              	.LVL151:
 304:oledlib/oled_draw.c ****             f += ddF_y;
 1429              		.loc 1 304 13 is_stmt 1 view .LVU357
 304:oledlib/oled_draw.c ****             f += ddF_y;
 1430              		.loc 1 304 19 is_stmt 0 view .LVU358
 1431 003c 08F10208 		add	r8, r8, #2
 1432              	.LVL152:
 305:oledlib/oled_draw.c ****         }
 1433              		.loc 1 305 13 is_stmt 1 view .LVU359
 305:oledlib/oled_draw.c ****         }
 1434              		.loc 1 305 15 is_stmt 0 view .LVU360
 1435 0040 4644     		add	r6, r6, r8
 1436              	.LVL153:
 305:oledlib/oled_draw.c ****         }
 1437              		.loc 1 305 15 view .LVU361
 1438 0042 EDE7     		b	.L86
 1439              	.L91:
 314:oledlib/oled_draw.c ****             DrawFastVLine(x0 + y, y0 - x, 2 * x + 1 + delta);
 1440              		.loc 1 314 13 is_stmt 1 view .LVU362
ARM GAS  C:\Users\GKQ\AppData\Local\Temp\ccFEMZSq.s 			page 33


 314:oledlib/oled_draw.c ****             DrawFastVLine(x0 + y, y0 - x, 2 * x + 1 + delta);
 1441              		.loc 1 314 53 is_stmt 0 view .LVU363
 1442 0044 0C9B     		ldr	r3, [sp, #48]
 1443 0046 DBB2     		uxtb	r3, r3
 1444 0048 0193     		str	r3, [sp, #4]
 1445 004a 03EB4502 		add	r2, r3, r5, lsl #1
 1446 004e D2B2     		uxtb	r2, r2
 314:oledlib/oled_draw.c ****             DrawFastVLine(x0 + y, y0 - x, 2 * x + 1 + delta);
 1447              		.loc 1 314 13 view .LVU364
 1448 0050 0132     		adds	r2, r2, #1
 1449 0052 D2B2     		uxtb	r2, r2
 1450 0054 AAEB0501 		sub	r1, r10, r5
 1451 0058 04EB0B00 		add	r0, r4, fp
 1452 005c FFF7FEFF 		bl	DrawFastVLine
 1453              	.LVL154:
 315:oledlib/oled_draw.c ****         }
 1454              		.loc 1 315 13 is_stmt 1 view .LVU365
 315:oledlib/oled_draw.c ****         }
 1455              		.loc 1 315 53 is_stmt 0 view .LVU366
 1456 0060 019A     		ldr	r2, [sp, #4]
 1457 0062 02EB4402 		add	r2, r2, r4, lsl #1
 1458 0066 D2B2     		uxtb	r2, r2
 315:oledlib/oled_draw.c ****         }
 1459              		.loc 1 315 13 view .LVU367
 1460 0068 0132     		adds	r2, r2, #1
 1461 006a D2B2     		uxtb	r2, r2
 1462 006c AAEB0401 		sub	r1, r10, r4
 1463 0070 05EB0B00 		add	r0, r5, fp
 1464 0074 FFF7FEFF 		bl	DrawFastVLine
 1465              	.LVL155:
 1466 0078 D8E7     		b	.L87
 1467              	.L92:
 319:oledlib/oled_draw.c ****         {
 320:oledlib/oled_draw.c ****             DrawFastVLine(x0 - x, y0 - y, 2 * y + 1 + delta);
 1468              		.loc 1 320 13 is_stmt 1 view .LVU368
 1469              		.loc 1 320 53 is_stmt 0 view .LVU369
 1470 007a 0C9B     		ldr	r3, [sp, #48]
 1471 007c DBB2     		uxtb	r3, r3
 1472 007e 0193     		str	r3, [sp, #4]
 1473 0080 03EB4502 		add	r2, r3, r5, lsl #1
 1474 0084 D2B2     		uxtb	r2, r2
 1475              		.loc 1 320 13 view .LVU370
 1476 0086 0132     		adds	r2, r2, #1
 1477 0088 D2B2     		uxtb	r2, r2
 1478 008a AAEB0501 		sub	r1, r10, r5
 1479 008e ABEB0400 		sub	r0, fp, r4
 1480 0092 FFF7FEFF 		bl	DrawFastVLine
 1481              	.LVL156:
 321:oledlib/oled_draw.c ****             DrawFastVLine(x0 - y, y0 - x, 2 * x + 1 + delta);
 1482              		.loc 1 321 13 is_stmt 1 view .LVU371
 1483              		.loc 1 321 53 is_stmt 0 view .LVU372
 1484 0096 019A     		ldr	r2, [sp, #4]
 1485 0098 02EB4402 		add	r2, r2, r4, lsl #1
 1486 009c D2B2     		uxtb	r2, r2
 1487              		.loc 1 321 13 view .LVU373
 1488 009e 0132     		adds	r2, r2, #1
 1489 00a0 D2B2     		uxtb	r2, r2
ARM GAS  C:\Users\GKQ\AppData\Local\Temp\ccFEMZSq.s 			page 34


 1490 00a2 AAEB0401 		sub	r1, r10, r4
 1491 00a6 ABEB0500 		sub	r0, fp, r5
 1492 00aa FFF7FEFF 		bl	DrawFastVLine
 1493              	.LVL157:
 1494 00ae C0E7     		b	.L85
 1495              	.L93:
 322:oledlib/oled_draw.c ****         }
 323:oledlib/oled_draw.c ****     }
 324:oledlib/oled_draw.c **** }
 1496              		.loc 1 324 1 view .LVU374
 1497 00b0 03B0     		add	sp, sp, #12
 1498              	.LCFI21:
 1499              		.cfi_def_cfa_offset 36
 1500              		@ sp needed
 1501 00b2 BDE8F08F 		pop	{r4, r5, r6, r7, r8, r9, r10, fp, pc}
 1502              		.loc 1 324 1 view .LVU375
 1503              		.cfi_endproc
 1504              	.LFE18:
 1506              		.section	.text.DrawFillCircle,"ax",%progbits
 1507              		.align	1
 1508              		.global	DrawFillCircle
 1509              		.syntax unified
 1510              		.thumb
 1511              		.thumb_func
 1512              		.fpu softvfp
 1514              	DrawFillCircle:
 1515              	.LVL158:
 1516              	.LFB16:
 206:oledlib/oled_draw.c ****     DrawFastVLine(usX_Center, usY_Center - r, 2 * r + 1);
 1517              		.loc 1 206 1 is_stmt 1 view -0
 1518              		.cfi_startproc
 1519              		@ args = 0, pretend = 0, frame = 0
 1520              		@ frame_needed = 0, uses_anonymous_args = 0
 206:oledlib/oled_draw.c ****     DrawFastVLine(usX_Center, usY_Center - r, 2 * r + 1);
 1521              		.loc 1 206 1 is_stmt 0 view .LVU377
 1522 0000 70B5     		push	{r4, r5, r6, lr}
 1523              	.LCFI22:
 1524              		.cfi_def_cfa_offset 16
 1525              		.cfi_offset 4, -16
 1526              		.cfi_offset 5, -12
 1527              		.cfi_offset 6, -8
 1528              		.cfi_offset 14, -4
 1529 0002 82B0     		sub	sp, sp, #8
 1530              	.LCFI23:
 1531              		.cfi_def_cfa_offset 24
 1532 0004 0546     		mov	r5, r0
 1533 0006 0C46     		mov	r4, r1
 1534 0008 1146     		mov	r1, r2
 1535              	.LVL159:
 207:oledlib/oled_draw.c ****     DrawFillCircleHelper(usX_Center, usY_Center, r, 3, 0);
 1536              		.loc 1 207 5 is_stmt 1 view .LVU378
 1537 000a D6B2     		uxtb	r6, r2
 1538 000c 7200     		lsls	r2, r6, #1
 1539              	.LVL160:
 207:oledlib/oled_draw.c ****     DrawFillCircleHelper(usX_Center, usY_Center, r, 3, 0);
 1540              		.loc 1 207 5 is_stmt 0 view .LVU379
 1541 000e 0132     		adds	r2, r2, #1
ARM GAS  C:\Users\GKQ\AppData\Local\Temp\ccFEMZSq.s 			page 35


 1542 0010 D2B2     		uxtb	r2, r2
 1543 0012 611A     		subs	r1, r4, r1
 1544              	.LVL161:
 207:oledlib/oled_draw.c ****     DrawFillCircleHelper(usX_Center, usY_Center, r, 3, 0);
 1545              		.loc 1 207 5 view .LVU380
 1546 0014 FFF7FEFF 		bl	DrawFastVLine
 1547              	.LVL162:
 208:oledlib/oled_draw.c **** }
 1548              		.loc 1 208 5 is_stmt 1 view .LVU381
 1549 0018 0023     		movs	r3, #0
 1550 001a 0093     		str	r3, [sp]
 1551 001c 0323     		movs	r3, #3
 1552 001e 3246     		mov	r2, r6
 1553 0020 2146     		mov	r1, r4
 1554 0022 2846     		mov	r0, r5
 1555 0024 FFF7FEFF 		bl	DrawFillCircleHelper
 1556              	.LVL163:
 209:oledlib/oled_draw.c **** 
 1557              		.loc 1 209 1 is_stmt 0 view .LVU382
 1558 0028 02B0     		add	sp, sp, #8
 1559              	.LCFI24:
 1560              		.cfi_def_cfa_offset 16
 1561              		@ sp needed
 1562 002a 70BD     		pop	{r4, r5, r6, pc}
 209:oledlib/oled_draw.c **** 
 1563              		.loc 1 209 1 view .LVU383
 1564              		.cfi_endproc
 1565              	.LFE16:
 1567              		.global	__aeabi_i2f
 1568              		.global	__aeabi_fadd
 1569              		.global	__aeabi_fcmpgt
 1570              		.section	.text.DrawArc,"ax",%progbits
 1571              		.align	1
 1572              		.global	DrawArc
 1573              		.syntax unified
 1574              		.thumb
 1575              		.thumb_func
 1576              		.fpu softvfp
 1578              	DrawArc:
 1579              	.LVL164:
 1580              	.LFB19:
 325:oledlib/oled_draw.c **** //需改进
 326:oledlib/oled_draw.c **** void DrawArc(int x, int y, unsigned char r, int angle_start, int angle_end)
 327:oledlib/oled_draw.c **** {
 1581              		.loc 1 327 1 is_stmt 1 view -0
 1582              		.cfi_startproc
 1583              		@ args = 4, pretend = 0, frame = 24
 1584              		@ frame_needed = 0, uses_anonymous_args = 0
 1585              		.loc 1 327 1 is_stmt 0 view .LVU385
 1586 0000 2DE9F047 		push	{r4, r5, r6, r7, r8, r9, r10, lr}
 1587              	.LCFI25:
 1588              		.cfi_def_cfa_offset 32
 1589              		.cfi_offset 4, -32
 1590              		.cfi_offset 5, -28
 1591              		.cfi_offset 6, -24
 1592              		.cfi_offset 7, -20
 1593              		.cfi_offset 8, -16
ARM GAS  C:\Users\GKQ\AppData\Local\Temp\ccFEMZSq.s 			page 36


 1594              		.cfi_offset 9, -12
 1595              		.cfi_offset 10, -8
 1596              		.cfi_offset 14, -4
 1597 0004 86B0     		sub	sp, sp, #24
 1598              	.LCFI26:
 1599              		.cfi_def_cfa_offset 56
 1600 0006 0546     		mov	r5, r0
 1601 0008 8846     		mov	r8, r1
 1602 000a 9146     		mov	r9, r2
 1603 000c 1C46     		mov	r4, r3
 1604 000e 0E9E     		ldr	r6, [sp, #56]
 328:oledlib/oled_draw.c ****     float i = 0;
 1605              		.loc 1 328 5 is_stmt 1 view .LVU386
 1606              	.LVL165:
 329:oledlib/oled_draw.c ****     TypeXY m, temp;
 1607              		.loc 1 329 5 view .LVU387
 330:oledlib/oled_draw.c ****     temp = GetXY();
 1608              		.loc 1 330 5 view .LVU388
 1609              		.loc 1 330 12 is_stmt 0 view .LVU389
 1610 0010 02A8     		add	r0, sp, #8
 1611              	.LVL166:
 1612              		.loc 1 330 12 view .LVU390
 1613 0012 FFF7FEFF 		bl	GetXY
 1614              	.LVL167:
 331:oledlib/oled_draw.c ****     SetRotateCenter(x, y);
 1615              		.loc 1 331 5 is_stmt 1 view .LVU391
 1616 0016 4146     		mov	r1, r8
 1617 0018 2846     		mov	r0, r5
 1618 001a FFF7FEFF 		bl	SetRotateCenter
 1619              	.LVL168:
 332:oledlib/oled_draw.c ****     SetAnggleDir(0);
 1620              		.loc 1 332 5 view .LVU392
 1621 001e 0020     		movs	r0, #0
 1622 0020 FFF7FEFF 		bl	SetAnggleDir
 1623              	.LVL169:
 333:oledlib/oled_draw.c ****     if (angle_end > 360)
 1624              		.loc 1 333 5 view .LVU393
 1625              		.loc 1 333 8 is_stmt 0 view .LVU394
 1626 0024 B6F5B47F 		cmp	r6, #360
 1627 0028 01DD     		ble	.L97
 334:oledlib/oled_draw.c ****         angle_end = 360;
 1628              		.loc 1 334 19 view .LVU395
 1629 002a 4FF4B476 		mov	r6, #360
 1630              	.L97:
 1631              	.LVL170:
 335:oledlib/oled_draw.c ****     SetAngle(0);
 1632              		.loc 1 335 5 is_stmt 1 view .LVU396
 1633 002e 0020     		movs	r0, #0
 1634 0030 FFF7FEFF 		bl	SetAngle
 1635              	.LVL171:
 336:oledlib/oled_draw.c ****     m = GetRotateXY(x, y + r);
 1636              		.loc 1 336 5 view .LVU397
 1637              		.loc 1 336 9 is_stmt 0 view .LVU398
 1638 0034 09EB0807 		add	r7, r9, r8
 1639 0038 3A46     		mov	r2, r7
 1640 003a 2946     		mov	r1, r5
 1641 003c 04A8     		add	r0, sp, #16
ARM GAS  C:\Users\GKQ\AppData\Local\Temp\ccFEMZSq.s 			page 37


 1642 003e FFF7FEFF 		bl	GetRotateXY
 1643              	.LVL172:
 337:oledlib/oled_draw.c ****     MoveTo(m.x, m.y);
 1644              		.loc 1 337 5 is_stmt 1 view .LVU399
 1645 0042 0599     		ldr	r1, [sp, #20]
 1646 0044 0498     		ldr	r0, [sp, #16]
 1647 0046 FFF7FEFF 		bl	MoveTo
 1648              	.LVL173:
 338:oledlib/oled_draw.c ****     for (i = angle_start; i < angle_end; i += 5)
 1649              		.loc 1 338 5 view .LVU400
 1650              		.loc 1 338 12 is_stmt 0 view .LVU401
 1651 004a 2046     		mov	r0, r4
 1652 004c FFF7FEFF 		bl	__aeabi_i2f
 1653              	.LVL174:
 1654 0050 0446     		mov	r4, r0
 1655              	.LVL175:
 1656              	.L98:
 1657              		.loc 1 338 27 is_stmt 1 discriminator 1 view .LVU402
 1658              		.loc 1 338 29 is_stmt 0 discriminator 1 view .LVU403
 1659 0052 3046     		mov	r0, r6
 1660              	.LVL176:
 1661              		.loc 1 338 29 discriminator 1 view .LVU404
 1662 0054 FFF7FEFF 		bl	__aeabi_i2f
 1663              	.LVL177:
 1664              		.loc 1 338 5 discriminator 1 view .LVU405
 1665 0058 2146     		mov	r1, r4
 1666 005a FFF7FEFF 		bl	__aeabi_fcmpgt
 1667              	.LVL178:
 1668 005e B8B1     		cbz	r0, .L102
 339:oledlib/oled_draw.c ****     {
 340:oledlib/oled_draw.c ****         SetAngle(i);
 1669              		.loc 1 340 9 is_stmt 1 discriminator 3 view .LVU406
 1670 0060 2046     		mov	r0, r4
 1671 0062 FFF7FEFF 		bl	SetAngle
 1672              	.LVL179:
 341:oledlib/oled_draw.c ****         m = GetRotateXY(x, y + r);
 1673              		.loc 1 341 9 discriminator 3 view .LVU407
 1674              		.loc 1 341 13 is_stmt 0 discriminator 3 view .LVU408
 1675 0066 EA46     		mov	r10, sp
 1676 0068 3A46     		mov	r2, r7
 1677 006a 2946     		mov	r1, r5
 1678 006c 5046     		mov	r0, r10
 1679 006e FFF7FEFF 		bl	GetRotateXY
 1680              	.LVL180:
 1681 0072 9AE80300 		ldm	r10, {r0, r1}
 1682 0076 06AB     		add	r3, sp, #24
 1683 0078 03E90300 		stmdb	r3, {r0, r1}
 342:oledlib/oled_draw.c ****         LineTo(m.x, m.y);
 1684              		.loc 1 342 9 is_stmt 1 discriminator 3 view .LVU409
 1685 007c 0599     		ldr	r1, [sp, #20]
 1686 007e 0498     		ldr	r0, [sp, #16]
 1687 0080 FFF7FEFF 		bl	LineTo
 1688              	.LVL181:
 338:oledlib/oled_draw.c ****     {
 1689              		.loc 1 338 42 discriminator 3 view .LVU410
 338:oledlib/oled_draw.c ****     {
 1690              		.loc 1 338 44 is_stmt 0 discriminator 3 view .LVU411
ARM GAS  C:\Users\GKQ\AppData\Local\Temp\ccFEMZSq.s 			page 38


 1691 0084 0849     		ldr	r1, .L103
 1692 0086 2046     		mov	r0, r4
 1693 0088 FFF7FEFF 		bl	__aeabi_fadd
 1694              	.LVL182:
 1695 008c 0446     		mov	r4, r0
 1696              	.LVL183:
 338:oledlib/oled_draw.c ****     {
 1697              		.loc 1 338 44 discriminator 3 view .LVU412
 1698 008e E0E7     		b	.L98
 1699              	.LVL184:
 1700              	.L102:
 343:oledlib/oled_draw.c ****         //SetPointBuffer(m.x,m.y,GetDrawColor());
 344:oledlib/oled_draw.c ****     }
 345:oledlib/oled_draw.c ****     LineTo(x + r, y);
 1701              		.loc 1 345 5 is_stmt 1 view .LVU413
 1702 0090 4146     		mov	r1, r8
 1703 0092 09EB0500 		add	r0, r9, r5
 1704 0096 FFF7FEFF 		bl	LineTo
 1705              	.LVL185:
 346:oledlib/oled_draw.c ****     MoveTo(temp.x, temp.y);
 1706              		.loc 1 346 5 view .LVU414
 1707 009a 0399     		ldr	r1, [sp, #12]
 1708 009c 0298     		ldr	r0, [sp, #8]
 1709 009e FFF7FEFF 		bl	MoveTo
 1710              	.LVL186:
 347:oledlib/oled_draw.c **** }
 1711              		.loc 1 347 1 is_stmt 0 view .LVU415
 1712 00a2 06B0     		add	sp, sp, #24
 1713              	.LCFI27:
 1714              		.cfi_def_cfa_offset 32
 1715              		@ sp needed
 1716 00a4 BDE8F087 		pop	{r4, r5, r6, r7, r8, r9, r10, pc}
 1717              	.LVL187:
 1718              	.L104:
 1719              		.loc 1 347 1 view .LVU416
 1720              		.align	2
 1721              	.L103:
 1722 00a8 0000A040 		.word	1084227584
 1723              		.cfi_endproc
 1724              	.LFE19:
 1726              		.section	.text.DrawFillArc,"ax",%progbits
 1727              		.align	1
 1728              		.global	DrawFillArc
 1729              		.syntax unified
 1730              		.thumb
 1731              		.thumb_func
 1732              		.fpu softvfp
 1734              	DrawFillArc:
 1735              	.LVL188:
 1736              	.LFB20:
 348:oledlib/oled_draw.c **** void DrawFillArc(int x, int y, unsigned char r, int angle_start, int angle_end)
 349:oledlib/oled_draw.c **** {
 1737              		.loc 1 349 1 is_stmt 1 view -0
 1738              		.cfi_startproc
 1739              		@ args = 4, pretend = 0, frame = 0
 1740              		@ frame_needed = 0, uses_anonymous_args = 0
 1741              		@ link register save eliminated.
ARM GAS  C:\Users\GKQ\AppData\Local\Temp\ccFEMZSq.s 			page 39


 350:oledlib/oled_draw.c **** }
 1742              		.loc 1 350 1 view .LVU418
 1743 0000 7047     		bx	lr
 1744              		.cfi_endproc
 1745              	.LFE20:
 1747              		.section	.text.DrawRoundRect,"ax",%progbits
 1748              		.align	1
 1749              		.global	DrawRoundRect
 1750              		.syntax unified
 1751              		.thumb
 1752              		.thumb_func
 1753              		.fpu softvfp
 1755              	DrawRoundRect:
 1756              	.LVL189:
 1757              	.LFB21:
 351:oledlib/oled_draw.c **** 
 352:oledlib/oled_draw.c **** void DrawRoundRect(int x, int y, unsigned char w, unsigned char h, unsigned char r)
 353:oledlib/oled_draw.c **** {
 1758              		.loc 1 353 1 view -0
 1759              		.cfi_startproc
 1760              		@ args = 4, pretend = 0, frame = 8
 1761              		@ frame_needed = 0, uses_anonymous_args = 0
 1762              		.loc 1 353 1 is_stmt 0 view .LVU420
 1763 0000 2DE9F04F 		push	{r4, r5, r6, r7, r8, r9, r10, fp, lr}
 1764              	.LCFI28:
 1765              		.cfi_def_cfa_offset 36
 1766              		.cfi_offset 4, -36
 1767              		.cfi_offset 5, -32
 1768              		.cfi_offset 6, -28
 1769              		.cfi_offset 7, -24
 1770              		.cfi_offset 8, -20
 1771              		.cfi_offset 9, -16
 1772              		.cfi_offset 10, -12
 1773              		.cfi_offset 11, -8
 1774              		.cfi_offset 14, -4
 1775 0004 83B0     		sub	sp, sp, #12
 1776              	.LCFI29:
 1777              		.cfi_def_cfa_offset 48
 1778 0006 8046     		mov	r8, r0
 1779 0008 0D46     		mov	r5, r1
 1780 000a 1E46     		mov	r6, r3
 1781 000c 9DF83040 		ldrb	r4, [sp, #48]	@ zero_extendqisi2
 354:oledlib/oled_draw.c ****     // smarter version
 355:oledlib/oled_draw.c ****     DrawFastHLine(x + r, y, w - 2 * r);         // Top
 1782              		.loc 1 355 5 is_stmt 1 view .LVU421
 1783 0010 04EB0009 		add	r9, r4, r0
 1784 0014 4FEA440A 		lsl	r10, r4, #1
 1785 0018 5FFA8AFA 		uxtb	r10, r10
 1786 001c 0192     		str	r2, [sp, #4]
 1787 001e A2EB0A0B 		sub	fp, r2, r10
 1788 0022 5FFA8BFB 		uxtb	fp, fp
 1789 0026 5A46     		mov	r2, fp
 1790              	.LVL190:
 1791              		.loc 1 355 5 is_stmt 0 view .LVU422
 1792 0028 4846     		mov	r0, r9
 1793              	.LVL191:
 1794              		.loc 1 355 5 view .LVU423
ARM GAS  C:\Users\GKQ\AppData\Local\Temp\ccFEMZSq.s 			page 40


 1795 002a FFF7FEFF 		bl	DrawFastHLine
 1796              	.LVL192:
 356:oledlib/oled_draw.c ****     DrawFastHLine(x + r, y + h - 1, w - 2 * r); // Bottom
 1797              		.loc 1 356 5 is_stmt 1 view .LVU424
 1798              		.loc 1 356 28 is_stmt 0 view .LVU425
 1799 002e 7719     		adds	r7, r6, r5
 1800              		.loc 1 356 5 view .LVU426
 1801 0030 5A46     		mov	r2, fp
 1802 0032 791E     		subs	r1, r7, #1
 1803 0034 4846     		mov	r0, r9
 1804 0036 FFF7FEFF 		bl	DrawFastHLine
 1805              	.LVL193:
 357:oledlib/oled_draw.c ****     DrawFastVLine(x, y + r, h - 2 * r);         // Left
 1806              		.loc 1 357 5 is_stmt 1 view .LVU427
 1807 003a 2544     		add	r5, r5, r4
 1808              	.LVL194:
 1809              		.loc 1 357 5 is_stmt 0 view .LVU428
 1810 003c A6EB0A06 		sub	r6, r6, r10
 1811 0040 F6B2     		uxtb	r6, r6
 1812 0042 3246     		mov	r2, r6
 1813 0044 2946     		mov	r1, r5
 1814 0046 4046     		mov	r0, r8
 1815 0048 FFF7FEFF 		bl	DrawFastVLine
 1816              	.LVL195:
 358:oledlib/oled_draw.c ****     DrawFastVLine(x + w - 1, y + r, h - 2 * r); // Right
 1817              		.loc 1 358 5 is_stmt 1 view .LVU429
 1818              		.loc 1 358 21 is_stmt 0 view .LVU430
 1819 004c 019B     		ldr	r3, [sp, #4]
 1820 004e 9844     		add	r8, r8, r3
 1821              	.LVL196:
 1822              		.loc 1 358 5 view .LVU431
 1823 0050 3246     		mov	r2, r6
 1824 0052 2946     		mov	r1, r5
 1825 0054 08F1FF30 		add	r0, r8, #-1
 1826 0058 FFF7FEFF 		bl	DrawFastVLine
 1827              	.LVL197:
 359:oledlib/oled_draw.c ****     // draw four corners
 360:oledlib/oled_draw.c ****     DrawCircleHelper(x + r, y + r, r, 1);
 1828              		.loc 1 360 5 is_stmt 1 view .LVU432
 1829 005c 0123     		movs	r3, #1
 1830 005e 2246     		mov	r2, r4
 1831 0060 2946     		mov	r1, r5
 1832 0062 4846     		mov	r0, r9
 1833 0064 FFF7FEFF 		bl	DrawCircleHelper
 1834              	.LVL198:
 361:oledlib/oled_draw.c ****     DrawCircleHelper(x + w - r - 1, y + r, r, 2);
 1835              		.loc 1 361 5 view .LVU433
 1836              		.loc 1 361 28 is_stmt 0 view .LVU434
 1837 0068 A8EB0408 		sub	r8, r8, r4
 1838              		.loc 1 361 5 view .LVU435
 1839 006c 08F1FF38 		add	r8, r8, #-1
 1840 0070 0223     		movs	r3, #2
 1841 0072 2246     		mov	r2, r4
 1842 0074 2946     		mov	r1, r5
 1843 0076 4046     		mov	r0, r8
 1844 0078 FFF7FEFF 		bl	DrawCircleHelper
 1845              	.LVL199:
ARM GAS  C:\Users\GKQ\AppData\Local\Temp\ccFEMZSq.s 			page 41


 362:oledlib/oled_draw.c ****     DrawCircleHelper(x + w - r - 1, y + h - r - 1, r, 4);
 1846              		.loc 1 362 5 is_stmt 1 view .LVU436
 1847              		.loc 1 362 43 is_stmt 0 view .LVU437
 1848 007c 3F1B     		subs	r7, r7, r4
 1849              		.loc 1 362 5 view .LVU438
 1850 007e 013F     		subs	r7, r7, #1
 1851 0080 0423     		movs	r3, #4
 1852 0082 2246     		mov	r2, r4
 1853 0084 3946     		mov	r1, r7
 1854 0086 4046     		mov	r0, r8
 1855 0088 FFF7FEFF 		bl	DrawCircleHelper
 1856              	.LVL200:
 363:oledlib/oled_draw.c ****     DrawCircleHelper(x + r, y + h - r - 1, r, 8);
 1857              		.loc 1 363 5 is_stmt 1 view .LVU439
 1858 008c 0823     		movs	r3, #8
 1859 008e 2246     		mov	r2, r4
 1860 0090 3946     		mov	r1, r7
 1861 0092 4846     		mov	r0, r9
 1862 0094 FFF7FEFF 		bl	DrawCircleHelper
 1863              	.LVL201:
 364:oledlib/oled_draw.c **** }
 1864              		.loc 1 364 1 is_stmt 0 view .LVU440
 1865 0098 03B0     		add	sp, sp, #12
 1866              	.LCFI30:
 1867              		.cfi_def_cfa_offset 36
 1868              		@ sp needed
 1869 009a BDE8F08F 		pop	{r4, r5, r6, r7, r8, r9, r10, fp, pc}
 1870              		.loc 1 364 1 view .LVU441
 1871              		.cfi_endproc
 1872              	.LFE21:
 1874              		.section	.text.DrawfillRoundRect,"ax",%progbits
 1875              		.align	1
 1876              		.global	DrawfillRoundRect
 1877              		.syntax unified
 1878              		.thumb
 1879              		.thumb_func
 1880              		.fpu softvfp
 1882              	DrawfillRoundRect:
 1883              	.LVL202:
 1884              	.LFB22:
 365:oledlib/oled_draw.c **** 
 366:oledlib/oled_draw.c **** void DrawfillRoundRect(int x, int y, unsigned char w, unsigned char h, unsigned char r)
 367:oledlib/oled_draw.c **** {
 1885              		.loc 1 367 1 is_stmt 1 view -0
 1886              		.cfi_startproc
 1887              		@ args = 4, pretend = 0, frame = 0
 1888              		@ frame_needed = 0, uses_anonymous_args = 0
 1889              		.loc 1 367 1 is_stmt 0 view .LVU443
 1890 0000 2DE9F047 		push	{r4, r5, r6, r7, r8, r9, r10, lr}
 1891              	.LCFI31:
 1892              		.cfi_def_cfa_offset 32
 1893              		.cfi_offset 4, -32
 1894              		.cfi_offset 5, -28
 1895              		.cfi_offset 6, -24
 1896              		.cfi_offset 7, -20
 1897              		.cfi_offset 8, -16
 1898              		.cfi_offset 9, -12
ARM GAS  C:\Users\GKQ\AppData\Local\Temp\ccFEMZSq.s 			page 42


 1899              		.cfi_offset 10, -8
 1900              		.cfi_offset 14, -4
 1901 0004 82B0     		sub	sp, sp, #8
 1902              	.LCFI32:
 1903              		.cfi_def_cfa_offset 40
 1904 0006 8246     		mov	r10, r0
 1905 0008 8846     		mov	r8, r1
 1906 000a 1446     		mov	r4, r2
 1907 000c 1D46     		mov	r5, r3
 1908 000e 9DF82860 		ldrb	r6, [sp, #40]	@ zero_extendqisi2
 368:oledlib/oled_draw.c ****     // smarter version
 369:oledlib/oled_draw.c ****     DrawFillRect2(x + r, y, w - 2 * r, h);
 1909              		.loc 1 369 5 is_stmt 1 view .LVU444
 1910 0012 3718     		adds	r7, r6, r0
 1911              		.loc 1 369 35 is_stmt 0 view .LVU445
 1912 0014 4FEA4609 		lsl	r9, r6, #1
 1913              		.loc 1 369 5 view .LVU446
 1914 0018 A2EB4602 		sub	r2, r2, r6, lsl #1
 1915              	.LVL203:
 1916              		.loc 1 369 5 view .LVU447
 1917 001c 3846     		mov	r0, r7
 1918              	.LVL204:
 1919              		.loc 1 369 5 view .LVU448
 1920 001e FFF7FEFF 		bl	DrawFillRect2
 1921              	.LVL205:
 370:oledlib/oled_draw.c **** 
 371:oledlib/oled_draw.c ****     // draw four corners
 372:oledlib/oled_draw.c ****     DrawFillCircleHelper(x + w - r - 1, y + r, r, 1, h - 2 * r - 1);
 1922              		.loc 1 372 5 is_stmt 1 view .LVU449
 1923              		.loc 1 372 28 is_stmt 0 view .LVU450
 1924 0022 04EB0A00 		add	r0, r4, r10
 1925              		.loc 1 372 32 view .LVU451
 1926 0026 801B     		subs	r0, r0, r6
 1927              		.loc 1 372 5 view .LVU452
 1928 0028 B044     		add	r8, r8, r6
 1929              	.LVL206:
 1930              		.loc 1 372 56 view .LVU453
 1931 002a A5EB0904 		sub	r4, r5, r9
 1932              		.loc 1 372 5 view .LVU454
 1933 002e 013C     		subs	r4, r4, #1
 1934 0030 0094     		str	r4, [sp]
 1935 0032 0123     		movs	r3, #1
 1936 0034 3246     		mov	r2, r6
 1937 0036 4146     		mov	r1, r8
 1938 0038 0138     		subs	r0, r0, #1
 1939 003a FFF7FEFF 		bl	DrawFillCircleHelper
 1940              	.LVL207:
 373:oledlib/oled_draw.c ****     DrawFillCircleHelper(x + r, y + r, r, 2, h - 2 * r - 1);
 1941              		.loc 1 373 5 is_stmt 1 view .LVU455
 1942 003e 0094     		str	r4, [sp]
 1943 0040 0223     		movs	r3, #2
 1944 0042 3246     		mov	r2, r6
 1945 0044 4146     		mov	r1, r8
 1946 0046 3846     		mov	r0, r7
 1947 0048 FFF7FEFF 		bl	DrawFillCircleHelper
 1948              	.LVL208:
 374:oledlib/oled_draw.c **** }
ARM GAS  C:\Users\GKQ\AppData\Local\Temp\ccFEMZSq.s 			page 43


 1949              		.loc 1 374 1 is_stmt 0 view .LVU456
 1950 004c 02B0     		add	sp, sp, #8
 1951              	.LCFI33:
 1952              		.cfi_def_cfa_offset 32
 1953              		@ sp needed
 1954 004e BDE8F087 		pop	{r4, r5, r6, r7, r8, r9, r10, pc}
 1955              		.loc 1 374 1 view .LVU457
 1956              		.cfi_endproc
 1957              	.LFE22:
 1959              		.global	__aeabi_i2d
 1960              		.global	__aeabi_dmul
 1961              		.global	__aeabi_dadd
 1962              		.global	__aeabi_d2iz
 1963              		.global	__aeabi_dsub
 1964              		.section	.text.DrawEllipse,"ax",%progbits
 1965              		.align	1
 1966              		.global	DrawEllipse
 1967              		.syntax unified
 1968              		.thumb
 1969              		.thumb_func
 1970              		.fpu softvfp
 1972              	DrawEllipse:
 1973              	.LVL209:
 1974              	.LFB23:
 375:oledlib/oled_draw.c **** 
 376:oledlib/oled_draw.c **** #if 0 //以下注释的这段代码是画椭圆的算法，但运算过大，不适合使用，已经修改为Bresenham 算法
 377:oledlib/oled_draw.c **** void DrawEllipse(int x0,int y0,int a,int b)
 378:oledlib/oled_draw.c **** {
 379:oledlib/oled_draw.c **** 	int x,y;double r=0.0,end=3.14159*2;
 380:oledlib/oled_draw.c **** 	int tempy=GetY();
 381:oledlib/oled_draw.c **** 	int tempx=GetX();
 382:oledlib/oled_draw.c **** 	x=x0+a;y=y0;
 383:oledlib/oled_draw.c **** 	MoveTo(x,y);
 384:oledlib/oled_draw.c **** 	for(r=0;r<=end;r+=0.05)
 385:oledlib/oled_draw.c **** 	{
 386:oledlib/oled_draw.c **** 		x=x0+a*cos(r);
 387:oledlib/oled_draw.c **** 		y=y0+b*sin(r);
 388:oledlib/oled_draw.c **** 		LineTo(x,y);
 389:oledlib/oled_draw.c **** 	}
 390:oledlib/oled_draw.c **** 	MoveTo(tempx,tempy);
 391:oledlib/oled_draw.c **** }
 392:oledlib/oled_draw.c **** void DrawFillEllipse(int x0,int y0,int a,int b)
 393:oledlib/oled_draw.c **** {
 394:oledlib/oled_draw.c **** 	int x,y;double r=0.0,end=3.14159*2;
 395:oledlib/oled_draw.c **** 	int tempy=GetY();
 396:oledlib/oled_draw.c **** 	int tempx=GetX();
 397:oledlib/oled_draw.c **** 
 398:oledlib/oled_draw.c **** 	while(a--)
 399:oledlib/oled_draw.c **** 	{
 400:oledlib/oled_draw.c **** 		x=x0+a;y=y0;
 401:oledlib/oled_draw.c **** 		MoveTo(x,y);
 402:oledlib/oled_draw.c **** 		for(r=0;r<=end;r+=0.05)
 403:oledlib/oled_draw.c **** 		{
 404:oledlib/oled_draw.c **** 			x=x0+a*cos(r);
 405:oledlib/oled_draw.c **** 			y=y0+b*sin(r);
 406:oledlib/oled_draw.c **** 			LineTo(x,y);
 407:oledlib/oled_draw.c **** 		}
ARM GAS  C:\Users\GKQ\AppData\Local\Temp\ccFEMZSq.s 			page 44


 408:oledlib/oled_draw.c **** 	}
 409:oledlib/oled_draw.c **** 	MoveTo(tempx,tempy);
 410:oledlib/oled_draw.c **** }
 411:oledlib/oled_draw.c **** #endif
 412:oledlib/oled_draw.c **** void DrawEllipse(int xCenter, int yCenter, int Rx, int Ry)
 413:oledlib/oled_draw.c **** {
 1975              		.loc 1 413 1 is_stmt 1 view -0
 1976              		.cfi_startproc
 1977              		@ args = 0, pretend = 0, frame = 24
 1978              		@ frame_needed = 0, uses_anonymous_args = 0
 1979              		.loc 1 413 1 is_stmt 0 view .LVU459
 1980 0000 2DE9F04F 		push	{r4, r5, r6, r7, r8, r9, r10, fp, lr}
 1981              	.LCFI34:
 1982              		.cfi_def_cfa_offset 36
 1983              		.cfi_offset 4, -36
 1984              		.cfi_offset 5, -32
 1985              		.cfi_offset 6, -28
 1986              		.cfi_offset 7, -24
 1987              		.cfi_offset 8, -20
 1988              		.cfi_offset 9, -16
 1989              		.cfi_offset 10, -12
 1990              		.cfi_offset 11, -8
 1991              		.cfi_offset 14, -4
 1992 0004 87B0     		sub	sp, sp, #28
 1993              	.LCFI35:
 1994              		.cfi_def_cfa_offset 64
 1995 0006 8046     		mov	r8, r0
 1996 0008 0090     		str	r0, [sp]
 1997 000a 1C46     		mov	r4, r3
 414:oledlib/oled_draw.c ****     int Rx2 = Rx * Rx;
 1998              		.loc 1 414 5 is_stmt 1 view .LVU460
 1999              		.loc 1 414 9 is_stmt 0 view .LVU461
 2000 000c 02FB02F7 		mul	r7, r2, r2
 2001 0010 0497     		str	r7, [sp, #16]
 2002              	.LVL210:
 415:oledlib/oled_draw.c ****     int Ry2 = Ry * Ry;
 2003              		.loc 1 415 5 is_stmt 1 view .LVU462
 2004              		.loc 1 415 9 is_stmt 0 view .LVU463
 2005 0012 03FB03F3 		mul	r3, r3, r3
 2006              	.LVL211:
 416:oledlib/oled_draw.c ****     int twoRx2 = 2 * Rx2;
 2007              		.loc 1 416 5 is_stmt 1 view .LVU464
 2008              		.loc 1 416 9 is_stmt 0 view .LVU465
 2009 0016 7A00     		lsls	r2, r7, #1
 2010              	.LVL212:
 2011              		.loc 1 416 9 view .LVU466
 2012 0018 0292     		str	r2, [sp, #8]
 2013              	.LVL213:
 417:oledlib/oled_draw.c ****     int twoRy2 = 2 * Ry2;
 2014              		.loc 1 417 5 is_stmt 1 view .LVU467
 2015              		.loc 1 417 9 is_stmt 0 view .LVU468
 2016 001a 0593     		str	r3, [sp, #20]
 2017 001c 5D00     		lsls	r5, r3, #1
 2018 001e 0395     		str	r5, [sp, #12]
 2019              	.LVL214:
 418:oledlib/oled_draw.c ****     int p;
 2020              		.loc 1 418 5 is_stmt 1 view .LVU469
ARM GAS  C:\Users\GKQ\AppData\Local\Temp\ccFEMZSq.s 			page 45


 419:oledlib/oled_draw.c ****     int x = 0;
 2021              		.loc 1 419 5 view .LVU470
 420:oledlib/oled_draw.c ****     int y = Ry;
 2022              		.loc 1 420 5 view .LVU471
 421:oledlib/oled_draw.c ****     int px = 0;
 2023              		.loc 1 421 5 view .LVU472
 422:oledlib/oled_draw.c ****     int py = twoRx2 * y;
 2024              		.loc 1 422 5 view .LVU473
 2025              		.loc 1 422 9 is_stmt 0 view .LVU474
 2026 0020 02FB04F6 		mul	r6, r2, r4
 2027              	.LVL215:
 423:oledlib/oled_draw.c ****     SetPointBuffer(xCenter + x, yCenter + y, GetDrawColor());
 2028              		.loc 1 423 5 is_stmt 1 view .LVU475
 2029 0024 0191     		str	r1, [sp, #4]
 2030 0026 6518     		adds	r5, r4, r1
 2031              	.LVL216:
 2032              		.loc 1 423 46 is_stmt 0 view .LVU476
 2033 0028 FFF7FEFF 		bl	GetDrawColor
 2034              	.LVL217:
 2035              		.loc 1 423 46 view .LVU477
 2036 002c 0246     		mov	r2, r0
 2037              		.loc 1 423 5 view .LVU478
 2038 002e 2946     		mov	r1, r5
 2039 0030 4046     		mov	r0, r8
 2040 0032 FFF7FEFF 		bl	SetPointBuffer
 2041              	.LVL218:
 424:oledlib/oled_draw.c ****     SetPointBuffer(xCenter - x, yCenter + y, GetDrawColor());
 2042              		.loc 1 424 5 is_stmt 1 view .LVU479
 2043              		.loc 1 424 46 is_stmt 0 view .LVU480
 2044 0036 FFF7FEFF 		bl	GetDrawColor
 2045              	.LVL219:
 2046 003a 0246     		mov	r2, r0
 2047              		.loc 1 424 5 view .LVU481
 2048 003c 2946     		mov	r1, r5
 2049 003e 4046     		mov	r0, r8
 2050 0040 FFF7FEFF 		bl	SetPointBuffer
 2051              	.LVL220:
 425:oledlib/oled_draw.c ****     SetPointBuffer(xCenter + x, yCenter - y, GetDrawColor());
 2052              		.loc 1 425 5 is_stmt 1 view .LVU482
 2053 0044 019A     		ldr	r2, [sp, #4]
 2054 0046 151B     		subs	r5, r2, r4
 2055              		.loc 1 425 46 is_stmt 0 view .LVU483
 2056 0048 FFF7FEFF 		bl	GetDrawColor
 2057              	.LVL221:
 2058 004c 0246     		mov	r2, r0
 2059              		.loc 1 425 5 view .LVU484
 2060 004e 2946     		mov	r1, r5
 2061 0050 4046     		mov	r0, r8
 2062 0052 FFF7FEFF 		bl	SetPointBuffer
 2063              	.LVL222:
 426:oledlib/oled_draw.c ****     SetPointBuffer(xCenter - x, yCenter - y, GetDrawColor());
 2064              		.loc 1 426 5 is_stmt 1 view .LVU485
 2065              		.loc 1 426 46 is_stmt 0 view .LVU486
 2066 0056 FFF7FEFF 		bl	GetDrawColor
 2067              	.LVL223:
 2068 005a 0246     		mov	r2, r0
 2069              		.loc 1 426 5 view .LVU487
ARM GAS  C:\Users\GKQ\AppData\Local\Temp\ccFEMZSq.s 			page 46


 2070 005c 2946     		mov	r1, r5
 2071 005e 4046     		mov	r0, r8
 2072 0060 FFF7FEFF 		bl	SetPointBuffer
 2073              	.LVL224:
 427:oledlib/oled_draw.c ****     //Region?1
 428:oledlib/oled_draw.c ****     p = (int)(Ry2 - Rx2 * Ry + 0.25 * Rx2);
 2074              		.loc 1 428 5 is_stmt 1 view .LVU488
 2075              		.loc 1 428 19 is_stmt 0 view .LVU489
 2076 0064 3846     		mov	r0, r7
 2077 0066 059B     		ldr	r3, [sp, #20]
 2078 0068 04FB1735 		mls	r5, r4, r7, r3
 2079              		.loc 1 428 37 view .LVU490
 2080 006c FFF7FEFF 		bl	__aeabi_i2d
 2081              	.LVL225:
 2082 0070 0022     		movs	r2, #0
 2083 0072 624B     		ldr	r3, .L123
 2084 0074 FFF7FEFF 		bl	__aeabi_dmul
 2085              	.LVL226:
 2086 0078 8046     		mov	r8, r0
 2087              	.LVL227:
 2088              		.loc 1 428 37 view .LVU491
 2089 007a 8946     		mov	r9, r1
 2090              		.loc 1 428 30 view .LVU492
 2091 007c 2846     		mov	r0, r5
 2092 007e FFF7FEFF 		bl	__aeabi_i2d
 2093              	.LVL228:
 2094 0082 4246     		mov	r2, r8
 2095 0084 4B46     		mov	r3, r9
 2096 0086 FFF7FEFF 		bl	__aeabi_dadd
 2097              	.LVL229:
 2098              		.loc 1 428 7 view .LVU493
 2099 008a FFF7FEFF 		bl	__aeabi_d2iz
 2100              	.LVL230:
 2101 008e 8346     		mov	fp, r0
 2102              	.LVL231:
 429:oledlib/oled_draw.c ****     while (px < py)
 2103              		.loc 1 429 5 is_stmt 1 view .LVU494
 421:oledlib/oled_draw.c ****     int py = twoRx2 * y;
 2104              		.loc 1 421 9 is_stmt 0 view .LVU495
 2105 0090 0027     		movs	r7, #0
 2106              	.LVL232:
 419:oledlib/oled_draw.c ****     int y = Ry;
 2107              		.loc 1 419 9 view .LVU496
 2108 0092 3D46     		mov	r5, r7
 2109              		.loc 1 429 11 view .LVU497
 2110 0094 2AE0     		b	.L111
 2111              	.LVL233:
 2112              	.L121:
 430:oledlib/oled_draw.c ****     {
 431:oledlib/oled_draw.c ****         x++;
 432:oledlib/oled_draw.c ****         px += twoRy2;
 433:oledlib/oled_draw.c ****         if (p < 0)
 434:oledlib/oled_draw.c ****             p += Ry2 + px;
 2113              		.loc 1 434 13 is_stmt 1 view .LVU498
 2114              		.loc 1 434 22 is_stmt 0 view .LVU499
 2115 0096 059B     		ldr	r3, [sp, #20]
 2116 0098 3B44     		add	r3, r3, r7
ARM GAS  C:\Users\GKQ\AppData\Local\Temp\ccFEMZSq.s 			page 47


 2117              		.loc 1 434 15 view .LVU500
 2118 009a 9B44     		add	fp, fp, r3
 2119              	.LVL234:
 2120              	.L113:
 435:oledlib/oled_draw.c ****         else
 436:oledlib/oled_draw.c ****         {
 437:oledlib/oled_draw.c ****             y--;
 438:oledlib/oled_draw.c ****             py -= twoRx2;
 439:oledlib/oled_draw.c ****             p += Ry2 + px - py;
 440:oledlib/oled_draw.c ****         }
 441:oledlib/oled_draw.c ****         SetPointBuffer(xCenter + x, yCenter + y, GetDrawColor());
 2121              		.loc 1 441 9 is_stmt 1 view .LVU501
 2122 009c 009B     		ldr	r3, [sp]
 2123 009e 03EB050A 		add	r10, r3, r5
 2124 00a2 019A     		ldr	r2, [sp, #4]
 2125 00a4 04EB0209 		add	r9, r4, r2
 2126              		.loc 1 441 50 is_stmt 0 view .LVU502
 2127 00a8 FFF7FEFF 		bl	GetDrawColor
 2128              	.LVL235:
 2129 00ac 0246     		mov	r2, r0
 2130              		.loc 1 441 9 view .LVU503
 2131 00ae 4946     		mov	r1, r9
 2132 00b0 5046     		mov	r0, r10
 2133 00b2 FFF7FEFF 		bl	SetPointBuffer
 2134              	.LVL236:
 442:oledlib/oled_draw.c ****         SetPointBuffer(xCenter - x, yCenter + y, GetDrawColor());
 2135              		.loc 1 442 9 is_stmt 1 view .LVU504
 2136 00b6 009B     		ldr	r3, [sp]
 2137 00b8 A3EB0508 		sub	r8, r3, r5
 2138              		.loc 1 442 50 is_stmt 0 view .LVU505
 2139 00bc FFF7FEFF 		bl	GetDrawColor
 2140              	.LVL237:
 2141 00c0 0246     		mov	r2, r0
 2142              		.loc 1 442 9 view .LVU506
 2143 00c2 4946     		mov	r1, r9
 2144 00c4 4046     		mov	r0, r8
 2145 00c6 FFF7FEFF 		bl	SetPointBuffer
 2146              	.LVL238:
 443:oledlib/oled_draw.c ****         SetPointBuffer(xCenter + x, yCenter - y, GetDrawColor());
 2147              		.loc 1 443 9 is_stmt 1 view .LVU507
 2148 00ca 019A     		ldr	r2, [sp, #4]
 2149 00cc A2EB0409 		sub	r9, r2, r4
 2150              		.loc 1 443 50 is_stmt 0 view .LVU508
 2151 00d0 FFF7FEFF 		bl	GetDrawColor
 2152              	.LVL239:
 2153 00d4 0246     		mov	r2, r0
 2154              		.loc 1 443 9 view .LVU509
 2155 00d6 4946     		mov	r1, r9
 2156 00d8 5046     		mov	r0, r10
 2157 00da FFF7FEFF 		bl	SetPointBuffer
 2158              	.LVL240:
 444:oledlib/oled_draw.c ****         SetPointBuffer(xCenter - x, yCenter - y, GetDrawColor());
 2159              		.loc 1 444 9 is_stmt 1 view .LVU510
 2160              		.loc 1 444 50 is_stmt 0 view .LVU511
 2161 00de FFF7FEFF 		bl	GetDrawColor
 2162              	.LVL241:
 2163 00e2 0246     		mov	r2, r0
ARM GAS  C:\Users\GKQ\AppData\Local\Temp\ccFEMZSq.s 			page 48


 2164              		.loc 1 444 9 view .LVU512
 2165 00e4 4946     		mov	r1, r9
 2166 00e6 4046     		mov	r0, r8
 2167 00e8 FFF7FEFF 		bl	SetPointBuffer
 2168              	.LVL242:
 2169              	.L111:
 429:oledlib/oled_draw.c ****     {
 2170              		.loc 1 429 11 is_stmt 1 view .LVU513
 2171 00ec B742     		cmp	r7, r6
 2172 00ee 0DDA     		bge	.L120
 431:oledlib/oled_draw.c ****         px += twoRy2;
 2173              		.loc 1 431 9 view .LVU514
 431:oledlib/oled_draw.c ****         px += twoRy2;
 2174              		.loc 1 431 10 is_stmt 0 view .LVU515
 2175 00f0 0135     		adds	r5, r5, #1
 2176              	.LVL243:
 432:oledlib/oled_draw.c ****         if (p < 0)
 2177              		.loc 1 432 9 is_stmt 1 view .LVU516
 432:oledlib/oled_draw.c ****         if (p < 0)
 2178              		.loc 1 432 12 is_stmt 0 view .LVU517
 2179 00f2 039B     		ldr	r3, [sp, #12]
 2180 00f4 1F44     		add	r7, r7, r3
 2181              	.LVL244:
 433:oledlib/oled_draw.c ****             p += Ry2 + px;
 2182              		.loc 1 433 9 is_stmt 1 view .LVU518
 433:oledlib/oled_draw.c ****             p += Ry2 + px;
 2183              		.loc 1 433 12 is_stmt 0 view .LVU519
 2184 00f6 BBF1000F 		cmp	fp, #0
 2185 00fa CCDB     		blt	.L121
 437:oledlib/oled_draw.c ****             py -= twoRx2;
 2186              		.loc 1 437 13 is_stmt 1 view .LVU520
 437:oledlib/oled_draw.c ****             py -= twoRx2;
 2187              		.loc 1 437 14 is_stmt 0 view .LVU521
 2188 00fc 013C     		subs	r4, r4, #1
 2189              	.LVL245:
 438:oledlib/oled_draw.c ****             p += Ry2 + px - py;
 2190              		.loc 1 438 13 is_stmt 1 view .LVU522
 438:oledlib/oled_draw.c ****             p += Ry2 + px - py;
 2191              		.loc 1 438 16 is_stmt 0 view .LVU523
 2192 00fe 029B     		ldr	r3, [sp, #8]
 2193 0100 F61A     		subs	r6, r6, r3
 2194              	.LVL246:
 439:oledlib/oled_draw.c ****         }
 2195              		.loc 1 439 13 is_stmt 1 view .LVU524
 439:oledlib/oled_draw.c ****         }
 2196              		.loc 1 439 22 is_stmt 0 view .LVU525
 2197 0102 059B     		ldr	r3, [sp, #20]
 2198 0104 3B44     		add	r3, r3, r7
 439:oledlib/oled_draw.c ****         }
 2199              		.loc 1 439 27 view .LVU526
 2200 0106 9B1B     		subs	r3, r3, r6
 439:oledlib/oled_draw.c ****         }
 2201              		.loc 1 439 15 view .LVU527
 2202 0108 9B44     		add	fp, fp, r3
 2203              	.LVL247:
 439:oledlib/oled_draw.c ****         }
 2204              		.loc 1 439 15 view .LVU528
ARM GAS  C:\Users\GKQ\AppData\Local\Temp\ccFEMZSq.s 			page 49


 2205 010a C7E7     		b	.L113
 2206              	.L120:
 445:oledlib/oled_draw.c ****     }
 446:oledlib/oled_draw.c ****     //Region?2
 447:oledlib/oled_draw.c ****     p = (int)(Ry2 * (x + 0.5) * (x + 0.5) + Rx2 * (y - 1) * (y - 1) - Rx2 * Ry2);
 2207              		.loc 1 447 5 is_stmt 1 view .LVU529
 2208              		.loc 1 447 24 is_stmt 0 view .LVU530
 2209 010c 2846     		mov	r0, r5
 2210 010e FFF7FEFF 		bl	__aeabi_i2d
 2211              	.LVL248:
 2212 0112 0022     		movs	r2, #0
 2213 0114 3A4B     		ldr	r3, .L123+4
 2214 0116 FFF7FEFF 		bl	__aeabi_dadd
 2215              	.LVL249:
 2216 011a 8046     		mov	r8, r0
 2217 011c 8946     		mov	r9, r1
 2218              		.loc 1 447 19 view .LVU531
 2219 011e DDF814A0 		ldr	r10, [sp, #20]
 2220 0122 5046     		mov	r0, r10
 2221 0124 FFF7FEFF 		bl	__aeabi_i2d
 2222              	.LVL250:
 2223 0128 4246     		mov	r2, r8
 2224 012a 4B46     		mov	r3, r9
 2225 012c FFF7FEFF 		bl	__aeabi_dmul
 2226              	.LVL251:
 2227 0130 0246     		mov	r2, r0
 2228 0132 0B46     		mov	r3, r1
 2229              		.loc 1 447 31 view .LVU532
 2230 0134 4046     		mov	r0, r8
 2231 0136 4946     		mov	r1, r9
 2232 0138 FFF7FEFF 		bl	__aeabi_dmul
 2233              	.LVL252:
 2234 013c 8046     		mov	r8, r0
 2235 013e 8946     		mov	r9, r1
 2236              		.loc 1 447 54 view .LVU533
 2237 0140 631E     		subs	r3, r4, #1
 2238              		.loc 1 447 49 view .LVU534
 2239 0142 049A     		ldr	r2, [sp, #16]
 2240 0144 02FB03F0 		mul	r0, r2, r3
 2241              		.loc 1 447 43 view .LVU535
 2242 0148 00FB03F0 		mul	r0, r0, r3
 2243 014c FFF7FEFF 		bl	__aeabi_i2d
 2244              	.LVL253:
 2245 0150 4246     		mov	r2, r8
 2246 0152 4B46     		mov	r3, r9
 2247 0154 FFF7FEFF 		bl	__aeabi_dadd
 2248              	.LVL254:
 2249 0158 8046     		mov	r8, r0
 2250 015a 8946     		mov	r9, r1
 2251              		.loc 1 447 69 view .LVU536
 2252 015c 5046     		mov	r0, r10
 2253 015e 049A     		ldr	r2, [sp, #16]
 2254 0160 00FB02F0 		mul	r0, r0, r2
 2255 0164 FFF7FEFF 		bl	__aeabi_i2d
 2256              	.LVL255:
 2257 0168 0246     		mov	r2, r0
 2258 016a 0B46     		mov	r3, r1
ARM GAS  C:\Users\GKQ\AppData\Local\Temp\ccFEMZSq.s 			page 50


 2259 016c 4046     		mov	r0, r8
 2260 016e 4946     		mov	r1, r9
 2261 0170 FFF7FEFF 		bl	__aeabi_dsub
 2262              	.LVL256:
 2263              		.loc 1 447 7 view .LVU537
 2264 0174 FFF7FEFF 		bl	__aeabi_d2iz
 2265              	.LVL257:
 2266 0178 8346     		mov	fp, r0
 2267              	.LVL258:
 448:oledlib/oled_draw.c ****     while (y > 0)
 2268              		.loc 1 448 5 is_stmt 1 view .LVU538
 2269 017a 0597     		str	r7, [sp, #20]
 2270              	.LVL259:
 2271              		.loc 1 448 5 is_stmt 0 view .LVU539
 2272 017c DDF804A0 		ldr	r10, [sp, #4]
 2273              		.loc 1 448 11 view .LVU540
 2274 0180 2CE0     		b	.L115
 2275              	.LVL260:
 2276              	.L116:
 449:oledlib/oled_draw.c ****     {
 450:oledlib/oled_draw.c ****         y--;
 451:oledlib/oled_draw.c ****         py -= twoRx2;
 452:oledlib/oled_draw.c ****         if (p > 0)
 453:oledlib/oled_draw.c ****             p += Rx2 - py;
 454:oledlib/oled_draw.c ****         else
 455:oledlib/oled_draw.c ****         {
 456:oledlib/oled_draw.c ****             x++;
 2277              		.loc 1 456 13 is_stmt 1 view .LVU541
 2278              		.loc 1 456 14 is_stmt 0 view .LVU542
 2279 0182 0135     		adds	r5, r5, #1
 2280              	.LVL261:
 457:oledlib/oled_draw.c ****             px += twoRy2;
 2281              		.loc 1 457 13 is_stmt 1 view .LVU543
 2282              		.loc 1 457 16 is_stmt 0 view .LVU544
 2283 0184 059A     		ldr	r2, [sp, #20]
 2284 0186 039B     		ldr	r3, [sp, #12]
 2285 0188 1A44     		add	r2, r2, r3
 2286 018a 0592     		str	r2, [sp, #20]
 2287              	.LVL262:
 458:oledlib/oled_draw.c ****             p += Rx2 - py + px;
 2288              		.loc 1 458 13 is_stmt 1 view .LVU545
 2289              		.loc 1 458 22 is_stmt 0 view .LVU546
 2290 018c 049B     		ldr	r3, [sp, #16]
 2291 018e 9B1B     		subs	r3, r3, r6
 2292              		.loc 1 458 27 view .LVU547
 2293 0190 1344     		add	r3, r3, r2
 2294              		.loc 1 458 15 view .LVU548
 2295 0192 9B44     		add	fp, fp, r3
 2296              	.LVL263:
 2297              	.L117:
 459:oledlib/oled_draw.c ****         }
 460:oledlib/oled_draw.c ****         SetPointBuffer(xCenter + x, yCenter + y, GetDrawColor());
 2298              		.loc 1 460 9 is_stmt 1 view .LVU549
 2299 0194 009F     		ldr	r7, [sp]
 2300 0196 05EB0709 		add	r9, r5, r7
 2301 019a 0AEB0408 		add	r8, r10, r4
 2302              		.loc 1 460 50 is_stmt 0 view .LVU550
ARM GAS  C:\Users\GKQ\AppData\Local\Temp\ccFEMZSq.s 			page 51


 2303 019e FFF7FEFF 		bl	GetDrawColor
 2304              	.LVL264:
 2305 01a2 0246     		mov	r2, r0
 2306              		.loc 1 460 9 view .LVU551
 2307 01a4 4146     		mov	r1, r8
 2308 01a6 4846     		mov	r0, r9
 2309 01a8 FFF7FEFF 		bl	SetPointBuffer
 2310              	.LVL265:
 461:oledlib/oled_draw.c ****         SetPointBuffer(xCenter - x, yCenter + y, GetDrawColor());
 2311              		.loc 1 461 9 is_stmt 1 view .LVU552
 2312 01ac 7F1B     		subs	r7, r7, r5
 2313              		.loc 1 461 50 is_stmt 0 view .LVU553
 2314 01ae FFF7FEFF 		bl	GetDrawColor
 2315              	.LVL266:
 2316 01b2 0246     		mov	r2, r0
 2317              		.loc 1 461 9 view .LVU554
 2318 01b4 4146     		mov	r1, r8
 2319 01b6 3846     		mov	r0, r7
 2320 01b8 FFF7FEFF 		bl	SetPointBuffer
 2321              	.LVL267:
 462:oledlib/oled_draw.c ****         SetPointBuffer(xCenter + x, yCenter - y, GetDrawColor());
 2322              		.loc 1 462 9 is_stmt 1 view .LVU555
 2323 01bc AAEB0408 		sub	r8, r10, r4
 2324              		.loc 1 462 50 is_stmt 0 view .LVU556
 2325 01c0 FFF7FEFF 		bl	GetDrawColor
 2326              	.LVL268:
 2327 01c4 0246     		mov	r2, r0
 2328              		.loc 1 462 9 view .LVU557
 2329 01c6 4146     		mov	r1, r8
 2330 01c8 4846     		mov	r0, r9
 2331 01ca FFF7FEFF 		bl	SetPointBuffer
 2332              	.LVL269:
 463:oledlib/oled_draw.c ****         SetPointBuffer(xCenter - x, yCenter - y, GetDrawColor());
 2333              		.loc 1 463 9 is_stmt 1 view .LVU558
 2334              		.loc 1 463 50 is_stmt 0 view .LVU559
 2335 01ce FFF7FEFF 		bl	GetDrawColor
 2336              	.LVL270:
 2337 01d2 0246     		mov	r2, r0
 2338              		.loc 1 463 9 view .LVU560
 2339 01d4 4146     		mov	r1, r8
 2340 01d6 3846     		mov	r0, r7
 2341 01d8 FFF7FEFF 		bl	SetPointBuffer
 2342              	.LVL271:
 2343              	.L115:
 448:oledlib/oled_draw.c ****     {
 2344              		.loc 1 448 11 is_stmt 1 view .LVU561
 2345 01dc 002C     		cmp	r4, #0
 2346 01de 09DD     		ble	.L122
 450:oledlib/oled_draw.c ****         py -= twoRx2;
 2347              		.loc 1 450 9 view .LVU562
 450:oledlib/oled_draw.c ****         py -= twoRx2;
 2348              		.loc 1 450 10 is_stmt 0 view .LVU563
 2349 01e0 013C     		subs	r4, r4, #1
 2350              	.LVL272:
 451:oledlib/oled_draw.c ****         if (p > 0)
 2351              		.loc 1 451 9 is_stmt 1 view .LVU564
 451:oledlib/oled_draw.c ****         if (p > 0)
ARM GAS  C:\Users\GKQ\AppData\Local\Temp\ccFEMZSq.s 			page 52


 2352              		.loc 1 451 12 is_stmt 0 view .LVU565
 2353 01e2 029B     		ldr	r3, [sp, #8]
 2354 01e4 F61A     		subs	r6, r6, r3
 2355              	.LVL273:
 452:oledlib/oled_draw.c ****             p += Rx2 - py;
 2356              		.loc 1 452 9 is_stmt 1 view .LVU566
 452:oledlib/oled_draw.c ****             p += Rx2 - py;
 2357              		.loc 1 452 12 is_stmt 0 view .LVU567
 2358 01e6 BBF1000F 		cmp	fp, #0
 2359 01ea CADD     		ble	.L116
 453:oledlib/oled_draw.c ****         else
 2360              		.loc 1 453 13 is_stmt 1 view .LVU568
 453:oledlib/oled_draw.c ****         else
 2361              		.loc 1 453 22 is_stmt 0 view .LVU569
 2362 01ec 049B     		ldr	r3, [sp, #16]
 2363 01ee 9B1B     		subs	r3, r3, r6
 453:oledlib/oled_draw.c ****         else
 2364              		.loc 1 453 15 view .LVU570
 2365 01f0 9B44     		add	fp, fp, r3
 2366              	.LVL274:
 453:oledlib/oled_draw.c ****         else
 2367              		.loc 1 453 15 view .LVU571
 2368 01f2 CFE7     		b	.L117
 2369              	.L122:
 464:oledlib/oled_draw.c ****     }
 465:oledlib/oled_draw.c **** }
 2370              		.loc 1 465 1 view .LVU572
 2371 01f4 07B0     		add	sp, sp, #28
 2372              	.LCFI36:
 2373              		.cfi_def_cfa_offset 36
 2374              	.LVL275:
 2375              		.loc 1 465 1 view .LVU573
 2376              		@ sp needed
 2377 01f6 BDE8F08F 		pop	{r4, r5, r6, r7, r8, r9, r10, fp, pc}
 2378              	.LVL276:
 2379              	.L124:
 2380              		.loc 1 465 1 view .LVU574
 2381 01fa 00BF     		.align	2
 2382              	.L123:
 2383 01fc 0000D03F 		.word	1070596096
 2384 0200 0000E03F 		.word	1071644672
 2385              		.cfi_endproc
 2386              	.LFE23:
 2388              		.section	.text.DrawFillEllipse,"ax",%progbits
 2389              		.align	1
 2390              		.global	DrawFillEllipse
 2391              		.syntax unified
 2392              		.thumb
 2393              		.thumb_func
 2394              		.fpu softvfp
 2396              	DrawFillEllipse:
 2397              	.LVL277:
 2398              	.LFB24:
 466:oledlib/oled_draw.c **** #if 0
 467:oledlib/oled_draw.c **** void DrawFillEllipse(int xCenter,int yCenter,int Rx,int Ry)
 468:oledlib/oled_draw.c **** {		
 469:oledlib/oled_draw.c **** 			Type_color temp1=GetDrawColor();
ARM GAS  C:\Users\GKQ\AppData\Local\Temp\ccFEMZSq.s 			page 53


 470:oledlib/oled_draw.c **** 			Type_color temp2=GetFillColor();
 471:oledlib/oled_draw.c **** 			SetTempBuffer();
 472:oledlib/oled_draw.c **** 			SetDrawColor(pix_white);
 473:oledlib/oled_draw.c **** 			DrawEllipse(xCenter,yCenter,Rx,Ry);
 474:oledlib/oled_draw.c **** 			SetDrawColor(temp1);
 475:oledlib/oled_draw.c **** 			SetFillcolor(pix_white);
 476:oledlib/oled_draw.c **** 			FloodFill2(xCenter,yCenter,0,1);
 477:oledlib/oled_draw.c **** 			SetFillcolor(temp2);
 478:oledlib/oled_draw.c **** 			if(GetFillColor())
 479:oledlib/oled_draw.c **** 				TempBufferFunc(TEMPBUFF_COVER_H);
 480:oledlib/oled_draw.c **** 			else
 481:oledlib/oled_draw.c **** 				TempBufferFunc(TEMPBUFF_COVER_L);
 482:oledlib/oled_draw.c **** 			ClearTempBuffer();
 483:oledlib/oled_draw.c **** 			SetScreenBuffer();
 484:oledlib/oled_draw.c **** 			DrawEllipse(xCenter,yCenter,Rx,Ry);	
 485:oledlib/oled_draw.c **** }
 486:oledlib/oled_draw.c **** #else
 487:oledlib/oled_draw.c **** 
 488:oledlib/oled_draw.c **** void DrawFillEllipse(int x0, int y0, int rx, int ry)
 489:oledlib/oled_draw.c **** {
 2399              		.loc 1 489 1 is_stmt 1 view -0
 2400              		.cfi_startproc
 2401              		@ args = 0, pretend = 0, frame = 40
 2402              		@ frame_needed = 0, uses_anonymous_args = 0
 2403              		.loc 1 489 1 is_stmt 0 view .LVU576
 2404 0000 2DE9F04F 		push	{r4, r5, r6, r7, r8, r9, r10, fp, lr}
 2405              	.LCFI37:
 2406              		.cfi_def_cfa_offset 36
 2407              		.cfi_offset 4, -36
 2408              		.cfi_offset 5, -32
 2409              		.cfi_offset 6, -28
 2410              		.cfi_offset 7, -24
 2411              		.cfi_offset 8, -20
 2412              		.cfi_offset 9, -16
 2413              		.cfi_offset 10, -12
 2414              		.cfi_offset 11, -8
 2415              		.cfi_offset 14, -4
 2416 0004 8BB0     		sub	sp, sp, #44
 2417              	.LCFI38:
 2418              		.cfi_def_cfa_offset 80
 2419 0006 0190     		str	r0, [sp, #4]
 2420 0008 8B46     		mov	fp, r1
 2421 000a 0992     		str	r2, [sp, #36]
 2422 000c 0293     		str	r3, [sp, #8]
 490:oledlib/oled_draw.c ****     int x, y;
 2423              		.loc 1 490 5 is_stmt 1 view .LVU577
 491:oledlib/oled_draw.c ****     int xchg, ychg;
 2424              		.loc 1 491 5 view .LVU578
 492:oledlib/oled_draw.c ****     int err;
 2425              		.loc 1 492 5 view .LVU579
 493:oledlib/oled_draw.c ****     int rxrx2;
 2426              		.loc 1 493 5 view .LVU580
 494:oledlib/oled_draw.c ****     int ryry2;
 2427              		.loc 1 494 5 view .LVU581
 495:oledlib/oled_draw.c ****     int stopx, stopy;
 2428              		.loc 1 495 5 view .LVU582
 496:oledlib/oled_draw.c **** 
ARM GAS  C:\Users\GKQ\AppData\Local\Temp\ccFEMZSq.s 			page 54


 497:oledlib/oled_draw.c ****     rxrx2 = rx;
 2429              		.loc 1 497 5 view .LVU583
 2430              	.LVL278:
 498:oledlib/oled_draw.c ****     rxrx2 *= rx;
 2431              		.loc 1 498 5 view .LVU584
 2432              		.loc 1 498 11 is_stmt 0 view .LVU585
 2433 000e 02FB02FA 		mul	r10, r2, r2
 2434              	.LVL279:
 499:oledlib/oled_draw.c ****     rxrx2 *= 2;
 2435              		.loc 1 499 5 is_stmt 1 view .LVU586
 2436              		.loc 1 499 11 is_stmt 0 view .LVU587
 2437 0012 4FEA4A00 		lsl	r0, r10, #1
 2438              	.LVL280:
 2439              		.loc 1 499 11 view .LVU588
 2440 0016 0690     		str	r0, [sp, #24]
 2441              	.LVL281:
 500:oledlib/oled_draw.c **** 
 501:oledlib/oled_draw.c ****     ryry2 = ry;
 2442              		.loc 1 501 5 is_stmt 1 view .LVU589
 502:oledlib/oled_draw.c ****     ryry2 *= ry;
 2443              		.loc 1 502 5 view .LVU590
 2444              		.loc 1 502 11 is_stmt 0 view .LVU591
 2445 0018 1946     		mov	r1, r3
 2446              	.LVL282:
 2447              		.loc 1 502 11 view .LVU592
 2448 001a 03FB03F3 		mul	r3, r3, r3
 2449              	.LVL283:
 2450              		.loc 1 502 11 view .LVU593
 2451 001e 0593     		str	r3, [sp, #20]
 2452              	.LVL284:
 503:oledlib/oled_draw.c ****     ryry2 *= 2;
 2453              		.loc 1 503 5 is_stmt 1 view .LVU594
 2454              		.loc 1 503 11 is_stmt 0 view .LVU595
 2455 0020 5800     		lsls	r0, r3, #1
 2456              	.LVL285:
 2457              		.loc 1 503 11 view .LVU596
 2458 0022 0890     		str	r0, [sp, #32]
 2459              	.LVL286:
 504:oledlib/oled_draw.c **** 
 505:oledlib/oled_draw.c ****     x = rx;
 2460              		.loc 1 505 5 is_stmt 1 view .LVU597
 506:oledlib/oled_draw.c ****     y = 0;
 2461              		.loc 1 506 5 view .LVU598
 507:oledlib/oled_draw.c **** 
 508:oledlib/oled_draw.c ****     xchg = 1;
 2462              		.loc 1 508 5 view .LVU599
 509:oledlib/oled_draw.c ****     xchg -= rx;
 2463              		.loc 1 509 5 view .LVU600
 2464              		.loc 1 509 10 is_stmt 0 view .LVU601
 2465 0024 C2F10103 		rsb	r3, r2, #1
 2466              	.LVL287:
 510:oledlib/oled_draw.c ****     xchg -= rx;
 2467              		.loc 1 510 5 is_stmt 1 view .LVU602
 2468              		.loc 1 510 10 is_stmt 0 view .LVU603
 2469 0028 9B1A     		subs	r3, r3, r2
 2470              	.LVL288:
 511:oledlib/oled_draw.c ****     xchg *= ry;
ARM GAS  C:\Users\GKQ\AppData\Local\Temp\ccFEMZSq.s 			page 55


 2471              		.loc 1 511 5 is_stmt 1 view .LVU604
 2472              		.loc 1 511 10 is_stmt 0 view .LVU605
 2473 002a 03FB01F3 		mul	r3, r3, r1
 2474              	.LVL289:
 512:oledlib/oled_draw.c ****     xchg *= ry;
 2475              		.loc 1 512 5 is_stmt 1 view .LVU606
 2476              		.loc 1 512 10 is_stmt 0 view .LVU607
 2477 002e 03FB01F3 		mul	r3, r3, r1
 2478              	.LVL290:
 2479              		.loc 1 512 10 view .LVU608
 2480 0032 0793     		str	r3, [sp, #28]
 2481              	.LVL291:
 513:oledlib/oled_draw.c **** 
 514:oledlib/oled_draw.c ****     ychg = rx;
 2482              		.loc 1 514 5 is_stmt 1 view .LVU609
 515:oledlib/oled_draw.c ****     ychg *= rx;
 2483              		.loc 1 515 5 view .LVU610
 516:oledlib/oled_draw.c **** 
 517:oledlib/oled_draw.c ****     err = 0;
 2484              		.loc 1 517 5 view .LVU611
 518:oledlib/oled_draw.c **** 
 519:oledlib/oled_draw.c ****     stopx = ryry2;
 2485              		.loc 1 519 5 view .LVU612
 520:oledlib/oled_draw.c ****     stopx *= rx;
 2486              		.loc 1 520 5 view .LVU613
 2487              		.loc 1 520 11 is_stmt 0 view .LVU614
 2488 0034 1346     		mov	r3, r2
 2489              	.LVL292:
 2490              		.loc 1 520 11 view .LVU615
 2491 0036 00FB03F3 		mul	r3, r0, r3
 2492 003a 0493     		str	r3, [sp, #16]
 2493              	.LVL293:
 521:oledlib/oled_draw.c ****     stopy = 0;
 2494              		.loc 1 521 5 is_stmt 1 view .LVU616
 522:oledlib/oled_draw.c **** 
 523:oledlib/oled_draw.c ****     while (stopx >= stopy)
 2495              		.loc 1 523 5 view .LVU617
 505:oledlib/oled_draw.c ****     y = 0;
 2496              		.loc 1 505 7 is_stmt 0 view .LVU618
 2497 003c 0392     		str	r2, [sp, #12]
 521:oledlib/oled_draw.c ****     stopy = 0;
 2498              		.loc 1 521 11 view .LVU619
 2499 003e 4FF00009 		mov	r9, #0
 517:oledlib/oled_draw.c **** 
 2500              		.loc 1 517 9 view .LVU620
 2501 0042 4F46     		mov	r7, r9
 506:oledlib/oled_draw.c **** 
 2502              		.loc 1 506 7 view .LVU621
 2503 0044 C846     		mov	r8, r9
 2504              	.LVL294:
 2505              	.L126:
 2506              		.loc 1 523 11 is_stmt 1 view .LVU622
 2507 0046 049B     		ldr	r3, [sp, #16]
 2508 0048 4B45     		cmp	r3, r9
 2509 004a 35DB     		blt	.L133
 524:oledlib/oled_draw.c ****     {
 525:oledlib/oled_draw.c **** 
ARM GAS  C:\Users\GKQ\AppData\Local\Temp\ccFEMZSq.s 			page 56


 526:oledlib/oled_draw.c ****         DrawFastVLine(x0 + x, y0 - y, y + 1);
 2510              		.loc 1 526 9 view .LVU623
 2511 004c 039B     		ldr	r3, [sp, #12]
 2512 004e 019A     		ldr	r2, [sp, #4]
 2513 0050 9E18     		adds	r6, r3, r2
 2514 0052 ABEB0805 		sub	r5, fp, r8
 2515 0056 08F10104 		add	r4, r8, #1
 2516 005a E4B2     		uxtb	r4, r4
 2517 005c 2246     		mov	r2, r4
 2518 005e 2946     		mov	r1, r5
 2519 0060 3046     		mov	r0, r6
 2520 0062 FFF7FEFF 		bl	DrawFastVLine
 2521              	.LVL295:
 527:oledlib/oled_draw.c ****         DrawFastVLine(x0 - x, y0 - y, y + 1);
 2522              		.loc 1 527 9 view .LVU624
 2523 0066 019A     		ldr	r2, [sp, #4]
 2524 0068 039B     		ldr	r3, [sp, #12]
 2525 006a D31A     		subs	r3, r2, r3
 2526 006c 2246     		mov	r2, r4
 2527 006e 2946     		mov	r1, r5
 2528 0070 1D46     		mov	r5, r3
 2529 0072 1846     		mov	r0, r3
 2530 0074 FFF7FEFF 		bl	DrawFastVLine
 2531              	.LVL296:
 528:oledlib/oled_draw.c ****         DrawFastVLine(x0 + x, y0, y + 1);
 2532              		.loc 1 528 9 view .LVU625
 2533 0078 2246     		mov	r2, r4
 2534 007a 5946     		mov	r1, fp
 2535 007c 3046     		mov	r0, r6
 2536 007e FFF7FEFF 		bl	DrawFastVLine
 2537              	.LVL297:
 529:oledlib/oled_draw.c ****         DrawFastVLine(x0 - x, y0, y + 1);
 2538              		.loc 1 529 9 view .LVU626
 2539 0082 2246     		mov	r2, r4
 2540 0084 5946     		mov	r1, fp
 2541 0086 2846     		mov	r0, r5
 2542 0088 FFF7FEFF 		bl	DrawFastVLine
 2543              	.LVL298:
 530:oledlib/oled_draw.c ****         //draw_filled_ellipse_section(u8g, x, y, x0, y0, option);
 531:oledlib/oled_draw.c ****         y++;
 2544              		.loc 1 531 9 view .LVU627
 2545              		.loc 1 531 10 is_stmt 0 view .LVU628
 2546 008c 08F10108 		add	r8, r8, #1
 2547              	.LVL299:
 532:oledlib/oled_draw.c ****         stopy += rxrx2;
 2548              		.loc 1 532 9 is_stmt 1 view .LVU629
 2549              		.loc 1 532 15 is_stmt 0 view .LVU630
 2550 0090 069A     		ldr	r2, [sp, #24]
 2551 0092 9144     		add	r9, r9, r2
 2552              	.LVL300:
 533:oledlib/oled_draw.c ****         err += ychg;
 2553              		.loc 1 533 9 is_stmt 1 view .LVU631
 2554              		.loc 1 533 13 is_stmt 0 view .LVU632
 2555 0094 5744     		add	r7, r7, r10
 2556              	.LVL301:
 534:oledlib/oled_draw.c ****         ychg += rxrx2;
 2557              		.loc 1 534 9 is_stmt 1 view .LVU633
ARM GAS  C:\Users\GKQ\AppData\Local\Temp\ccFEMZSq.s 			page 57


 2558              		.loc 1 534 14 is_stmt 0 view .LVU634
 2559 0096 9244     		add	r10, r10, r2
 2560              	.LVL302:
 535:oledlib/oled_draw.c ****         if (2 * err + xchg > 0)
 2561              		.loc 1 535 9 is_stmt 1 view .LVU635
 2562              		.loc 1 535 21 is_stmt 0 view .LVU636
 2563 0098 079A     		ldr	r2, [sp, #28]
 2564 009a 02EB4703 		add	r3, r2, r7, lsl #1
 2565              		.loc 1 535 12 view .LVU637
 2566 009e 002B     		cmp	r3, #0
 2567 00a0 D1DD     		ble	.L126
 536:oledlib/oled_draw.c ****         {
 537:oledlib/oled_draw.c ****             x--;
 2568              		.loc 1 537 13 is_stmt 1 view .LVU638
 2569              		.loc 1 537 14 is_stmt 0 view .LVU639
 2570 00a2 039B     		ldr	r3, [sp, #12]
 2571 00a4 013B     		subs	r3, r3, #1
 2572 00a6 0393     		str	r3, [sp, #12]
 2573              	.LVL303:
 538:oledlib/oled_draw.c ****             stopx -= ryry2;
 2574              		.loc 1 538 13 is_stmt 1 view .LVU640
 2575              		.loc 1 538 19 is_stmt 0 view .LVU641
 2576 00a8 049B     		ldr	r3, [sp, #16]
 2577              	.LVL304:
 2578              		.loc 1 538 19 view .LVU642
 2579 00aa 0899     		ldr	r1, [sp, #32]
 2580 00ac 5B1A     		subs	r3, r3, r1
 2581 00ae 0493     		str	r3, [sp, #16]
 2582              	.LVL305:
 539:oledlib/oled_draw.c ****             err += xchg;
 2583              		.loc 1 539 13 is_stmt 1 view .LVU643
 2584              		.loc 1 539 17 is_stmt 0 view .LVU644
 2585 00b0 1744     		add	r7, r7, r2
 2586              	.LVL306:
 540:oledlib/oled_draw.c ****             xchg += ryry2;
 2587              		.loc 1 540 13 is_stmt 1 view .LVU645
 2588              		.loc 1 540 18 is_stmt 0 view .LVU646
 2589 00b2 5318     		adds	r3, r2, r1
 2590              	.LVL307:
 2591              		.loc 1 540 18 view .LVU647
 2592 00b4 0793     		str	r3, [sp, #28]
 2593              	.LVL308:
 2594              		.loc 1 540 18 view .LVU648
 2595 00b6 C6E7     		b	.L126
 2596              	.LVL309:
 2597              	.L133:
 541:oledlib/oled_draw.c ****         }
 542:oledlib/oled_draw.c ****     }
 543:oledlib/oled_draw.c **** 
 544:oledlib/oled_draw.c ****     x = 0;
 2598              		.loc 1 544 5 is_stmt 1 view .LVU649
 545:oledlib/oled_draw.c ****     y = ry;
 2599              		.loc 1 545 5 view .LVU650
 546:oledlib/oled_draw.c **** 
 547:oledlib/oled_draw.c ****     xchg = ry;
 2600              		.loc 1 547 5 view .LVU651
 548:oledlib/oled_draw.c ****     xchg *= ry;
ARM GAS  C:\Users\GKQ\AppData\Local\Temp\ccFEMZSq.s 			page 58


 2601              		.loc 1 548 5 view .LVU652
 549:oledlib/oled_draw.c **** 
 550:oledlib/oled_draw.c ****     ychg = 1;
 2602              		.loc 1 550 5 view .LVU653
 551:oledlib/oled_draw.c ****     ychg -= ry;
 2603              		.loc 1 551 5 view .LVU654
 2604              		.loc 1 551 10 is_stmt 0 view .LVU655
 2605 00b8 029B     		ldr	r3, [sp, #8]
 2606              	.LVL310:
 2607              		.loc 1 551 10 view .LVU656
 2608 00ba C3F10108 		rsb	r8, r3, #1
 2609              	.LVL311:
 552:oledlib/oled_draw.c ****     ychg -= ry;
 2610              		.loc 1 552 5 is_stmt 1 view .LVU657
 2611              		.loc 1 552 10 is_stmt 0 view .LVU658
 2612 00be A8EB0308 		sub	r8, r8, r3
 2613              	.LVL312:
 553:oledlib/oled_draw.c ****     ychg *= rx;
 2614              		.loc 1 553 5 is_stmt 1 view .LVU659
 2615              		.loc 1 553 10 is_stmt 0 view .LVU660
 2616 00c2 099A     		ldr	r2, [sp, #36]
 2617 00c4 08FB02F8 		mul	r8, r8, r2
 2618              	.LVL313:
 554:oledlib/oled_draw.c ****     ychg *= rx;
 2619              		.loc 1 554 5 is_stmt 1 view .LVU661
 2620              		.loc 1 554 10 is_stmt 0 view .LVU662
 2621 00c8 08FB02F8 		mul	r8, r8, r2
 2622              	.LVL314:
 555:oledlib/oled_draw.c **** 
 556:oledlib/oled_draw.c ****     err = 0;
 2623              		.loc 1 556 5 is_stmt 1 view .LVU663
 557:oledlib/oled_draw.c **** 
 558:oledlib/oled_draw.c ****     stopx = 0;
 2624              		.loc 1 558 5 view .LVU664
 559:oledlib/oled_draw.c **** 
 560:oledlib/oled_draw.c ****     stopy = rxrx2;
 2625              		.loc 1 560 5 view .LVU665
 561:oledlib/oled_draw.c ****     stopy *= ry;
 2626              		.loc 1 561 5 view .LVU666
 2627              		.loc 1 561 11 is_stmt 0 view .LVU667
 2628 00cc 069A     		ldr	r2, [sp, #24]
 2629 00ce 03FB02F3 		mul	r3, r3, r2
 2630 00d2 0393     		str	r3, [sp, #12]
 2631              	.LVL315:
 562:oledlib/oled_draw.c **** 
 563:oledlib/oled_draw.c ****     while (stopx <= stopy)
 2632              		.loc 1 563 5 is_stmt 1 view .LVU668
 558:oledlib/oled_draw.c **** 
 2633              		.loc 1 558 11 is_stmt 0 view .LVU669
 2634 00d4 4FF00009 		mov	r9, #0
 556:oledlib/oled_draw.c **** 
 2635              		.loc 1 556 9 view .LVU670
 2636 00d8 4E46     		mov	r6, r9
 544:oledlib/oled_draw.c ****     y = ry;
 2637              		.loc 1 544 7 view .LVU671
 2638 00da 4F46     		mov	r7, r9
 2639              	.LVL316:
ARM GAS  C:\Users\GKQ\AppData\Local\Temp\ccFEMZSq.s 			page 59


 2640              	.L129:
 2641              		.loc 1 563 11 is_stmt 1 view .LVU672
 2642 00dc 039B     		ldr	r3, [sp, #12]
 2643 00de 9945     		cmp	r9, r3
 2644 00e0 32DC     		bgt	.L134
 564:oledlib/oled_draw.c ****     {
 565:oledlib/oled_draw.c ****         DrawFastVLine(x0 + x, y0 - y, y + 1);
 2645              		.loc 1 565 9 view .LVU673
 2646 00e2 019B     		ldr	r3, [sp, #4]
 2647 00e4 F818     		adds	r0, r7, r3
 2648 00e6 029B     		ldr	r3, [sp, #8]
 2649 00e8 ABEB0305 		sub	r5, fp, r3
 2650 00ec 5C1C     		adds	r4, r3, #1
 2651 00ee E4B2     		uxtb	r4, r4
 2652 00f0 2246     		mov	r2, r4
 2653 00f2 2946     		mov	r1, r5
 2654 00f4 0490     		str	r0, [sp, #16]
 2655 00f6 FFF7FEFF 		bl	DrawFastVLine
 2656              	.LVL317:
 566:oledlib/oled_draw.c ****         DrawFastVLine(x0 - x, y0 - y, y + 1);
 2657              		.loc 1 566 9 view .LVU674
 2658 00fa 019A     		ldr	r2, [sp, #4]
 2659 00fc A2EB070A 		sub	r10, r2, r7
 2660 0100 2246     		mov	r2, r4
 2661 0102 2946     		mov	r1, r5
 2662 0104 5046     		mov	r0, r10
 2663 0106 FFF7FEFF 		bl	DrawFastVLine
 2664              	.LVL318:
 567:oledlib/oled_draw.c ****         DrawFastVLine(x0 + x, y0, y + 1);
 2665              		.loc 1 567 9 view .LVU675
 2666 010a 2246     		mov	r2, r4
 2667 010c 5946     		mov	r1, fp
 2668 010e 0498     		ldr	r0, [sp, #16]
 2669 0110 FFF7FEFF 		bl	DrawFastVLine
 2670              	.LVL319:
 568:oledlib/oled_draw.c ****         DrawFastVLine(x0 - x, y0, y + 1);
 2671              		.loc 1 568 9 view .LVU676
 2672 0114 2246     		mov	r2, r4
 2673 0116 5946     		mov	r1, fp
 2674 0118 5046     		mov	r0, r10
 2675 011a FFF7FEFF 		bl	DrawFastVLine
 2676              	.LVL320:
 569:oledlib/oled_draw.c ****         // u8g_draw_filled_ellipse_section(u8g, x, y, x0, y0, option);
 570:oledlib/oled_draw.c ****         x++;
 2677              		.loc 1 570 9 view .LVU677
 2678              		.loc 1 570 10 is_stmt 0 view .LVU678
 2679 011e 0137     		adds	r7, r7, #1
 2680              	.LVL321:
 571:oledlib/oled_draw.c ****         stopx += ryry2;
 2681              		.loc 1 571 9 is_stmt 1 view .LVU679
 2682              		.loc 1 571 15 is_stmt 0 view .LVU680
 2683 0120 089A     		ldr	r2, [sp, #32]
 2684 0122 9144     		add	r9, r9, r2
 2685              	.LVL322:
 572:oledlib/oled_draw.c ****         err += xchg;
 2686              		.loc 1 572 9 is_stmt 1 view .LVU681
 2687              		.loc 1 572 13 is_stmt 0 view .LVU682
ARM GAS  C:\Users\GKQ\AppData\Local\Temp\ccFEMZSq.s 			page 60


 2688 0124 0599     		ldr	r1, [sp, #20]
 2689 0126 0E44     		add	r6, r6, r1
 2690              	.LVL323:
 573:oledlib/oled_draw.c ****         xchg += ryry2;
 2691              		.loc 1 573 9 is_stmt 1 view .LVU683
 2692              		.loc 1 573 14 is_stmt 0 view .LVU684
 2693 0128 8A18     		adds	r2, r1, r2
 2694 012a 0592     		str	r2, [sp, #20]
 2695              	.LVL324:
 574:oledlib/oled_draw.c ****         if (2 * err + ychg > 0)
 2696              		.loc 1 574 9 is_stmt 1 view .LVU685
 2697              		.loc 1 574 21 is_stmt 0 view .LVU686
 2698 012c 08EB4603 		add	r3, r8, r6, lsl #1
 2699              		.loc 1 574 12 view .LVU687
 2700 0130 002B     		cmp	r3, #0
 2701 0132 D3DD     		ble	.L129
 575:oledlib/oled_draw.c ****         {
 576:oledlib/oled_draw.c ****             y--;
 2702              		.loc 1 576 13 is_stmt 1 view .LVU688
 2703              		.loc 1 576 14 is_stmt 0 view .LVU689
 2704 0134 029B     		ldr	r3, [sp, #8]
 2705 0136 013B     		subs	r3, r3, #1
 2706 0138 0293     		str	r3, [sp, #8]
 2707              	.LVL325:
 577:oledlib/oled_draw.c ****             stopy -= rxrx2;
 2708              		.loc 1 577 13 is_stmt 1 view .LVU690
 2709              		.loc 1 577 19 is_stmt 0 view .LVU691
 2710 013a 039A     		ldr	r2, [sp, #12]
 2711              	.LVL326:
 2712              		.loc 1 577 19 view .LVU692
 2713 013c 069B     		ldr	r3, [sp, #24]
 2714              	.LVL327:
 2715              		.loc 1 577 19 view .LVU693
 2716 013e D21A     		subs	r2, r2, r3
 2717 0140 0392     		str	r2, [sp, #12]
 2718              	.LVL328:
 578:oledlib/oled_draw.c ****             err += ychg;
 2719              		.loc 1 578 13 is_stmt 1 view .LVU694
 2720              		.loc 1 578 17 is_stmt 0 view .LVU695
 2721 0142 4644     		add	r6, r6, r8
 2722              	.LVL329:
 579:oledlib/oled_draw.c ****             ychg += rxrx2;
 2723              		.loc 1 579 13 is_stmt 1 view .LVU696
 2724              		.loc 1 579 18 is_stmt 0 view .LVU697
 2725 0144 9844     		add	r8, r8, r3
 2726              	.LVL330:
 2727              		.loc 1 579 18 view .LVU698
 2728 0146 C9E7     		b	.L129
 2729              	.LVL331:
 2730              	.L134:
 580:oledlib/oled_draw.c ****         }
 581:oledlib/oled_draw.c ****     }
 582:oledlib/oled_draw.c **** }
 2731              		.loc 1 582 1 view .LVU699
 2732 0148 0BB0     		add	sp, sp, #44
 2733              	.LCFI39:
 2734              		.cfi_def_cfa_offset 36
ARM GAS  C:\Users\GKQ\AppData\Local\Temp\ccFEMZSq.s 			page 61


 2735              		@ sp needed
 2736 014a BDE8F08F 		pop	{r4, r5, r6, r7, r8, r9, r10, fp, pc}
 2737              		.loc 1 582 1 view .LVU700
 2738              		.cfi_endproc
 2739              	.LFE24:
 2741              		.section	.text.DrawEllipseRect,"ax",%progbits
 2742              		.align	1
 2743              		.global	DrawEllipseRect
 2744              		.syntax unified
 2745              		.thumb
 2746              		.thumb_func
 2747              		.fpu softvfp
 2749              	DrawEllipseRect:
 2750              	.LVL332:
 2751              	.LFB25:
 583:oledlib/oled_draw.c **** #endif
 584:oledlib/oled_draw.c **** 
 585:oledlib/oled_draw.c **** void DrawEllipseRect(int x0, int y0, int x1, int y1)
 586:oledlib/oled_draw.c **** {
 2752              		.loc 1 586 1 is_stmt 1 view -0
 2753              		.cfi_startproc
 2754              		@ args = 0, pretend = 0, frame = 8
 2755              		@ frame_needed = 0, uses_anonymous_args = 0
 2756              		.loc 1 586 1 is_stmt 0 view .LVU702
 2757 0000 2DE9F04F 		push	{r4, r5, r6, r7, r8, r9, r10, fp, lr}
 2758              	.LCFI40:
 2759              		.cfi_def_cfa_offset 36
 2760              		.cfi_offset 4, -36
 2761              		.cfi_offset 5, -32
 2762              		.cfi_offset 6, -28
 2763              		.cfi_offset 7, -24
 2764              		.cfi_offset 8, -20
 2765              		.cfi_offset 9, -16
 2766              		.cfi_offset 10, -12
 2767              		.cfi_offset 11, -8
 2768              		.cfi_offset 14, -4
 2769 0004 83B0     		sub	sp, sp, #12
 2770              	.LCFI41:
 2771              		.cfi_def_cfa_offset 48
 2772 0006 0746     		mov	r7, r0
 2773 0008 1646     		mov	r6, r2
 587:oledlib/oled_draw.c ****     int a = abs(x1 - x0);
 2774              		.loc 1 587 5 is_stmt 1 view .LVU703
 2775              		.loc 1 587 20 is_stmt 0 view .LVU704
 2776 000a 101A     		subs	r0, r2, r0
 2777              	.LVL333:
 2778              		.loc 1 587 9 view .LVU705
 2779 000c 80EAE072 		eor	r2, r0, r0, asr #31
 2780              	.LVL334:
 2781              		.loc 1 587 9 view .LVU706
 2782 0010 A2EBE072 		sub	r2, r2, r0, asr #31
 2783              	.LVL335:
 588:oledlib/oled_draw.c ****     int b = abs(y1 - y0); //get diameters
 2784              		.loc 1 588 5 is_stmt 1 view .LVU707
 2785              		.loc 1 588 20 is_stmt 0 view .LVU708
 2786 0014 A3EB010C 		sub	ip, r3, r1
 2787              		.loc 1 588 9 view .LVU709
ARM GAS  C:\Users\GKQ\AppData\Local\Temp\ccFEMZSq.s 			page 62


 2788 0018 8CEAEC7B 		eor	fp, ip, ip, asr #31
 2789 001c ABEBEC7B 		sub	fp, fp, ip, asr #31
 2790              	.LVL336:
 589:oledlib/oled_draw.c ****     int b1 = b & 1;
 2791              		.loc 1 589 5 is_stmt 1 view .LVU710
 2792              		.loc 1 589 9 is_stmt 0 view .LVU711
 2793 0020 0BF00105 		and	r5, fp, #1
 2794              	.LVL337:
 590:oledlib/oled_draw.c ****     long dx = 4 * (1 - a) * b * b;
 2795              		.loc 1 590 5 is_stmt 1 view .LVU712
 2796              		.loc 1 590 22 is_stmt 0 view .LVU713
 2797 0024 C2F10108 		rsb	r8, r2, #1
 2798              		.loc 1 590 27 view .LVU714
 2799 0028 0BFB08F8 		mul	r8, fp, r8
 2800              		.loc 1 590 31 view .LVU715
 2801 002c 0BFB08F8 		mul	r8, fp, r8
 2802              		.loc 1 590 10 view .LVU716
 2803 0030 4FEA880A 		lsl	r10, r8, #2
 2804              	.LVL338:
 591:oledlib/oled_draw.c ****     long dy = 4 * (b1 + 1) * a * a;
 2805              		.loc 1 591 5 is_stmt 1 view .LVU717
 2806              		.loc 1 591 28 is_stmt 0 view .LVU718
 2807 0034 05FB0229 		mla	r9, r5, r2, r2
 2808              		.loc 1 591 32 view .LVU719
 2809 0038 02FB09F9 		mul	r9, r2, r9
 2810              		.loc 1 591 10 view .LVU720
 2811 003c 4FEA8909 		lsl	r9, r9, #2
 2812              	.LVL339:
 592:oledlib/oled_draw.c ****     long err = dx + dy + b1 * a * a;
 2813              		.loc 1 592 5 is_stmt 1 view .LVU721
 2814              		.loc 1 592 19 is_stmt 0 view .LVU722
 2815 0040 09EB8808 		add	r8, r9, r8, lsl #2
 2816              		.loc 1 592 29 view .LVU723
 2817 0044 05FB02F4 		mul	r4, r5, r2
 2818              		.loc 1 592 10 view .LVU724
 2819 0048 02FB0488 		mla	r8, r2, r4, r8
 2820              	.LVL340:
 593:oledlib/oled_draw.c ****     long e2;
 2821              		.loc 1 593 5 is_stmt 1 view .LVU725
 594:oledlib/oled_draw.c **** 
 595:oledlib/oled_draw.c ****     if (x0 > x1)
 2822              		.loc 1 595 5 view .LVU726
 2823              		.loc 1 595 8 is_stmt 0 view .LVU727
 2824 004c BE42     		cmp	r6, r7
 2825 004e 01DA     		bge	.L136
 596:oledlib/oled_draw.c ****     {
 597:oledlib/oled_draw.c ****         x0 = x1;
 2826              		.loc 1 597 9 is_stmt 1 view .LVU728
 2827              	.LVL341:
 598:oledlib/oled_draw.c ****         x1 += a;
 2828              		.loc 1 598 9 view .LVU729
 597:oledlib/oled_draw.c ****         x1 += a;
 2829              		.loc 1 597 12 is_stmt 0 view .LVU730
 2830 0050 3746     		mov	r7, r6
 2831              		.loc 1 598 12 view .LVU731
 2832 0052 1644     		add	r6, r6, r2
 2833              	.LVL342:
ARM GAS  C:\Users\GKQ\AppData\Local\Temp\ccFEMZSq.s 			page 63


 2834              	.L136:
 599:oledlib/oled_draw.c ****     }
 600:oledlib/oled_draw.c ****     if (y0 > y1)
 2835              		.loc 1 600 5 is_stmt 1 view .LVU732
 2836              		.loc 1 600 8 is_stmt 0 view .LVU733
 2837 0054 8B42     		cmp	r3, r1
 2838 0056 00DB     		blt	.L137
 2839              		.loc 1 600 8 view .LVU734
 2840 0058 0B46     		mov	r3, r1
 2841              	.LVL343:
 2842              	.L137:
 601:oledlib/oled_draw.c ****     {
 602:oledlib/oled_draw.c ****         y0 = y1;
 603:oledlib/oled_draw.c ****     }
 604:oledlib/oled_draw.c ****     y0 += (b + 1) / 2;
 2843              		.loc 1 604 5 is_stmt 1 view .LVU735
 2844              		.loc 1 604 14 is_stmt 0 view .LVU736
 2845 005a 0BF10104 		add	r4, fp, #1
 2846              		.loc 1 604 19 view .LVU737
 2847 005e 04EBD474 		add	r4, r4, r4, lsr #31
 2848              		.loc 1 604 8 view .LVU738
 2849 0062 03EB6404 		add	r4, r3, r4, asr #1
 2850              	.LVL344:
 605:oledlib/oled_draw.c ****     y1 = y0 - b1;
 2851              		.loc 1 605 5 is_stmt 1 view .LVU739
 2852              		.loc 1 605 8 is_stmt 0 view .LVU740
 2853 0066 651B     		subs	r5, r4, r5
 2854              	.LVL345:
 606:oledlib/oled_draw.c ****     a *= 8 * a;
 2855              		.loc 1 606 5 is_stmt 1 view .LVU741
 2856              		.loc 1 606 7 is_stmt 0 view .LVU742
 2857 0068 00FB00F0 		mul	r0, r0, r0
 2858 006c C300     		lsls	r3, r0, #3
 2859 006e 0093     		str	r3, [sp]
 2860              	.LVL346:
 607:oledlib/oled_draw.c ****     b1 = 8 * b * b;
 2861              		.loc 1 607 5 is_stmt 1 view .LVU743
 2862              		.loc 1 607 16 is_stmt 0 view .LVU744
 2863 0070 0CFB0CF3 		mul	r3, ip, ip
 2864              	.LVL347:
 2865              		.loc 1 607 8 view .LVU745
 2866 0074 DB00     		lsls	r3, r3, #3
 2867 0076 0193     		str	r3, [sp, #4]
 2868              	.LVL348:
 2869              		.loc 1 607 8 view .LVU746
 2870 0078 01E0     		b	.L140
 2871              	.LVL349:
 2872              	.L139:
 608:oledlib/oled_draw.c **** 
 609:oledlib/oled_draw.c ****     do
 610:oledlib/oled_draw.c ****     {
 611:oledlib/oled_draw.c ****         DrawPixel(x1, y0);
 612:oledlib/oled_draw.c ****         DrawPixel(x0, y0);
 613:oledlib/oled_draw.c ****         DrawPixel(x0, y1);
 614:oledlib/oled_draw.c ****         DrawPixel(x1, y1);
 615:oledlib/oled_draw.c ****         e2 = 2 * err;
 616:oledlib/oled_draw.c ****         if (e2 >= dx)
ARM GAS  C:\Users\GKQ\AppData\Local\Temp\ccFEMZSq.s 			page 64


 617:oledlib/oled_draw.c ****         {
 618:oledlib/oled_draw.c ****             x0++;
 619:oledlib/oled_draw.c ****             x1--;
 620:oledlib/oled_draw.c ****             err += dx += b1;
 621:oledlib/oled_draw.c ****         }
 622:oledlib/oled_draw.c ****         if (e2 <= dy)
 623:oledlib/oled_draw.c ****         {
 624:oledlib/oled_draw.c ****             y0++;
 625:oledlib/oled_draw.c ****             y1--;
 626:oledlib/oled_draw.c ****             err += dy += a;
 627:oledlib/oled_draw.c ****         }
 628:oledlib/oled_draw.c ****     } while (x0 <= x1);
 2873              		.loc 1 628 13 is_stmt 1 view .LVU747
 2874              		.loc 1 628 5 is_stmt 0 view .LVU748
 2875 007a B742     		cmp	r7, r6
 2876 007c 3BDC     		bgt	.L141
 2877              	.L140:
 609:oledlib/oled_draw.c ****     {
 2878              		.loc 1 609 5 is_stmt 1 view .LVU749
 611:oledlib/oled_draw.c ****         DrawPixel(x0, y0);
 2879              		.loc 1 611 9 view .LVU750
 2880 007e 2146     		mov	r1, r4
 2881 0080 3046     		mov	r0, r6
 2882 0082 FFF7FEFF 		bl	DrawPixel
 2883              	.LVL350:
 612:oledlib/oled_draw.c ****         DrawPixel(x0, y1);
 2884              		.loc 1 612 9 view .LVU751
 2885 0086 2146     		mov	r1, r4
 2886 0088 3846     		mov	r0, r7
 2887 008a FFF7FEFF 		bl	DrawPixel
 2888              	.LVL351:
 613:oledlib/oled_draw.c ****         DrawPixel(x1, y1);
 2889              		.loc 1 613 9 view .LVU752
 2890 008e 2946     		mov	r1, r5
 2891 0090 3846     		mov	r0, r7
 2892 0092 FFF7FEFF 		bl	DrawPixel
 2893              	.LVL352:
 614:oledlib/oled_draw.c ****         e2 = 2 * err;
 2894              		.loc 1 614 9 view .LVU753
 2895 0096 2946     		mov	r1, r5
 2896 0098 3046     		mov	r0, r6
 2897 009a FFF7FEFF 		bl	DrawPixel
 2898              	.LVL353:
 615:oledlib/oled_draw.c ****         if (e2 >= dx)
 2899              		.loc 1 615 9 view .LVU754
 615:oledlib/oled_draw.c ****         if (e2 >= dx)
 2900              		.loc 1 615 12 is_stmt 0 view .LVU755
 2901 009e 4FEA4803 		lsl	r3, r8, #1
 2902              	.LVL354:
 616:oledlib/oled_draw.c ****         {
 2903              		.loc 1 616 9 is_stmt 1 view .LVU756
 616:oledlib/oled_draw.c ****         {
 2904              		.loc 1 616 12 is_stmt 0 view .LVU757
 2905 00a2 BAEB480F 		cmp	r10, r8, lsl #1
 2906 00a6 04DC     		bgt	.L138
 618:oledlib/oled_draw.c ****             x1--;
 2907              		.loc 1 618 13 is_stmt 1 view .LVU758
ARM GAS  C:\Users\GKQ\AppData\Local\Temp\ccFEMZSq.s 			page 65


 618:oledlib/oled_draw.c ****             x1--;
 2908              		.loc 1 618 15 is_stmt 0 view .LVU759
 2909 00a8 0137     		adds	r7, r7, #1
 2910              	.LVL355:
 619:oledlib/oled_draw.c ****             err += dx += b1;
 2911              		.loc 1 619 13 is_stmt 1 view .LVU760
 619:oledlib/oled_draw.c ****             err += dx += b1;
 2912              		.loc 1 619 15 is_stmt 0 view .LVU761
 2913 00aa 013E     		subs	r6, r6, #1
 2914              	.LVL356:
 620:oledlib/oled_draw.c ****         }
 2915              		.loc 1 620 13 is_stmt 1 view .LVU762
 620:oledlib/oled_draw.c ****         }
 2916              		.loc 1 620 23 is_stmt 0 view .LVU763
 2917 00ac 019A     		ldr	r2, [sp, #4]
 2918 00ae 9244     		add	r10, r10, r2
 2919              	.LVL357:
 620:oledlib/oled_draw.c ****         }
 2920              		.loc 1 620 17 view .LVU764
 2921 00b0 D044     		add	r8, r8, r10
 2922              	.LVL358:
 2923              	.L138:
 622:oledlib/oled_draw.c ****         {
 2924              		.loc 1 622 9 is_stmt 1 view .LVU765
 622:oledlib/oled_draw.c ****         {
 2925              		.loc 1 622 12 is_stmt 0 view .LVU766
 2926 00b2 9945     		cmp	r9, r3
 2927 00b4 E1DB     		blt	.L139
 624:oledlib/oled_draw.c ****             y1--;
 2928              		.loc 1 624 13 is_stmt 1 view .LVU767
 624:oledlib/oled_draw.c ****             y1--;
 2929              		.loc 1 624 15 is_stmt 0 view .LVU768
 2930 00b6 0134     		adds	r4, r4, #1
 2931              	.LVL359:
 625:oledlib/oled_draw.c ****             err += dy += a;
 2932              		.loc 1 625 13 is_stmt 1 view .LVU769
 625:oledlib/oled_draw.c ****             err += dy += a;
 2933              		.loc 1 625 15 is_stmt 0 view .LVU770
 2934 00b8 013D     		subs	r5, r5, #1
 2935              	.LVL360:
 626:oledlib/oled_draw.c ****         }
 2936              		.loc 1 626 13 is_stmt 1 view .LVU771
 626:oledlib/oled_draw.c ****         }
 2937              		.loc 1 626 23 is_stmt 0 view .LVU772
 2938 00ba 009B     		ldr	r3, [sp]
 2939              	.LVL361:
 626:oledlib/oled_draw.c ****         }
 2940              		.loc 1 626 23 view .LVU773
 2941 00bc 9944     		add	r9, r9, r3
 2942              	.LVL362:
 626:oledlib/oled_draw.c ****         }
 2943              		.loc 1 626 17 view .LVU774
 2944 00be C844     		add	r8, r8, r9
 2945              	.LVL363:
 626:oledlib/oled_draw.c ****         }
 2946              		.loc 1 626 17 view .LVU775
 2947 00c0 DBE7     		b	.L139
ARM GAS  C:\Users\GKQ\AppData\Local\Temp\ccFEMZSq.s 			page 66


 2948              	.LVL364:
 2949              	.L142:
 629:oledlib/oled_draw.c **** 
 630:oledlib/oled_draw.c ****     while (y0 - y1 < b)
 631:oledlib/oled_draw.c ****     {
 632:oledlib/oled_draw.c ****         DrawPixel(x0 - 1, y0);
 2950              		.loc 1 632 9 is_stmt 1 view .LVU776
 2951 00c2 07F1FF38 		add	r8, r7, #-1
 2952 00c6 2146     		mov	r1, r4
 2953 00c8 4046     		mov	r0, r8
 2954 00ca FFF7FEFF 		bl	DrawPixel
 2955              	.LVL365:
 633:oledlib/oled_draw.c ****         DrawPixel(x1 + 1, y0++);
 2956              		.loc 1 633 9 view .LVU777
 2957 00ce 731C     		adds	r3, r6, #1
 2958 00d0 04F10109 		add	r9, r4, #1
 2959              	.LVL366:
 2960              		.loc 1 633 9 is_stmt 0 view .LVU778
 2961 00d4 2146     		mov	r1, r4
 2962 00d6 1C46     		mov	r4, r3
 2963 00d8 1846     		mov	r0, r3
 2964 00da FFF7FEFF 		bl	DrawPixel
 2965              	.LVL367:
 634:oledlib/oled_draw.c ****         DrawPixel(x0 - 1, y1);
 2966              		.loc 1 634 9 is_stmt 1 view .LVU779
 2967 00de 2946     		mov	r1, r5
 2968 00e0 4046     		mov	r0, r8
 2969 00e2 FFF7FEFF 		bl	DrawPixel
 2970              	.LVL368:
 635:oledlib/oled_draw.c ****         DrawPixel(x1 + 1, y1--);
 2971              		.loc 1 635 9 view .LVU780
 2972 00e6 05F1FF38 		add	r8, r5, #-1
 2973              	.LVL369:
 2974              		.loc 1 635 9 is_stmt 0 view .LVU781
 2975 00ea 2946     		mov	r1, r5
 2976 00ec 2046     		mov	r0, r4
 2977 00ee FFF7FEFF 		bl	DrawPixel
 2978              	.LVL370:
 2979 00f2 4546     		mov	r5, r8
 633:oledlib/oled_draw.c ****         DrawPixel(x1 + 1, y0++);
 2980              		.loc 1 633 9 view .LVU782
 2981 00f4 4C46     		mov	r4, r9
 2982              	.LVL371:
 2983              	.L141:
 630:oledlib/oled_draw.c ****     {
 2984              		.loc 1 630 11 is_stmt 1 view .LVU783
 630:oledlib/oled_draw.c ****     {
 2985              		.loc 1 630 15 is_stmt 0 view .LVU784
 2986 00f6 631B     		subs	r3, r4, r5
 630:oledlib/oled_draw.c ****     {
 2987              		.loc 1 630 11 view .LVU785
 2988 00f8 5B45     		cmp	r3, fp
 2989 00fa E2DB     		blt	.L142
 636:oledlib/oled_draw.c ****     }
 637:oledlib/oled_draw.c **** }
 2990              		.loc 1 637 1 view .LVU786
 2991 00fc 03B0     		add	sp, sp, #12
ARM GAS  C:\Users\GKQ\AppData\Local\Temp\ccFEMZSq.s 			page 67


 2992              	.LCFI42:
 2993              		.cfi_def_cfa_offset 36
 2994              	.LVL372:
 2995              		.loc 1 637 1 view .LVU787
 2996              		@ sp needed
 2997 00fe BDE8F08F 		pop	{r4, r5, r6, r7, r8, r9, r10, fp, pc}
 2998              		.loc 1 637 1 view .LVU788
 2999              		.cfi_endproc
 3000              	.LFE25:
 3002              		.section	.text.DrawTriangle,"ax",%progbits
 3003              		.align	1
 3004              		.global	DrawTriangle
 3005              		.syntax unified
 3006              		.thumb
 3007              		.thumb_func
 3008              		.fpu softvfp
 3010              	DrawTriangle:
 3011              	.LVL373:
 3012              	.LFB26:
 638:oledlib/oled_draw.c **** 
 639:oledlib/oled_draw.c **** void DrawTriangle(unsigned char x0, unsigned char y0, unsigned char x1, unsigned char y1, unsigned 
 640:oledlib/oled_draw.c **** {
 3013              		.loc 1 640 1 is_stmt 1 view -0
 3014              		.cfi_startproc
 3015              		@ args = 8, pretend = 0, frame = 0
 3016              		@ frame_needed = 0, uses_anonymous_args = 0
 3017              		.loc 1 640 1 is_stmt 0 view .LVU790
 3018 0000 2DE9F843 		push	{r3, r4, r5, r6, r7, r8, r9, lr}
 3019              	.LCFI43:
 3020              		.cfi_def_cfa_offset 32
 3021              		.cfi_offset 3, -32
 3022              		.cfi_offset 4, -28
 3023              		.cfi_offset 5, -24
 3024              		.cfi_offset 6, -20
 3025              		.cfi_offset 7, -16
 3026              		.cfi_offset 8, -12
 3027              		.cfi_offset 9, -8
 3028              		.cfi_offset 14, -4
 3029 0004 0446     		mov	r4, r0
 3030 0006 0D46     		mov	r5, r1
 3031 0008 1646     		mov	r6, r2
 3032 000a 1F46     		mov	r7, r3
 3033 000c 9DF82080 		ldrb	r8, [sp, #32]	@ zero_extendqisi2
 3034 0010 9DF82490 		ldrb	r9, [sp, #36]	@ zero_extendqisi2
 641:oledlib/oled_draw.c ****     DrawLine(x0, y0, x1, y1);
 3035              		.loc 1 641 5 is_stmt 1 view .LVU791
 3036 0014 FFF7FEFF 		bl	DrawLine
 3037              	.LVL374:
 642:oledlib/oled_draw.c ****     DrawLine(x1, y1, x2, y2);
 3038              		.loc 1 642 5 view .LVU792
 3039 0018 4B46     		mov	r3, r9
 3040 001a 4246     		mov	r2, r8
 3041 001c 3946     		mov	r1, r7
 3042 001e 3046     		mov	r0, r6
 3043 0020 FFF7FEFF 		bl	DrawLine
 3044              	.LVL375:
 643:oledlib/oled_draw.c ****     DrawLine(x2, y2, x0, y0);
ARM GAS  C:\Users\GKQ\AppData\Local\Temp\ccFEMZSq.s 			page 68


 3045              		.loc 1 643 5 view .LVU793
 3046 0024 2B46     		mov	r3, r5
 3047 0026 2246     		mov	r2, r4
 3048 0028 4946     		mov	r1, r9
 3049 002a 4046     		mov	r0, r8
 3050 002c FFF7FEFF 		bl	DrawLine
 3051              	.LVL376:
 644:oledlib/oled_draw.c **** }
 3052              		.loc 1 644 1 is_stmt 0 view .LVU794
 3053 0030 BDE8F883 		pop	{r3, r4, r5, r6, r7, r8, r9, pc}
 3054              		.loc 1 644 1 view .LVU795
 3055              		.cfi_endproc
 3056              	.LFE26:
 3058              		.section	.text.DrawFillTriangle,"ax",%progbits
 3059              		.align	1
 3060              		.global	DrawFillTriangle
 3061              		.syntax unified
 3062              		.thumb
 3063              		.thumb_func
 3064              		.fpu softvfp
 3066              	DrawFillTriangle:
 3067              	.LVL377:
 3068              	.LFB27:
 645:oledlib/oled_draw.c **** 
 646:oledlib/oled_draw.c **** void DrawFillTriangle(int x0, int y0, int x1, int y1, int x2, int y2)
 647:oledlib/oled_draw.c **** {
 3069              		.loc 1 647 1 is_stmt 1 view -0
 3070              		.cfi_startproc
 3071              		@ args = 8, pretend = 0, frame = 32
 3072              		@ frame_needed = 0, uses_anonymous_args = 0
 3073              		.loc 1 647 1 is_stmt 0 view .LVU797
 3074 0000 2DE9F04F 		push	{r4, r5, r6, r7, r8, r9, r10, fp, lr}
 3075              	.LCFI44:
 3076              		.cfi_def_cfa_offset 36
 3077              		.cfi_offset 4, -36
 3078              		.cfi_offset 5, -32
 3079              		.cfi_offset 6, -28
 3080              		.cfi_offset 7, -24
 3081              		.cfi_offset 8, -20
 3082              		.cfi_offset 9, -16
 3083              		.cfi_offset 10, -12
 3084              		.cfi_offset 11, -8
 3085              		.cfi_offset 14, -4
 3086 0004 89B0     		sub	sp, sp, #36
 3087              	.LCFI45:
 3088              		.cfi_def_cfa_offset 72
 3089 0006 0446     		mov	r4, r0
 3090 0008 8846     		mov	r8, r1
 3091 000a 9246     		mov	r10, r2
 3092 000c 1D46     		mov	r5, r3
 3093 000e 0493     		str	r3, [sp, #16]
 3094 0010 129F     		ldr	r7, [sp, #72]
 648:oledlib/oled_draw.c ****     int a, b, y, last;
 3095              		.loc 1 648 5 is_stmt 1 view .LVU798
 649:oledlib/oled_draw.c ****     int dx01, dy01, dx02, dy02, dx12, dy12, sa = 0, sb = 0;
 3096              		.loc 1 649 5 view .LVU799
 3097              	.LVL378:
ARM GAS  C:\Users\GKQ\AppData\Local\Temp\ccFEMZSq.s 			page 69


 650:oledlib/oled_draw.c ****     Type_color tmpcolor;
 3098              		.loc 1 650 5 view .LVU800
 651:oledlib/oled_draw.c ****     tmpcolor = GetDrawColor();
 3099              		.loc 1 651 5 view .LVU801
 3100              		.loc 1 651 16 is_stmt 0 view .LVU802
 3101 0012 FFF7FEFF 		bl	GetDrawColor
 3102              	.LVL379:
 3103              		.loc 1 651 16 view .LVU803
 3104 0016 0590     		str	r0, [sp, #20]
 3105              	.LVL380:
 652:oledlib/oled_draw.c ****     SetDrawColor(GetFillColor());
 3106              		.loc 1 652 5 is_stmt 1 view .LVU804
 3107 0018 FFF7FEFF 		bl	GetFillColor
 3108              	.LVL381:
 3109 001c FFF7FEFF 		bl	SetDrawColor
 3110              	.LVL382:
 653:oledlib/oled_draw.c ****     if (y0 > y1)
 3111              		.loc 1 653 5 view .LVU805
 3112              		.loc 1 653 8 is_stmt 0 view .LVU806
 3113 0020 A845     		cmp	r8, r5
 3114 0022 05DC     		bgt	.L147
 3115 0024 CDF81080 		str	r8, [sp, #16]
 3116 0028 A846     		mov	r8, r5
 3117              	.LVL383:
 3118              		.loc 1 653 8 view .LVU807
 3119 002a 5346     		mov	r3, r10
 3120 002c A246     		mov	r10, r4
 3121              	.LVL384:
 3122              		.loc 1 653 8 view .LVU808
 3123 002e 1C46     		mov	r4, r3
 3124              	.LVL385:
 3125              	.L147:
 654:oledlib/oled_draw.c ****     {
 655:oledlib/oled_draw.c ****         SWAP(y0, y1);
 656:oledlib/oled_draw.c ****         SWAP(x0, x1);
 3126              		.loc 1 656 21 is_stmt 1 discriminator 1 view .LVU809
 657:oledlib/oled_draw.c ****     }
 658:oledlib/oled_draw.c ****     if (y1 > y2)
 3127              		.loc 1 658 5 discriminator 1 view .LVU810
 3128              		.loc 1 658 8 is_stmt 0 discriminator 1 view .LVU811
 3129 0030 139B     		ldr	r3, [sp, #76]
 3130 0032 9845     		cmp	r8, r3
 3131 0034 05DC     		bgt	.L148
 3132              		.loc 1 658 8 view .LVU812
 3133 0036 CDF84C80 		str	r8, [sp, #76]
 3134              	.LVL386:
 3135              		.loc 1 658 8 view .LVU813
 3136 003a 9846     		mov	r8, r3
 3137              	.LVL387:
 3138              		.loc 1 658 8 view .LVU814
 3139 003c 3B46     		mov	r3, r7
 3140 003e 2746     		mov	r7, r4
 3141 0040 1C46     		mov	r4, r3
 3142              	.LVL388:
 3143              	.L148:
 659:oledlib/oled_draw.c ****     {
 660:oledlib/oled_draw.c ****         SWAP(y2, y1);
ARM GAS  C:\Users\GKQ\AppData\Local\Temp\ccFEMZSq.s 			page 70


 661:oledlib/oled_draw.c ****         SWAP(x2, x1);
 3144              		.loc 1 661 21 is_stmt 1 discriminator 1 view .LVU815
 662:oledlib/oled_draw.c ****     }
 663:oledlib/oled_draw.c ****     if (y0 > y1)
 3145              		.loc 1 663 5 discriminator 1 view .LVU816
 3146              		.loc 1 663 8 is_stmt 0 discriminator 1 view .LVU817
 3147 0042 049A     		ldr	r2, [sp, #16]
 3148 0044 1399     		ldr	r1, [sp, #76]
 3149 0046 8A42     		cmp	r2, r1
 3150 0048 04DC     		bgt	.L149
 3151              		.loc 1 663 8 view .LVU818
 3152 004a 1392     		str	r2, [sp, #76]
 3153              	.LVL389:
 3154              		.loc 1 663 8 view .LVU819
 3155 004c 0491     		str	r1, [sp, #16]
 3156              	.LVL390:
 3157              		.loc 1 663 8 view .LVU820
 3158 004e 3B46     		mov	r3, r7
 3159 0050 5746     		mov	r7, r10
 3160              	.LVL391:
 3161              		.loc 1 663 8 view .LVU821
 3162 0052 9A46     		mov	r10, r3
 3163              	.LVL392:
 3164              	.L149:
 664:oledlib/oled_draw.c ****     {
 665:oledlib/oled_draw.c ****         SWAP(y0, y1);
 666:oledlib/oled_draw.c ****         SWAP(x0, x1);
 3165              		.loc 1 666 21 is_stmt 1 discriminator 1 view .LVU822
 667:oledlib/oled_draw.c ****     }
 668:oledlib/oled_draw.c **** 
 669:oledlib/oled_draw.c ****     if (y0 == y2)
 3166              		.loc 1 669 5 discriminator 1 view .LVU823
 3167              		.loc 1 669 8 is_stmt 0 discriminator 1 view .LVU824
 3168 0054 139B     		ldr	r3, [sp, #76]
 3169 0056 4345     		cmp	r3, r8
 3170 0058 1FD0     		beq	.L165
 670:oledlib/oled_draw.c ****     {
 671:oledlib/oled_draw.c ****         a = b = x0;
 672:oledlib/oled_draw.c ****         if (x1 < a)
 673:oledlib/oled_draw.c ****         {
 674:oledlib/oled_draw.c ****             a = x1;
 675:oledlib/oled_draw.c ****         }
 676:oledlib/oled_draw.c ****         else if (x1 > b)
 677:oledlib/oled_draw.c ****         {
 678:oledlib/oled_draw.c ****             b = x1;
 679:oledlib/oled_draw.c ****         }
 680:oledlib/oled_draw.c ****         if (x2 < a)
 681:oledlib/oled_draw.c ****         {
 682:oledlib/oled_draw.c ****             a = x2;
 683:oledlib/oled_draw.c ****         }
 684:oledlib/oled_draw.c ****         else if (x2 > b)
 685:oledlib/oled_draw.c ****         {
 686:oledlib/oled_draw.c ****             b = x2;
 687:oledlib/oled_draw.c ****         }
 688:oledlib/oled_draw.c ****         DrawFastHLine(a, y0, b - a + 1);
 689:oledlib/oled_draw.c ****         return;
 690:oledlib/oled_draw.c ****     }
ARM GAS  C:\Users\GKQ\AppData\Local\Temp\ccFEMZSq.s 			page 71


 691:oledlib/oled_draw.c ****     dx01 = x1 - x0,
 3171              		.loc 1 691 5 is_stmt 1 view .LVU825
 3172              		.loc 1 691 10 is_stmt 0 view .LVU826
 3173 005a AAEB0703 		sub	r3, r10, r7
 3174 005e 0293     		str	r3, [sp, #8]
 3175              	.LVL393:
 692:oledlib/oled_draw.c ****     dy01 = y1 - y0,
 3176              		.loc 1 692 10 view .LVU827
 3177 0060 049B     		ldr	r3, [sp, #16]
 3178              	.LVL394:
 3179              		.loc 1 692 10 view .LVU828
 3180 0062 139A     		ldr	r2, [sp, #76]
 3181 0064 9A1A     		subs	r2, r3, r2
 3182 0066 1146     		mov	r1, r2
 3183              	.LVL395:
 693:oledlib/oled_draw.c ****     dx02 = x2 - x0,
 3184              		.loc 1 693 10 view .LVU829
 3185 0068 A4EB0709 		sub	r9, r4, r7
 3186              	.LVL396:
 694:oledlib/oled_draw.c ****     dy02 = y2 - y0,
 3187              		.loc 1 694 10 view .LVU830
 3188 006c 139A     		ldr	r2, [sp, #76]
 3189 006e A8EB020B 		sub	fp, r8, r2
 3190              	.LVL397:
 695:oledlib/oled_draw.c ****     dx12 = x2 - x1,
 3191              		.loc 1 695 10 view .LVU831
 3192 0072 A4EB0A02 		sub	r2, r4, r10
 3193 0076 0192     		str	r2, [sp, #4]
 3194              	.LVL398:
 696:oledlib/oled_draw.c ****     dy12 = y2 - y1,
 3195              		.loc 1 696 10 view .LVU832
 3196 0078 A8EB0302 		sub	r2, r8, r3
 3197              	.LVL399:
 3198              		.loc 1 696 10 view .LVU833
 3199 007c 0392     		str	r2, [sp, #12]
 3200              	.LVL400:
 697:oledlib/oled_draw.c ****     sa = 0,
 698:oledlib/oled_draw.c ****     sb = 0;
 699:oledlib/oled_draw.c ****     if (y1 == y2)
 3201              		.loc 1 699 5 is_stmt 1 view .LVU834
 3202              		.loc 1 699 8 is_stmt 0 view .LVU835
 3203 007e 4345     		cmp	r3, r8
 3204 0080 24D0     		beq	.L163
 700:oledlib/oled_draw.c ****     {
 701:oledlib/oled_draw.c ****         last = y1; // Include y1 scanline
 702:oledlib/oled_draw.c ****     }
 703:oledlib/oled_draw.c ****     else
 704:oledlib/oled_draw.c ****     {
 705:oledlib/oled_draw.c ****         last = y1 - 1; // Skip it
 3205              		.loc 1 705 9 is_stmt 1 view .LVU836
 3206              		.loc 1 705 14 is_stmt 0 view .LVU837
 3207 0082 013B     		subs	r3, r3, #1
 3208              	.LVL401:
 3209              	.L154:
 706:oledlib/oled_draw.c ****     }
 707:oledlib/oled_draw.c **** 
 708:oledlib/oled_draw.c ****     for (y = y0; y <= last; y++)
ARM GAS  C:\Users\GKQ\AppData\Local\Temp\ccFEMZSq.s 			page 72


 3210              		.loc 1 708 5 is_stmt 1 view .LVU838
 3211              		.loc 1 708 12 is_stmt 0 view .LVU839
 3212 0084 139C     		ldr	r4, [sp, #76]
 3213              	.LVL402:
 698:oledlib/oled_draw.c ****     if (y1 == y2)
 3214              		.loc 1 698 8 view .LVU840
 3215 0086 0025     		movs	r5, #0
 697:oledlib/oled_draw.c ****     sb = 0;
 3216              		.loc 1 697 8 view .LVU841
 3217 0088 2E46     		mov	r6, r5
 3218 008a 0095     		str	r5, [sp]
 3219 008c CDF81880 		str	r8, [sp, #24]
 3220 0090 9846     		mov	r8, r3
 3221              	.LVL403:
 697:oledlib/oled_draw.c ****     sb = 0;
 3222              		.loc 1 697 8 view .LVU842
 3223 0092 CDF81CA0 		str	r10, [sp, #28]
 3224 0096 8A46     		mov	r10, r1
 3225              	.LVL404:
 3226              		.loc 1 708 5 view .LVU843
 3227 0098 22E0     		b	.L155
 3228              	.LVL405:
 3229              	.L165:
 671:oledlib/oled_draw.c ****         if (x1 < a)
 3230              		.loc 1 671 9 is_stmt 1 view .LVU844
 672:oledlib/oled_draw.c ****         {
 3231              		.loc 1 672 9 view .LVU845
 672:oledlib/oled_draw.c ****         {
 3232              		.loc 1 672 12 is_stmt 0 view .LVU846
 3233 009a 5745     		cmp	r7, r10
 3234 009c 01DC     		bgt	.L151
 676:oledlib/oled_draw.c ****         {
 3235              		.loc 1 676 14 is_stmt 1 view .LVU847
 676:oledlib/oled_draw.c ****         {
 3236              		.loc 1 676 17 is_stmt 0 view .LVU848
 3237 009e 0EDB     		blt	.L161
 671:oledlib/oled_draw.c ****         if (x1 < a)
 3238              		.loc 1 671 11 view .LVU849
 3239 00a0 BA46     		mov	r10, r7
 3240              	.LVL406:
 3241              	.L151:
 680:oledlib/oled_draw.c ****         {
 3242              		.loc 1 680 9 is_stmt 1 view .LVU850
 680:oledlib/oled_draw.c ****         {
 3243              		.loc 1 680 12 is_stmt 0 view .LVU851
 3244 00a2 5445     		cmp	r4, r10
 3245 00a4 02DB     		blt	.L152
 684:oledlib/oled_draw.c ****         {
 3246              		.loc 1 684 14 is_stmt 1 view .LVU852
 684:oledlib/oled_draw.c ****         {
 3247              		.loc 1 684 17 is_stmt 0 view .LVU853
 3248 00a6 BC42     		cmp	r4, r7
 3249 00a8 0DDC     		bgt	.L162
 3250 00aa 5446     		mov	r4, r10
 3251              	.LVL407:
 3252              	.L152:
 688:oledlib/oled_draw.c ****         return;
ARM GAS  C:\Users\GKQ\AppData\Local\Temp\ccFEMZSq.s 			page 73


 3253              		.loc 1 688 9 is_stmt 1 view .LVU854
 688:oledlib/oled_draw.c ****         return;
 3254              		.loc 1 688 32 is_stmt 0 view .LVU855
 3255 00ac 3A1B     		subs	r2, r7, r4
 3256 00ae D2B2     		uxtb	r2, r2
 688:oledlib/oled_draw.c ****         return;
 3257              		.loc 1 688 9 view .LVU856
 3258 00b0 0132     		adds	r2, r2, #1
 3259 00b2 D2B2     		uxtb	r2, r2
 3260 00b4 1399     		ldr	r1, [sp, #76]
 3261 00b6 2046     		mov	r0, r4
 3262 00b8 FFF7FEFF 		bl	DrawFastHLine
 3263              	.LVL408:
 689:oledlib/oled_draw.c ****     }
 3264              		.loc 1 689 9 is_stmt 1 view .LVU857
 3265 00bc 4FE0     		b	.L146
 3266              	.LVL409:
 3267              	.L161:
 689:oledlib/oled_draw.c ****     }
 3268              		.loc 1 689 9 is_stmt 0 view .LVU858
 3269 00be 5346     		mov	r3, r10
 3270              	.LVL410:
 671:oledlib/oled_draw.c ****         if (x1 < a)
 3271              		.loc 1 671 11 view .LVU859
 3272 00c0 BA46     		mov	r10, r7
 3273              	.LVL411:
 678:oledlib/oled_draw.c ****         }
 3274              		.loc 1 678 15 view .LVU860
 3275 00c2 1F46     		mov	r7, r3
 3276              	.LVL412:
 678:oledlib/oled_draw.c ****         }
 3277              		.loc 1 678 15 view .LVU861
 3278 00c4 EDE7     		b	.L151
 3279              	.LVL413:
 3280              	.L162:
 686:oledlib/oled_draw.c ****         }
 3281              		.loc 1 686 15 view .LVU862
 3282 00c6 2746     		mov	r7, r4
 3283              	.LVL414:
 686:oledlib/oled_draw.c ****         }
 3284              		.loc 1 686 15 view .LVU863
 3285 00c8 5446     		mov	r4, r10
 3286              	.LVL415:
 686:oledlib/oled_draw.c ****         }
 3287              		.loc 1 686 15 view .LVU864
 3288 00ca EFE7     		b	.L152
 3289              	.LVL416:
 3290              	.L163:
 701:oledlib/oled_draw.c ****     }
 3291              		.loc 1 701 14 view .LVU865
 3292 00cc 049B     		ldr	r3, [sp, #16]
 3293              	.LVL417:
 701:oledlib/oled_draw.c ****     }
 3294              		.loc 1 701 14 view .LVU866
 3295 00ce D9E7     		b	.L154
 3296              	.LVL418:
 3297              	.L156:
ARM GAS  C:\Users\GKQ\AppData\Local\Temp\ccFEMZSq.s 			page 74


 709:oledlib/oled_draw.c ****     {
 710:oledlib/oled_draw.c ****         a = x0 + sa / dy01;
 711:oledlib/oled_draw.c ****         b = x0 + sb / dy02;
 712:oledlib/oled_draw.c ****         sa += dx01;
 713:oledlib/oled_draw.c ****         sb += dx02;
 714:oledlib/oled_draw.c **** 
 715:oledlib/oled_draw.c ****         if (a > b)
 716:oledlib/oled_draw.c ****         {
 717:oledlib/oled_draw.c ****             SWAP(a, b);
 3298              		.loc 1 717 23 is_stmt 1 discriminator 1 view .LVU867
 718:oledlib/oled_draw.c ****         }
 719:oledlib/oled_draw.c **** 
 720:oledlib/oled_draw.c ****         DrawFastHLine(a, y, b - a + 1);
 3299              		.loc 1 720 9 discriminator 1 view .LVU868
 3300              		.loc 1 720 31 is_stmt 0 discriminator 1 view .LVU869
 3301 00d0 121A     		subs	r2, r2, r0
 3302              	.LVL419:
 3303              		.loc 1 720 31 discriminator 1 view .LVU870
 3304 00d2 D2B2     		uxtb	r2, r2
 3305              		.loc 1 720 9 discriminator 1 view .LVU871
 3306 00d4 0132     		adds	r2, r2, #1
 3307 00d6 D2B2     		uxtb	r2, r2
 3308 00d8 2146     		mov	r1, r4
 3309 00da FFF7FEFF 		bl	DrawFastHLine
 3310              	.LVL420:
 708:oledlib/oled_draw.c ****     {
 3311              		.loc 1 708 29 is_stmt 1 discriminator 1 view .LVU872
 708:oledlib/oled_draw.c ****     {
 3312              		.loc 1 708 30 is_stmt 0 discriminator 1 view .LVU873
 3313 00de 0134     		adds	r4, r4, #1
 3314              	.LVL421:
 3315              	.L155:
 708:oledlib/oled_draw.c ****     {
 3316              		.loc 1 708 18 is_stmt 1 discriminator 2 view .LVU874
 708:oledlib/oled_draw.c ****     {
 3317              		.loc 1 708 5 is_stmt 0 discriminator 2 view .LVU875
 3318 00e0 4445     		cmp	r4, r8
 3319 00e2 11DC     		bgt	.L166
 710:oledlib/oled_draw.c ****         b = x0 + sb / dy02;
 3320              		.loc 1 710 9 is_stmt 1 view .LVU876
 710:oledlib/oled_draw.c ****         b = x0 + sb / dy02;
 3321              		.loc 1 710 21 is_stmt 0 view .LVU877
 3322 00e4 96FBFAF1 		sdiv	r1, r6, r10
 710:oledlib/oled_draw.c ****         b = x0 + sb / dy02;
 3323              		.loc 1 710 11 view .LVU878
 3324 00e8 CA19     		adds	r2, r1, r7
 3325              	.LVL422:
 711:oledlib/oled_draw.c ****         sa += dx01;
 3326              		.loc 1 711 9 is_stmt 1 view .LVU879
 711:oledlib/oled_draw.c ****         sa += dx01;
 3327              		.loc 1 711 21 is_stmt 0 view .LVU880
 3328 00ea 009B     		ldr	r3, [sp]
 3329 00ec 93FBFBF3 		sdiv	r3, r3, fp
 711:oledlib/oled_draw.c ****         sa += dx01;
 3330              		.loc 1 711 11 view .LVU881
 3331 00f0 D819     		adds	r0, r3, r7
 3332              	.LVL423:
ARM GAS  C:\Users\GKQ\AppData\Local\Temp\ccFEMZSq.s 			page 75


 712:oledlib/oled_draw.c ****         sb += dx02;
 3333              		.loc 1 712 9 is_stmt 1 view .LVU882
 712:oledlib/oled_draw.c ****         sb += dx02;
 3334              		.loc 1 712 12 is_stmt 0 view .LVU883
 3335 00f2 029D     		ldr	r5, [sp, #8]
 3336 00f4 2E44     		add	r6, r6, r5
 3337              	.LVL424:
 713:oledlib/oled_draw.c **** 
 3338              		.loc 1 713 9 is_stmt 1 view .LVU884
 713:oledlib/oled_draw.c **** 
 3339              		.loc 1 713 12 is_stmt 0 view .LVU885
 3340 00f6 009D     		ldr	r5, [sp]
 3341 00f8 4D44     		add	r5, r5, r9
 3342 00fa 0095     		str	r5, [sp]
 3343              	.LVL425:
 715:oledlib/oled_draw.c ****         {
 3344              		.loc 1 715 9 is_stmt 1 view .LVU886
 715:oledlib/oled_draw.c ****         {
 3345              		.loc 1 715 12 is_stmt 0 view .LVU887
 3346 00fc 9942     		cmp	r1, r3
 3347 00fe E7DC     		bgt	.L156
 3348 0100 0346     		mov	r3, r0
 710:oledlib/oled_draw.c ****         b = x0 + sb / dy02;
 3349              		.loc 1 710 11 view .LVU888
 3350 0102 1046     		mov	r0, r2
 3351              	.LVL426:
 711:oledlib/oled_draw.c ****         sa += dx01;
 3352              		.loc 1 711 11 view .LVU889
 3353 0104 1A46     		mov	r2, r3
 3354              	.LVL427:
 711:oledlib/oled_draw.c ****         sa += dx01;
 3355              		.loc 1 711 11 view .LVU890
 3356 0106 E3E7     		b	.L156
 3357              	.LVL428:
 3358              	.L166:
 711:oledlib/oled_draw.c ****         sa += dx01;
 3359              		.loc 1 711 11 view .LVU891
 3360 0108 DDF81880 		ldr	r8, [sp, #24]
 3361              	.LVL429:
 711:oledlib/oled_draw.c ****         sa += dx01;
 3362              		.loc 1 711 11 view .LVU892
 3363 010c DDF81CA0 		ldr	r10, [sp, #28]
 3364              	.LVL430:
 721:oledlib/oled_draw.c ****     }
 722:oledlib/oled_draw.c ****     sa = dx12 * (y - y1);
 3365              		.loc 1 722 5 is_stmt 1 view .LVU893
 3366              		.loc 1 722 20 is_stmt 0 view .LVU894
 3367 0110 049B     		ldr	r3, [sp, #16]
 3368 0112 E61A     		subs	r6, r4, r3
 3369              	.LVL431:
 3370              		.loc 1 722 8 view .LVU895
 3371 0114 019B     		ldr	r3, [sp, #4]
 3372 0116 03FB06F6 		mul	r6, r3, r6
 3373              	.LVL432:
 723:oledlib/oled_draw.c ****     sb = dx02 * (y - y0);
 3374              		.loc 1 723 5 is_stmt 1 view .LVU896
 3375              		.loc 1 723 20 is_stmt 0 view .LVU897
ARM GAS  C:\Users\GKQ\AppData\Local\Temp\ccFEMZSq.s 			page 76


 3376 011a 139B     		ldr	r3, [sp, #76]
 3377 011c E51A     		subs	r5, r4, r3
 3378              		.loc 1 723 8 view .LVU898
 3379 011e 09FB05F5 		mul	r5, r9, r5
 3380              	.LVL433:
 724:oledlib/oled_draw.c ****     for (; y <= y2; y++)
 3381              		.loc 1 724 5 is_stmt 1 view .LVU899
 3382 0122 07E0     		b	.L158
 3383              	.L159:
 3384              	.LVL434:
 725:oledlib/oled_draw.c ****     {
 726:oledlib/oled_draw.c ****         a = x1 + sa / dy12;
 727:oledlib/oled_draw.c ****         b = x0 + sb / dy02;
 728:oledlib/oled_draw.c ****         sa += dx12;
 729:oledlib/oled_draw.c ****         sb += dx02;
 730:oledlib/oled_draw.c ****         if (a > b)
 731:oledlib/oled_draw.c ****         {
 732:oledlib/oled_draw.c ****             SWAP(a, b);
 3385              		.loc 1 732 23 discriminator 1 view .LVU900
 733:oledlib/oled_draw.c ****         }
 734:oledlib/oled_draw.c ****         DrawFastHLine(a, y, b - a + 1);
 3386              		.loc 1 734 9 discriminator 1 view .LVU901
 3387              		.loc 1 734 31 is_stmt 0 discriminator 1 view .LVU902
 3388 0124 121A     		subs	r2, r2, r0
 3389              	.LVL435:
 3390              		.loc 1 734 31 discriminator 1 view .LVU903
 3391 0126 D2B2     		uxtb	r2, r2
 3392              		.loc 1 734 9 discriminator 1 view .LVU904
 3393 0128 0132     		adds	r2, r2, #1
 3394 012a D2B2     		uxtb	r2, r2
 3395 012c 2146     		mov	r1, r4
 3396 012e FFF7FEFF 		bl	DrawFastHLine
 3397              	.LVL436:
 724:oledlib/oled_draw.c ****     {
 3398              		.loc 1 724 21 is_stmt 1 discriminator 1 view .LVU905
 724:oledlib/oled_draw.c ****     {
 3399              		.loc 1 724 22 is_stmt 0 discriminator 1 view .LVU906
 3400 0132 0134     		adds	r4, r4, #1
 3401              	.LVL437:
 3402              	.L158:
 724:oledlib/oled_draw.c ****     {
 3403              		.loc 1 724 12 is_stmt 1 discriminator 1 view .LVU907
 724:oledlib/oled_draw.c ****     {
 3404              		.loc 1 724 5 is_stmt 0 discriminator 1 view .LVU908
 3405 0134 A045     		cmp	r8, r4
 3406 0136 0FDB     		blt	.L167
 726:oledlib/oled_draw.c ****         b = x0 + sb / dy02;
 3407              		.loc 1 726 9 is_stmt 1 view .LVU909
 726:oledlib/oled_draw.c ****         b = x0 + sb / dy02;
 3408              		.loc 1 726 21 is_stmt 0 view .LVU910
 3409 0138 039B     		ldr	r3, [sp, #12]
 3410 013a 96FBF3F2 		sdiv	r2, r6, r3
 726:oledlib/oled_draw.c ****         b = x0 + sb / dy02;
 3411              		.loc 1 726 11 view .LVU911
 3412 013e 5244     		add	r2, r2, r10
 3413              	.LVL438:
 727:oledlib/oled_draw.c ****         sa += dx12;
ARM GAS  C:\Users\GKQ\AppData\Local\Temp\ccFEMZSq.s 			page 77


 3414              		.loc 1 727 9 is_stmt 1 view .LVU912
 727:oledlib/oled_draw.c ****         sa += dx12;
 3415              		.loc 1 727 21 is_stmt 0 view .LVU913
 3416 0140 95FBFBF0 		sdiv	r0, r5, fp
 727:oledlib/oled_draw.c ****         sa += dx12;
 3417              		.loc 1 727 11 view .LVU914
 3418 0144 3844     		add	r0, r0, r7
 3419              	.LVL439:
 728:oledlib/oled_draw.c ****         sb += dx02;
 3420              		.loc 1 728 9 is_stmt 1 view .LVU915
 728:oledlib/oled_draw.c ****         sb += dx02;
 3421              		.loc 1 728 12 is_stmt 0 view .LVU916
 3422 0146 019B     		ldr	r3, [sp, #4]
 3423 0148 1E44     		add	r6, r6, r3
 3424              	.LVL440:
 729:oledlib/oled_draw.c ****         if (a > b)
 3425              		.loc 1 729 9 is_stmt 1 view .LVU917
 729:oledlib/oled_draw.c ****         if (a > b)
 3426              		.loc 1 729 12 is_stmt 0 view .LVU918
 3427 014a 4D44     		add	r5, r5, r9
 3428              	.LVL441:
 730:oledlib/oled_draw.c ****         {
 3429              		.loc 1 730 9 is_stmt 1 view .LVU919
 730:oledlib/oled_draw.c ****         {
 3430              		.loc 1 730 12 is_stmt 0 view .LVU920
 3431 014c 8242     		cmp	r2, r0
 3432 014e E9DC     		bgt	.L159
 3433 0150 0346     		mov	r3, r0
 726:oledlib/oled_draw.c ****         b = x0 + sb / dy02;
 3434              		.loc 1 726 11 view .LVU921
 3435 0152 1046     		mov	r0, r2
 3436              	.LVL442:
 727:oledlib/oled_draw.c ****         sa += dx12;
 3437              		.loc 1 727 11 view .LVU922
 3438 0154 1A46     		mov	r2, r3
 3439              	.LVL443:
 727:oledlib/oled_draw.c ****         sa += dx12;
 3440              		.loc 1 727 11 view .LVU923
 3441 0156 E5E7     		b	.L159
 3442              	.LVL444:
 3443              	.L167:
 735:oledlib/oled_draw.c ****     }
 736:oledlib/oled_draw.c ****     SetDrawColor(tmpcolor);
 3444              		.loc 1 736 5 is_stmt 1 view .LVU924
 3445 0158 0598     		ldr	r0, [sp, #20]
 3446 015a FFF7FEFF 		bl	SetDrawColor
 3447              	.LVL445:
 3448              	.L146:
 737:oledlib/oled_draw.c **** }
 3449              		.loc 1 737 1 is_stmt 0 view .LVU925
 3450 015e 09B0     		add	sp, sp, #36
 3451              	.LCFI46:
 3452              		.cfi_def_cfa_offset 36
 3453              		@ sp needed
 3454 0160 BDE8F08F 		pop	{r4, r5, r6, r7, r8, r9, r10, fp, pc}
 3455              		.loc 1 737 1 view .LVU926
 3456              		.cfi_endproc
ARM GAS  C:\Users\GKQ\AppData\Local\Temp\ccFEMZSq.s 			page 78


 3457              	.LFE27:
 3459              		.section	.text.DrawBitmap,"ax",%progbits
 3460              		.align	1
 3461              		.global	DrawBitmap
 3462              		.syntax unified
 3463              		.thumb
 3464              		.thumb_func
 3465              		.fpu softvfp
 3467              	DrawBitmap:
 3468              	.LVL446:
 3469              	.LFB28:
 738:oledlib/oled_draw.c **** 
 739:oledlib/oled_draw.c **** void DrawBitmap(int x, int y, const unsigned char *bitmap, unsigned char w, unsigned char h)
 740:oledlib/oled_draw.c **** {
 3470              		.loc 1 740 1 is_stmt 1 view -0
 3471              		.cfi_startproc
 3472              		@ args = 4, pretend = 0, frame = 16
 3473              		@ frame_needed = 0, uses_anonymous_args = 0
 3474              		.loc 1 740 1 is_stmt 0 view .LVU928
 3475 0000 2DE9F04F 		push	{r4, r5, r6, r7, r8, r9, r10, fp, lr}
 3476              	.LCFI47:
 3477              		.cfi_def_cfa_offset 36
 3478              		.cfi_offset 4, -36
 3479              		.cfi_offset 5, -32
 3480              		.cfi_offset 6, -28
 3481              		.cfi_offset 7, -24
 3482              		.cfi_offset 8, -20
 3483              		.cfi_offset 9, -16
 3484              		.cfi_offset 10, -12
 3485              		.cfi_offset 11, -8
 3486              		.cfi_offset 14, -4
 3487 0004 85B0     		sub	sp, sp, #20
 3488              	.LCFI48:
 3489              		.cfi_def_cfa_offset 56
 3490 0006 0746     		mov	r7, r0
 3491 0008 0192     		str	r2, [sp, #4]
 3492 000a 9DF83820 		ldrb	r2, [sp, #56]	@ zero_extendqisi2
 3493              	.LVL447:
 741:oledlib/oled_draw.c ****     int iCol, a;
 3494              		.loc 1 741 5 is_stmt 1 view .LVU929
 742:oledlib/oled_draw.c ****     int yOffset = abs(y) % 8;
 3495              		.loc 1 742 5 view .LVU930
 3496              		.loc 1 742 19 is_stmt 0 view .LVU931
 3497 000e 81EAE17A 		eor	r10, r1, r1, asr #31
 3498 0012 AAEBE17A 		sub	r10, r10, r1, asr #31
 3499              		.loc 1 742 9 view .LVU932
 3500 0016 0AF0070A 		and	r10, r10, #7
 3501              	.LVL448:
 743:oledlib/oled_draw.c ****     int sRow = y / 8;
 3502              		.loc 1 743 5 is_stmt 1 view .LVU933
 3503              		.loc 1 743 9 is_stmt 0 view .LVU934
 3504 001a 0846     		mov	r0, r1
 3505              	.LVL449:
 3506              		.loc 1 743 9 view .LVU935
 3507 001c 0029     		cmp	r1, #0
 3508 001e 1CDB     		blt	.L187
 3509              	.L169:
ARM GAS  C:\Users\GKQ\AppData\Local\Temp\ccFEMZSq.s 			page 79


 3510              		.loc 1 743 9 view .LVU936
 3511 0020 C010     		asrs	r0, r0, #3
 3512 0022 0090     		str	r0, [sp]
 3513              	.LVL450:
 744:oledlib/oled_draw.c ****     int rows = h / 8;
 3514              		.loc 1 744 5 is_stmt 1 view .LVU937
 3515              		.loc 1 744 18 is_stmt 0 view .LVU938
 3516 0024 4FEAD20B 		lsr	fp, r2, #3
 3517              	.LVL451:
 745:oledlib/oled_draw.c **** 
 746:oledlib/oled_draw.c ****     if (x + w < 0 || x > SCREEN_COLUMN - 1 || y + h < 0 || y > SCREEN_ROW - 1)
 3518              		.loc 1 746 5 is_stmt 1 view .LVU939
 3519              		.loc 1 746 11 is_stmt 0 view .LVU940
 3520 0028 9946     		mov	r9, r3
 3521              		.loc 1 746 8 view .LVU941
 3522 002a FB42     		cmn	r3, r7
 3523 002c 00F1D280 		bmi	.L168
 3524              		.loc 1 746 19 discriminator 1 view .LVU942
 3525 0030 7F2F     		cmp	r7, #127
 3526 0032 00F3CF80 		bgt	.L168
 3527              		.loc 1 746 44 discriminator 2 view .LVU943
 3528 0036 CA42     		cmn	r2, r1
 3529 0038 00F1CC80 		bmi	.L168
 3530              		.loc 1 746 57 discriminator 3 view .LVU944
 3531 003c 3F29     		cmp	r1, #63
 3532 003e 00F3C980 		bgt	.L168
 747:oledlib/oled_draw.c ****         return;
 748:oledlib/oled_draw.c ****     if (y < 0)
 3533              		.loc 1 748 5 is_stmt 1 view .LVU945
 3534              		.loc 1 748 8 is_stmt 0 view .LVU946
 3535 0042 0029     		cmp	r1, #0
 3536 0044 0BDB     		blt	.L188
 3537              	.LVL452:
 3538              	.L171:
 749:oledlib/oled_draw.c ****     {
 750:oledlib/oled_draw.c ****         sRow--;
 751:oledlib/oled_draw.c ****         yOffset = 8 - yOffset;
 752:oledlib/oled_draw.c ****     }
 753:oledlib/oled_draw.c **** 
 754:oledlib/oled_draw.c ****     if (h % 8 != 0)
 3539              		.loc 1 754 5 is_stmt 1 view .LVU947
 3540              		.loc 1 754 8 is_stmt 0 view .LVU948
 3541 0046 12F0070F 		tst	r2, #7
 3542 004a 01D0     		beq	.L172
 755:oledlib/oled_draw.c ****         rows++;
 3543              		.loc 1 755 9 is_stmt 1 view .LVU949
 3544              		.loc 1 755 13 is_stmt 0 view .LVU950
 3545 004c 0BF1010B 		add	fp, fp, #1
 3546              	.LVL453:
 3547              	.L172:
 756:oledlib/oled_draw.c ****     for (a = 0; a < rows; a++)
 3548              		.loc 1 756 5 is_stmt 1 view .LVU951
 3549              		.loc 1 756 12 is_stmt 0 view .LVU952
 3550 0050 4FF00008 		mov	r8, #0
 3551 0054 CDF808B0 		str	fp, [sp, #8]
 3552              		.loc 1 756 5 view .LVU953
 3553 0058 AFE0     		b	.L173
ARM GAS  C:\Users\GKQ\AppData\Local\Temp\ccFEMZSq.s 			page 80


 3554              	.LVL454:
 3555              	.L187:
 743:oledlib/oled_draw.c ****     int rows = h / 8;
 3556              		.loc 1 743 9 view .LVU954
 3557 005a C81D     		adds	r0, r1, #7
 3558              	.LVL455:
 743:oledlib/oled_draw.c ****     int rows = h / 8;
 3559              		.loc 1 743 9 view .LVU955
 3560 005c E0E7     		b	.L169
 3561              	.LVL456:
 3562              	.L188:
 750:oledlib/oled_draw.c ****         yOffset = 8 - yOffset;
 3563              		.loc 1 750 9 is_stmt 1 view .LVU956
 750:oledlib/oled_draw.c ****         yOffset = 8 - yOffset;
 3564              		.loc 1 750 13 is_stmt 0 view .LVU957
 3565 005e 431E     		subs	r3, r0, #1
 3566              	.LVL457:
 750:oledlib/oled_draw.c ****         yOffset = 8 - yOffset;
 3567              		.loc 1 750 13 view .LVU958
 3568 0060 0093     		str	r3, [sp]
 3569              	.LVL458:
 751:oledlib/oled_draw.c ****     }
 3570              		.loc 1 751 9 is_stmt 1 view .LVU959
 751:oledlib/oled_draw.c ****     }
 3571              		.loc 1 751 17 is_stmt 0 view .LVU960
 3572 0062 CAF1080A 		rsb	r10, r10, #8
 3573              	.LVL459:
 751:oledlib/oled_draw.c ****     }
 3574              		.loc 1 751 17 view .LVU961
 3575 0066 EEE7     		b	.L171
 3576              	.LVL460:
 3577              	.L190:
 3578              	.LBB2:
 757:oledlib/oled_draw.c ****     {
 758:oledlib/oled_draw.c ****         int bRow = sRow + a;
 759:oledlib/oled_draw.c ****         if (bRow > (SCREEN_ROW / 8) - 1)
 760:oledlib/oled_draw.c ****             break;
 761:oledlib/oled_draw.c ****         if (bRow > -2)
 762:oledlib/oled_draw.c ****         {
 763:oledlib/oled_draw.c ****             for (iCol = 0; iCol < w; iCol++)
 764:oledlib/oled_draw.c ****             {
 765:oledlib/oled_draw.c ****                 if (iCol + x > (SCREEN_COLUMN - 1))
 766:oledlib/oled_draw.c ****                     break;
 767:oledlib/oled_draw.c ****                 if (iCol + x >= 0)
 768:oledlib/oled_draw.c ****                 {
 769:oledlib/oled_draw.c ****                     if (bRow >= 0)
 770:oledlib/oled_draw.c ****                     {
 771:oledlib/oled_draw.c ****                         if (GetDrawColor() == pix_white)
 3579              		.loc 1 771 25 is_stmt 1 view .LVU962
 3580              		.loc 1 771 29 is_stmt 0 view .LVU963
 3581 0068 FFF7FEFF 		bl	GetDrawColor
 3582              	.LVL461:
 3583              		.loc 1 771 28 view .LVU964
 3584 006c 0128     		cmp	r0, #1
 3585 006e 17D0     		beq	.L189
 772:oledlib/oled_draw.c ****                         {
 773:oledlib/oled_draw.c ****                             unsigned char temp = ReadByteBuffer(bRow, x + iCol);
ARM GAS  C:\Users\GKQ\AppData\Local\Temp\ccFEMZSq.s 			page 81


 774:oledlib/oled_draw.c ****                             temp |= pgm_read_byte(bitmap + (a * w) + iCol) << yOffset;
 775:oledlib/oled_draw.c ****                             WriteByteBuffer(bRow, x + iCol, temp);
 776:oledlib/oled_draw.c ****                         }
 777:oledlib/oled_draw.c ****                         else if (GetDrawColor() == pix_black)
 3586              		.loc 1 777 30 is_stmt 1 view .LVU965
 3587              		.loc 1 777 34 is_stmt 0 view .LVU966
 3588 0070 FFF7FEFF 		bl	GetDrawColor
 3589              	.LVL462:
 3590              		.loc 1 777 33 view .LVU967
 3591 0074 48BB     		cbnz	r0, .L179
 3592              	.LBB3:
 778:oledlib/oled_draw.c ****                         {
 779:oledlib/oled_draw.c ****                             unsigned char temp = ReadByteBuffer(bRow, x + iCol);
 3593              		.loc 1 779 29 is_stmt 1 view .LVU968
 3594              		.loc 1 779 50 is_stmt 0 view .LVU969
 3595 0076 2946     		mov	r1, r5
 3596 0078 3046     		mov	r0, r6
 3597 007a FFF7FEFF 		bl	ReadByteBuffer
 3598              	.LVL463:
 3599 007e 8346     		mov	fp, r0
 3600              	.LVL464:
 780:oledlib/oled_draw.c ****                             temp &= ~(pgm_read_byte(bitmap + (a * w) + iCol) << yOffset);
 3601              		.loc 1 780 29 is_stmt 1 view .LVU970
 3602              		.loc 1 780 70 is_stmt 0 view .LVU971
 3603 0080 08FB0940 		mla	r0, r8, r9, r4
 3604              		.loc 1 780 39 view .LVU972
 3605 0084 019B     		ldr	r3, [sp, #4]
 3606 0086 1844     		add	r0, r0, r3
 3607 0088 FFF7FEFF 		bl	pgm_read_byte
 3608              	.LVL465:
 3609              		.loc 1 780 78 view .LVU973
 3610 008c 00FA0AF2 		lsl	r2, r0, r10
 3611              		.loc 1 780 34 view .LVU974
 3612 0090 2BEA0202 		bic	r2, fp, r2
 3613              	.LVL466:
 781:oledlib/oled_draw.c ****                             WriteByteBuffer(bRow, x + iCol, temp);
 3614              		.loc 1 781 29 is_stmt 1 view .LVU975
 3615 0094 D2B2     		uxtb	r2, r2
 3616              		.loc 1 781 29 is_stmt 0 view .LVU976
 3617 0096 2946     		mov	r1, r5
 3618 0098 3046     		mov	r0, r6
 3619 009a FFF7FEFF 		bl	WriteByteBuffer
 3620              	.LVL467:
 3621              		.loc 1 781 29 view .LVU977
 3622              	.LBE3:
 3623 009e 4BE0     		b	.L177
 3624              	.L189:
 3625              	.LBB4:
 773:oledlib/oled_draw.c ****                             temp |= pgm_read_byte(bitmap + (a * w) + iCol) << yOffset;
 3626              		.loc 1 773 29 is_stmt 1 view .LVU978
 773:oledlib/oled_draw.c ****                             temp |= pgm_read_byte(bitmap + (a * w) + iCol) << yOffset;
 3627              		.loc 1 773 50 is_stmt 0 view .LVU979
 3628 00a0 2946     		mov	r1, r5
 3629 00a2 3046     		mov	r0, r6
 3630 00a4 FFF7FEFF 		bl	ReadByteBuffer
 3631              	.LVL468:
 3632 00a8 8346     		mov	fp, r0
ARM GAS  C:\Users\GKQ\AppData\Local\Temp\ccFEMZSq.s 			page 82


 3633              	.LVL469:
 774:oledlib/oled_draw.c ****                             WriteByteBuffer(bRow, x + iCol, temp);
 3634              		.loc 1 774 29 is_stmt 1 view .LVU980
 774:oledlib/oled_draw.c ****                             WriteByteBuffer(bRow, x + iCol, temp);
 3635              		.loc 1 774 68 is_stmt 0 view .LVU981
 3636 00aa 08FB0940 		mla	r0, r8, r9, r4
 774:oledlib/oled_draw.c ****                             WriteByteBuffer(bRow, x + iCol, temp);
 3637              		.loc 1 774 37 view .LVU982
 3638 00ae 019B     		ldr	r3, [sp, #4]
 3639 00b0 1844     		add	r0, r0, r3
 3640 00b2 FFF7FEFF 		bl	pgm_read_byte
 3641              	.LVL470:
 774:oledlib/oled_draw.c ****                             WriteByteBuffer(bRow, x + iCol, temp);
 3642              		.loc 1 774 76 view .LVU983
 3643 00b6 00FA0AF2 		lsl	r2, r0, r10
 774:oledlib/oled_draw.c ****                             WriteByteBuffer(bRow, x + iCol, temp);
 3644              		.loc 1 774 34 view .LVU984
 3645 00ba 42EA0B02 		orr	r2, r2, fp
 3646              	.LVL471:
 775:oledlib/oled_draw.c ****                         }
 3647              		.loc 1 775 29 is_stmt 1 view .LVU985
 3648 00be D2B2     		uxtb	r2, r2
 775:oledlib/oled_draw.c ****                         }
 3649              		.loc 1 775 29 is_stmt 0 view .LVU986
 3650 00c0 2946     		mov	r1, r5
 3651 00c2 3046     		mov	r0, r6
 3652 00c4 FFF7FEFF 		bl	WriteByteBuffer
 3653              	.LVL472:
 775:oledlib/oled_draw.c ****                         }
 3654              		.loc 1 775 29 view .LVU987
 3655              	.LBE4:
 3656 00c8 36E0     		b	.L177
 3657              	.L179:
 3658              	.LBB5:
 782:oledlib/oled_draw.c ****                         }
 783:oledlib/oled_draw.c ****                         else
 784:oledlib/oled_draw.c ****                         {
 785:oledlib/oled_draw.c ****                             unsigned char temp = ReadByteBuffer(bRow, x + iCol);
 3659              		.loc 1 785 29 is_stmt 1 view .LVU988
 3660              		.loc 1 785 50 is_stmt 0 view .LVU989
 3661 00ca 2946     		mov	r1, r5
 3662 00cc 3046     		mov	r0, r6
 3663 00ce FFF7FEFF 		bl	ReadByteBuffer
 3664              	.LVL473:
 3665 00d2 8346     		mov	fp, r0
 3666              	.LVL474:
 786:oledlib/oled_draw.c ****                             temp ^= (pgm_read_byte(bitmap + (a * w) + iCol) << yOffset);
 3667              		.loc 1 786 29 is_stmt 1 view .LVU990
 3668              		.loc 1 786 69 is_stmt 0 view .LVU991
 3669 00d4 08FB0940 		mla	r0, r8, r9, r4
 3670              		.loc 1 786 38 view .LVU992
 3671 00d8 019B     		ldr	r3, [sp, #4]
 3672 00da 1844     		add	r0, r0, r3
 3673 00dc FFF7FEFF 		bl	pgm_read_byte
 3674              	.LVL475:
 3675              		.loc 1 786 77 view .LVU993
 3676 00e0 00FA0AF2 		lsl	r2, r0, r10
ARM GAS  C:\Users\GKQ\AppData\Local\Temp\ccFEMZSq.s 			page 83


 3677              		.loc 1 786 34 view .LVU994
 3678 00e4 82EA0B02 		eor	r2, r2, fp
 3679              	.LVL476:
 787:oledlib/oled_draw.c ****                             WriteByteBuffer(bRow, x + iCol, temp);
 3680              		.loc 1 787 29 is_stmt 1 view .LVU995
 3681 00e8 D2B2     		uxtb	r2, r2
 3682              		.loc 1 787 29 is_stmt 0 view .LVU996
 3683 00ea 2946     		mov	r1, r5
 3684 00ec 3046     		mov	r0, r6
 3685 00ee FFF7FEFF 		bl	WriteByteBuffer
 3686              	.LVL477:
 3687              		.loc 1 787 29 view .LVU997
 3688 00f2 21E0     		b	.L177
 3689              	.L191:
 3690              		.loc 1 787 29 view .LVU998
 3691              	.LBE5:
 3692              	.LBB6:
 788:oledlib/oled_draw.c ****                         }
 789:oledlib/oled_draw.c ****                     }
 790:oledlib/oled_draw.c ****                     if (yOffset && bRow < (SCREEN_ROW / 8) - 1 && bRow > -2)
 791:oledlib/oled_draw.c ****                     {
 792:oledlib/oled_draw.c ****                         if (GetDrawColor() == pix_white)
 793:oledlib/oled_draw.c ****                         {
 794:oledlib/oled_draw.c ****                             unsigned char temp = ReadByteBuffer(bRow + 1, x + iCol);
 3693              		.loc 1 794 29 is_stmt 1 view .LVU999
 3694              		.loc 1 794 50 is_stmt 0 view .LVU1000
 3695 00f4 06F1010B 		add	fp, r6, #1
 3696 00f8 2946     		mov	r1, r5
 3697 00fa 5846     		mov	r0, fp
 3698 00fc FFF7FEFF 		bl	ReadByteBuffer
 3699              	.LVL478:
 3700 0100 0390     		str	r0, [sp, #12]
 3701              	.LVL479:
 795:oledlib/oled_draw.c ****                             temp |= pgm_read_byte(bitmap + (a * w) + iCol) >> (8 - yOffset);
 3702              		.loc 1 795 29 is_stmt 1 view .LVU1001
 3703              		.loc 1 795 68 is_stmt 0 view .LVU1002
 3704 0102 08FB0940 		mla	r0, r8, r9, r4
 3705              		.loc 1 795 37 view .LVU1003
 3706 0106 019B     		ldr	r3, [sp, #4]
 3707 0108 1844     		add	r0, r0, r3
 3708 010a FFF7FEFF 		bl	pgm_read_byte
 3709              	.LVL480:
 3710              		.loc 1 795 82 view .LVU1004
 3711 010e CAF10802 		rsb	r2, r10, #8
 3712              		.loc 1 795 76 view .LVU1005
 3713 0112 40FA02F2 		asr	r2, r0, r2
 3714              		.loc 1 795 34 view .LVU1006
 3715 0116 039B     		ldr	r3, [sp, #12]
 3716 0118 1A43     		orrs	r2, r2, r3
 3717              	.LVL481:
 796:oledlib/oled_draw.c ****                             WriteByteBuffer(bRow + 1, x + iCol, temp);
 3718              		.loc 1 796 29 is_stmt 1 view .LVU1007
 3719 011a D2B2     		uxtb	r2, r2
 3720              		.loc 1 796 29 is_stmt 0 view .LVU1008
 3721 011c 2946     		mov	r1, r5
 3722 011e 5846     		mov	r0, fp
 3723 0120 FFF7FEFF 		bl	WriteByteBuffer
ARM GAS  C:\Users\GKQ\AppData\Local\Temp\ccFEMZSq.s 			page 84


 3724              	.LVL482:
 3725              	.L176:
 3726              		.loc 1 796 29 view .LVU1009
 3727              	.LBE6:
 763:oledlib/oled_draw.c ****             {
 3728              		.loc 1 763 38 is_stmt 1 discriminator 2 view .LVU1010
 763:oledlib/oled_draw.c ****             {
 3729              		.loc 1 763 42 is_stmt 0 discriminator 2 view .LVU1011
 3730 0124 0134     		adds	r4, r4, #1
 3731              	.LVL483:
 3732              	.L174:
 763:oledlib/oled_draw.c ****             {
 3733              		.loc 1 763 28 is_stmt 1 discriminator 1 view .LVU1012
 763:oledlib/oled_draw.c ****             {
 3734              		.loc 1 763 13 is_stmt 0 discriminator 1 view .LVU1013
 3735 0126 A145     		cmp	r9, r4
 3736 0128 45DD     		ble	.L175
 765:oledlib/oled_draw.c ****                     break;
 3737              		.loc 1 765 17 is_stmt 1 view .LVU1014
 765:oledlib/oled_draw.c ****                     break;
 3738              		.loc 1 765 26 is_stmt 0 view .LVU1015
 3739 012a E519     		adds	r5, r4, r7
 765:oledlib/oled_draw.c ****                     break;
 3740              		.loc 1 765 20 view .LVU1016
 3741 012c 7F2D     		cmp	r5, #127
 3742 012e 42DC     		bgt	.L175
 767:oledlib/oled_draw.c ****                 {
 3743              		.loc 1 767 17 is_stmt 1 view .LVU1017
 767:oledlib/oled_draw.c ****                 {
 3744              		.loc 1 767 20 is_stmt 0 view .LVU1018
 3745 0130 002D     		cmp	r5, #0
 3746 0132 F7DB     		blt	.L176
 769:oledlib/oled_draw.c ****                     {
 3747              		.loc 1 769 21 is_stmt 1 view .LVU1019
 769:oledlib/oled_draw.c ****                     {
 3748              		.loc 1 769 24 is_stmt 0 view .LVU1020
 3749 0134 002E     		cmp	r6, #0
 3750 0136 97DA     		bge	.L190
 3751              	.L177:
 790:oledlib/oled_draw.c ****                     {
 3752              		.loc 1 790 21 is_stmt 1 view .LVU1021
 790:oledlib/oled_draw.c ****                     {
 3753              		.loc 1 790 24 is_stmt 0 view .LVU1022
 3754 0138 BAF1000F 		cmp	r10, #0
 3755 013c F2D0     		beq	.L176
 790:oledlib/oled_draw.c ****                     {
 3756              		.loc 1 790 33 discriminator 1 view .LVU1023
 3757 013e 062E     		cmp	r6, #6
 3758 0140 F0DC     		bgt	.L176
 792:oledlib/oled_draw.c ****                         {
 3759              		.loc 1 792 25 is_stmt 1 view .LVU1024
 792:oledlib/oled_draw.c ****                         {
 3760              		.loc 1 792 29 is_stmt 0 view .LVU1025
 3761 0142 FFF7FEFF 		bl	GetDrawColor
 3762              	.LVL484:
 792:oledlib/oled_draw.c ****                         {
 3763              		.loc 1 792 28 view .LVU1026
ARM GAS  C:\Users\GKQ\AppData\Local\Temp\ccFEMZSq.s 			page 85


 3764 0146 0128     		cmp	r0, #1
 3765 0148 D4D0     		beq	.L191
 797:oledlib/oled_draw.c ****                         }
 798:oledlib/oled_draw.c ****                         else if (GetDrawColor() == pix_black)
 3766              		.loc 1 798 30 is_stmt 1 view .LVU1027
 3767              		.loc 1 798 34 is_stmt 0 view .LVU1028
 3768 014a FFF7FEFF 		bl	GetDrawColor
 3769              	.LVL485:
 3770              		.loc 1 798 33 view .LVU1029
 3771 014e C8B9     		cbnz	r0, .L181
 3772              	.LBB7:
 799:oledlib/oled_draw.c ****                         {
 800:oledlib/oled_draw.c ****                             unsigned char temp = ReadByteBuffer(bRow + 1, x + iCol);
 3773              		.loc 1 800 29 is_stmt 1 view .LVU1030
 3774              		.loc 1 800 50 is_stmt 0 view .LVU1031
 3775 0150 06F1010B 		add	fp, r6, #1
 3776 0154 2946     		mov	r1, r5
 3777 0156 5846     		mov	r0, fp
 3778 0158 FFF7FEFF 		bl	ReadByteBuffer
 3779              	.LVL486:
 3780 015c 0390     		str	r0, [sp, #12]
 3781              	.LVL487:
 801:oledlib/oled_draw.c ****                             temp &= ~(pgm_read_byte(bitmap + (a * w) + iCol) >> (8 - yOffset));
 3782              		.loc 1 801 29 is_stmt 1 view .LVU1032
 3783              		.loc 1 801 70 is_stmt 0 view .LVU1033
 3784 015e 08FB0940 		mla	r0, r8, r9, r4
 3785              		.loc 1 801 39 view .LVU1034
 3786 0162 019B     		ldr	r3, [sp, #4]
 3787 0164 1844     		add	r0, r0, r3
 3788 0166 FFF7FEFF 		bl	pgm_read_byte
 3789              	.LVL488:
 3790              		.loc 1 801 84 view .LVU1035
 3791 016a CAF10802 		rsb	r2, r10, #8
 3792              		.loc 1 801 78 view .LVU1036
 3793 016e 40FA02F2 		asr	r2, r0, r2
 3794              		.loc 1 801 34 view .LVU1037
 3795 0172 039B     		ldr	r3, [sp, #12]
 3796 0174 23EA0202 		bic	r2, r3, r2
 3797              	.LVL489:
 802:oledlib/oled_draw.c ****                             WriteByteBuffer(bRow + 1, x + iCol, temp);
 3798              		.loc 1 802 29 is_stmt 1 view .LVU1038
 3799 0178 D2B2     		uxtb	r2, r2
 3800              		.loc 1 802 29 is_stmt 0 view .LVU1039
 3801 017a 2946     		mov	r1, r5
 3802 017c 5846     		mov	r0, fp
 3803 017e FFF7FEFF 		bl	WriteByteBuffer
 3804              	.LVL490:
 3805              		.loc 1 802 29 view .LVU1040
 3806              	.LBE7:
 3807 0182 CFE7     		b	.L176
 3808              	.L181:
 3809              	.LBB8:
 803:oledlib/oled_draw.c ****                         }
 804:oledlib/oled_draw.c ****                         else
 805:oledlib/oled_draw.c ****                         {
 806:oledlib/oled_draw.c ****                             unsigned char temp = ReadByteBuffer(bRow + 1, x + iCol);
 3810              		.loc 1 806 29 is_stmt 1 view .LVU1041
ARM GAS  C:\Users\GKQ\AppData\Local\Temp\ccFEMZSq.s 			page 86


 3811              		.loc 1 806 50 is_stmt 0 view .LVU1042
 3812 0184 06F1010B 		add	fp, r6, #1
 3813 0188 2946     		mov	r1, r5
 3814 018a 5846     		mov	r0, fp
 3815 018c FFF7FEFF 		bl	ReadByteBuffer
 3816              	.LVL491:
 3817 0190 0390     		str	r0, [sp, #12]
 3818              	.LVL492:
 807:oledlib/oled_draw.c ****                             temp ^= pgm_read_byte(bitmap + (a * w) + iCol) >> (8 - yOffset);
 3819              		.loc 1 807 29 is_stmt 1 view .LVU1043
 3820              		.loc 1 807 68 is_stmt 0 view .LVU1044
 3821 0192 08FB0940 		mla	r0, r8, r9, r4
 3822              		.loc 1 807 37 view .LVU1045
 3823 0196 019B     		ldr	r3, [sp, #4]
 3824 0198 1844     		add	r0, r0, r3
 3825 019a FFF7FEFF 		bl	pgm_read_byte
 3826              	.LVL493:
 3827              		.loc 1 807 82 view .LVU1046
 3828 019e CAF10802 		rsb	r2, r10, #8
 3829              		.loc 1 807 76 view .LVU1047
 3830 01a2 40FA02F2 		asr	r2, r0, r2
 3831              		.loc 1 807 34 view .LVU1048
 3832 01a6 039B     		ldr	r3, [sp, #12]
 3833 01a8 5A40     		eors	r2, r2, r3
 3834              	.LVL494:
 808:oledlib/oled_draw.c ****                             WriteByteBuffer(bRow + 1, x + iCol, temp);
 3835              		.loc 1 808 29 is_stmt 1 view .LVU1049
 3836 01aa D2B2     		uxtb	r2, r2
 3837              		.loc 1 808 29 is_stmt 0 view .LVU1050
 3838 01ac 2946     		mov	r1, r5
 3839 01ae 5846     		mov	r0, fp
 3840 01b0 FFF7FEFF 		bl	WriteByteBuffer
 3841              	.LVL495:
 3842              		.loc 1 808 29 view .LVU1051
 3843 01b4 B6E7     		b	.L176
 3844              	.LVL496:
 3845              	.L175:
 3846              		.loc 1 808 29 view .LVU1052
 3847              	.LBE8:
 3848              	.LBE2:
 756:oledlib/oled_draw.c ****     {
 3849              		.loc 1 756 27 is_stmt 1 discriminator 2 view .LVU1053
 756:oledlib/oled_draw.c ****     {
 3850              		.loc 1 756 28 is_stmt 0 discriminator 2 view .LVU1054
 3851 01b6 08F10108 		add	r8, r8, #1
 3852              	.LVL497:
 3853              	.L173:
 756:oledlib/oled_draw.c ****     {
 3854              		.loc 1 756 17 is_stmt 1 discriminator 1 view .LVU1055
 756:oledlib/oled_draw.c ****     {
 3855              		.loc 1 756 5 is_stmt 0 discriminator 1 view .LVU1056
 3856 01ba 029B     		ldr	r3, [sp, #8]
 3857 01bc 9845     		cmp	r8, r3
 3858 01be 09DA     		bge	.L168
 3859              	.LBB9:
 758:oledlib/oled_draw.c ****         if (bRow > (SCREEN_ROW / 8) - 1)
 3860              		.loc 1 758 9 is_stmt 1 view .LVU1057
ARM GAS  C:\Users\GKQ\AppData\Local\Temp\ccFEMZSq.s 			page 87


 758:oledlib/oled_draw.c ****         if (bRow > (SCREEN_ROW / 8) - 1)
 3861              		.loc 1 758 13 is_stmt 0 view .LVU1058
 3862 01c0 009B     		ldr	r3, [sp]
 3863 01c2 08EB0306 		add	r6, r8, r3
 3864              	.LVL498:
 759:oledlib/oled_draw.c ****             break;
 3865              		.loc 1 759 9 is_stmt 1 view .LVU1059
 759:oledlib/oled_draw.c ****             break;
 3866              		.loc 1 759 12 is_stmt 0 view .LVU1060
 3867 01c6 072E     		cmp	r6, #7
 3868 01c8 04DC     		bgt	.L168
 761:oledlib/oled_draw.c ****         {
 3869              		.loc 1 761 9 is_stmt 1 view .LVU1061
 761:oledlib/oled_draw.c ****         {
 3870              		.loc 1 761 12 is_stmt 0 view .LVU1062
 3871 01ca B6F1FF3F 		cmp	r6, #-1
 3872 01ce F2DB     		blt	.L175
 763:oledlib/oled_draw.c ****             {
 3873              		.loc 1 763 23 view .LVU1063
 3874 01d0 0024     		movs	r4, #0
 3875 01d2 A8E7     		b	.L174
 3876              	.LVL499:
 3877              	.L168:
 763:oledlib/oled_draw.c ****             {
 3878              		.loc 1 763 23 view .LVU1064
 3879              	.LBE9:
 809:oledlib/oled_draw.c ****                         }
 810:oledlib/oled_draw.c ****                     }
 811:oledlib/oled_draw.c ****                 }
 812:oledlib/oled_draw.c ****             }
 813:oledlib/oled_draw.c ****         }
 814:oledlib/oled_draw.c ****     }
 815:oledlib/oled_draw.c **** }
 3880              		.loc 1 815 1 view .LVU1065
 3881 01d4 05B0     		add	sp, sp, #20
 3882              	.LCFI49:
 3883              		.cfi_def_cfa_offset 36
 3884              	.LVL500:
 3885              		.loc 1 815 1 view .LVU1066
 3886              		@ sp needed
 3887 01d6 BDE8F08F 		pop	{r4, r5, r6, r7, r8, r9, r10, fp, pc}
 3888              		.loc 1 815 1 view .LVU1067
 3889              		.cfi_endproc
 3890              	.LFE28:
 3892              		.section	.text.DrawSlowBitmap,"ax",%progbits
 3893              		.align	1
 3894              		.global	DrawSlowBitmap
 3895              		.syntax unified
 3896              		.thumb
 3897              		.thumb_func
 3898              		.fpu softvfp
 3900              	DrawSlowBitmap:
 3901              	.LVL501:
 3902              	.LFB29:
 816:oledlib/oled_draw.c **** 
 817:oledlib/oled_draw.c **** void DrawSlowBitmap(int x, int y, const unsigned char *bitmap, unsigned char w, unsigned char h)
 818:oledlib/oled_draw.c **** {
ARM GAS  C:\Users\GKQ\AppData\Local\Temp\ccFEMZSq.s 			page 88


 3903              		.loc 1 818 1 is_stmt 1 view -0
 3904              		.cfi_startproc
 3905              		@ args = 4, pretend = 0, frame = 8
 3906              		@ frame_needed = 0, uses_anonymous_args = 0
 3907              		.loc 1 818 1 is_stmt 0 view .LVU1069
 3908 0000 2DE9F04F 		push	{r4, r5, r6, r7, r8, r9, r10, fp, lr}
 3909              	.LCFI50:
 3910              		.cfi_def_cfa_offset 36
 3911              		.cfi_offset 4, -36
 3912              		.cfi_offset 5, -32
 3913              		.cfi_offset 6, -28
 3914              		.cfi_offset 7, -24
 3915              		.cfi_offset 8, -20
 3916              		.cfi_offset 9, -16
 3917              		.cfi_offset 10, -12
 3918              		.cfi_offset 11, -8
 3919              		.cfi_offset 14, -4
 3920 0004 83B0     		sub	sp, sp, #12
 3921              	.LCFI51:
 3922              		.cfi_def_cfa_offset 48
 3923 0006 9046     		mov	r8, r2
 3924 0008 9DF83020 		ldrb	r2, [sp, #48]	@ zero_extendqisi2
 3925              	.LVL502:
 819:oledlib/oled_draw.c ****     // no need to dar at all of we're offscreen
 820:oledlib/oled_draw.c ****     int xi, yi, byteWidth = (w + 7) / 8;
 3926              		.loc 1 820 5 is_stmt 1 view .LVU1070
 821:oledlib/oled_draw.c ****     if (x + w < 0 || x > SCREEN_COLUMN - 1 || y + h < 0 || y > SCREEN_ROW - 1)
 3927              		.loc 1 821 5 view .LVU1071
 3928              		.loc 1 821 8 is_stmt 0 view .LVU1072
 3929 000c C342     		cmn	r3, r0
 3930 000e 33D4     		bmi	.L192
 3931 0010 8246     		mov	r10, r0
 3932 0012 8B46     		mov	fp, r1
 3933 0014 9946     		mov	r9, r3
 3934 0016 DF1D     		adds	r7, r3, #7
 3935              	.LVL503:
 3936              		.loc 1 821 8 view .LVU1073
 3937 0018 FF10     		asrs	r7, r7, #3
 3938              	.LVL504:
 3939              		.loc 1 821 19 discriminator 1 view .LVU1074
 3940 001a 7F28     		cmp	r0, #127
 3941 001c 2CDC     		bgt	.L192
 3942              		.loc 1 821 49 discriminator 2 view .LVU1075
 3943 001e 0192     		str	r2, [sp, #4]
 3944              		.loc 1 821 44 discriminator 2 view .LVU1076
 3945 0020 CA42     		cmn	r2, r1
 3946 0022 29D4     		bmi	.L192
 3947              		.loc 1 821 57 discriminator 3 view .LVU1077
 3948 0024 3F29     		cmp	r1, #63
 3949 0026 27DC     		bgt	.L192
 822:oledlib/oled_draw.c ****         return;
 823:oledlib/oled_draw.c ****     for (yi = 0; yi < h; yi++)
 3950              		.loc 1 823 13 view .LVU1078
 3951 0028 0025     		movs	r5, #0
 3952 002a 20E0     		b	.L195
 3953              	.LVL505:
 3954              	.L196:
ARM GAS  C:\Users\GKQ\AppData\Local\Temp\ccFEMZSq.s 			page 89


 824:oledlib/oled_draw.c ****     {
 825:oledlib/oled_draw.c ****         for (xi = 0; xi < w; xi++)
 826:oledlib/oled_draw.c ****         {
 827:oledlib/oled_draw.c ****             if (pgm_read_byte(bitmap + yi * byteWidth + xi / 8) & (128 >> (xi & 7)))
 3955              		.loc 1 827 55 view .LVU1079
 3956 002c 00EBE300 		add	r0, r0, r3, asr #3
 3957              		.loc 1 827 17 view .LVU1080
 3958 0030 4044     		add	r0, r0, r8
 3959 0032 FFF7FEFF 		bl	pgm_read_byte
 3960              	.LVL506:
 3961              		.loc 1 827 79 view .LVU1081
 3962 0036 04F00702 		and	r2, r4, #7
 3963              		.loc 1 827 72 view .LVU1082
 3964 003a 8023     		movs	r3, #128
 3965 003c 1341     		asrs	r3, r3, r2
 3966              		.loc 1 827 16 view .LVU1083
 3967 003e 1842     		tst	r0, r3
 3968 0040 09D1     		bne	.L202
 3969              	.L197:
 825:oledlib/oled_draw.c ****         {
 3970              		.loc 1 825 30 is_stmt 1 discriminator 2 view .LVU1084
 825:oledlib/oled_draw.c ****         {
 3971              		.loc 1 825 32 is_stmt 0 discriminator 2 view .LVU1085
 3972 0042 0134     		adds	r4, r4, #1
 3973              	.LVL507:
 3974              	.L199:
 825:oledlib/oled_draw.c ****         {
 3975              		.loc 1 825 22 is_stmt 1 discriminator 1 view .LVU1086
 825:oledlib/oled_draw.c ****         {
 3976              		.loc 1 825 9 is_stmt 0 discriminator 1 view .LVU1087
 3977 0044 A145     		cmp	r9, r4
 3978 0046 11DD     		ble	.L203
 3979              		.loc 1 827 13 is_stmt 1 view .LVU1088
 3980              		.loc 1 827 43 is_stmt 0 view .LVU1089
 3981 0048 07FB05F0 		mul	r0, r7, r5
 3982              		.loc 1 827 60 view .LVU1090
 3983 004c 2346     		mov	r3, r4
 3984 004e 002C     		cmp	r4, #0
 3985 0050 ECDA     		bge	.L196
 3986              		.loc 1 827 60 view .LVU1091
 3987 0052 E31D     		adds	r3, r4, #7
 3988 0054 EAE7     		b	.L196
 3989              	.L202:
 828:oledlib/oled_draw.c ****             {
 829:oledlib/oled_draw.c ****                 SetPointBuffer(x + xi, y + yi, GetDrawColor());
 3990              		.loc 1 829 17 is_stmt 1 view .LVU1092
 3991 0056 05EB0B06 		add	r6, r5, fp
 3992              		.loc 1 829 48 is_stmt 0 view .LVU1093
 3993 005a FFF7FEFF 		bl	GetDrawColor
 3994              	.LVL508:
 3995 005e 0246     		mov	r2, r0
 3996              		.loc 1 829 17 view .LVU1094
 3997 0060 3146     		mov	r1, r6
 3998 0062 04EB0A00 		add	r0, r4, r10
 3999 0066 FFF7FEFF 		bl	SetPointBuffer
 4000              	.LVL509:
 4001 006a EAE7     		b	.L197
ARM GAS  C:\Users\GKQ\AppData\Local\Temp\ccFEMZSq.s 			page 90


 4002              	.L203:
 823:oledlib/oled_draw.c ****     {
 4003              		.loc 1 823 26 is_stmt 1 discriminator 2 view .LVU1095
 823:oledlib/oled_draw.c ****     {
 4004              		.loc 1 823 28 is_stmt 0 discriminator 2 view .LVU1096
 4005 006c 0135     		adds	r5, r5, #1
 4006              	.LVL510:
 4007              	.L195:
 823:oledlib/oled_draw.c ****     {
 4008              		.loc 1 823 18 is_stmt 1 discriminator 1 view .LVU1097
 823:oledlib/oled_draw.c ****     {
 4009              		.loc 1 823 5 is_stmt 0 discriminator 1 view .LVU1098
 4010 006e 019B     		ldr	r3, [sp, #4]
 4011 0070 AB42     		cmp	r3, r5
 4012 0072 01DD     		ble	.L192
 825:oledlib/oled_draw.c ****         {
 4013              		.loc 1 825 17 view .LVU1099
 4014 0074 0024     		movs	r4, #0
 4015 0076 E5E7     		b	.L199
 4016              	.LVL511:
 4017              	.L192:
 830:oledlib/oled_draw.c ****             }
 831:oledlib/oled_draw.c ****         }
 832:oledlib/oled_draw.c ****     }
 833:oledlib/oled_draw.c **** }
 4018              		.loc 1 833 1 view .LVU1100
 4019 0078 03B0     		add	sp, sp, #12
 4020              	.LCFI52:
 4021              		.cfi_def_cfa_offset 36
 4022              		@ sp needed
 4023 007a BDE8F08F 		pop	{r4, r5, r6, r7, r8, r9, r10, fp, pc}
 4024              		.loc 1 833 1 view .LVU1101
 4025              		.cfi_endproc
 4026              	.LFE29:
 4028              		.section	.text.DrawChar,"ax",%progbits
 4029              		.align	1
 4030              		.global	DrawChar
 4031              		.syntax unified
 4032              		.thumb
 4033              		.thumb_func
 4034              		.fpu softvfp
 4036              	DrawChar:
 4037              	.LVL512:
 4038              	.LFB30:
 834:oledlib/oled_draw.c **** 
 835:oledlib/oled_draw.c **** void DrawChar(int x, int y, unsigned char c)
 836:oledlib/oled_draw.c **** {
 4039              		.loc 1 836 1 is_stmt 1 view -0
 4040              		.cfi_startproc
 4041              		@ args = 0, pretend = 0, frame = 24
 4042              		@ frame_needed = 0, uses_anonymous_args = 0
 4043              		.loc 1 836 1 is_stmt 0 view .LVU1103
 4044 0000 2DE9F04F 		push	{r4, r5, r6, r7, r8, r9, r10, fp, lr}
 4045              	.LCFI53:
 4046              		.cfi_def_cfa_offset 36
 4047              		.cfi_offset 4, -36
 4048              		.cfi_offset 5, -32
ARM GAS  C:\Users\GKQ\AppData\Local\Temp\ccFEMZSq.s 			page 91


 4049              		.cfi_offset 6, -28
 4050              		.cfi_offset 7, -24
 4051              		.cfi_offset 8, -20
 4052              		.cfi_offset 9, -16
 4053              		.cfi_offset 10, -12
 4054              		.cfi_offset 11, -8
 4055              		.cfi_offset 14, -4
 4056 0004 87B0     		sub	sp, sp, #28
 4057              	.LCFI54:
 4058              		.cfi_def_cfa_offset 64
 4059 0006 8346     		mov	fp, r0
 4060 0008 8946     		mov	r9, r1
 4061 000a 0592     		str	r2, [sp, #20]
 837:oledlib/oled_draw.c ****     int i, j;
 4062              		.loc 1 837 5 is_stmt 1 view .LVU1104
 838:oledlib/oled_draw.c ****     unsigned char draw_background, bg, a, b, size, color;
 4063              		.loc 1 838 5 view .LVU1105
 839:oledlib/oled_draw.c ****     size = GetFontSize();
 4064              		.loc 1 839 5 view .LVU1106
 4065              		.loc 1 839 12 is_stmt 0 view .LVU1107
 4066 000c FFF7FEFF 		bl	GetFontSize
 4067              	.LVL513:
 4068              		.loc 1 839 12 view .LVU1108
 4069 0010 0746     		mov	r7, r0
 4070              	.LVL514:
 840:oledlib/oled_draw.c ****     color = GetDrawColor();
 4071              		.loc 1 840 5 is_stmt 1 view .LVU1109
 4072              		.loc 1 840 13 is_stmt 0 view .LVU1110
 4073 0012 FFF7FEFF 		bl	GetDrawColor
 4074              	.LVL515:
 4075 0016 0390     		str	r0, [sp, #12]
 4076              	.LVL516:
 841:oledlib/oled_draw.c ****     bg = GetTextBgMode();
 4077              		.loc 1 841 5 is_stmt 1 view .LVU1111
 4078              		.loc 1 841 10 is_stmt 0 view .LVU1112
 4079 0018 FFF7FEFF 		bl	GetTextBgMode
 4080              	.LVL517:
 4081 001c 0490     		str	r0, [sp, #16]
 4082              	.LVL518:
 842:oledlib/oled_draw.c ****     draw_background = bg != color;
 4083              		.loc 1 842 5 is_stmt 1 view .LVU1113
 843:oledlib/oled_draw.c ****     if ((x >= SCREEN_COLUMN) ||     // Clip right
 4084              		.loc 1 843 5 view .LVU1114
 4085              		.loc 1 843 8 is_stmt 0 view .LVU1115
 4086 001e BBF17F0F 		cmp	fp, #127
 4087 0022 55DC     		bgt	.L204
 4088              		.loc 1 843 30 discriminator 1 view .LVU1116
 4089 0024 B9F13F0F 		cmp	r9, #63
 4090 0028 52DC     		bgt	.L204
 844:oledlib/oled_draw.c ****         (y >= SCREEN_ROW) ||        // Clip bottom
 845:oledlib/oled_draw.c ****         ((x + 5 * size - 1) < 0) || // Clip left
 4091              		.loc 1 845 17 view .LVU1117
 4092 002a 3D46     		mov	r5, r7
 4093 002c 07EB8703 		add	r3, r7, r7, lsl #2
 4094              		.loc 1 845 13 view .LVU1118
 4095 0030 5B44     		add	r3, r3, fp
 844:oledlib/oled_draw.c ****         (y >= SCREEN_ROW) ||        // Clip bottom
ARM GAS  C:\Users\GKQ\AppData\Local\Temp\ccFEMZSq.s 			page 92


 4096              		.loc 1 844 27 view .LVU1119
 4097 0032 002B     		cmp	r3, #0
 4098 0034 4CDD     		ble	.L204
 846:oledlib/oled_draw.c ****         ((y + 8 * size - 1) < 0)    // Clip top
 4099              		.loc 1 846 13 view .LVU1120
 4100 0036 09EBC703 		add	r3, r9, r7, lsl #3
 845:oledlib/oled_draw.c ****         ((y + 8 * size - 1) < 0)    // Clip top
 4101              		.loc 1 845 34 view .LVU1121
 4102 003a 002B     		cmp	r3, #0
 4103 003c 48DD     		ble	.L204
 847:oledlib/oled_draw.c ****     )
 848:oledlib/oled_draw.c ****     {
 849:oledlib/oled_draw.c ****         return;
 850:oledlib/oled_draw.c ****     }
 851:oledlib/oled_draw.c **** 
 852:oledlib/oled_draw.c ****     for (i = 0; i < 6; i++)
 4104              		.loc 1 852 12 view .LVU1122
 4105 003e 4FF0000A 		mov	r10, #0
 4106 0042 33E0     		b	.L206
 4107              	.LVL519:
 4108              	.L218:
 4109              	.LBB10:
 4110              	.LBB11:
 853:oledlib/oled_draw.c ****     {
 854:oledlib/oled_draw.c ****         int line;
 855:oledlib/oled_draw.c ****         if (i == 5)
 856:oledlib/oled_draw.c ****         {
 857:oledlib/oled_draw.c ****             line = 0x0;
 858:oledlib/oled_draw.c ****         }
 859:oledlib/oled_draw.c ****         else
 860:oledlib/oled_draw.c ****         {
 861:oledlib/oled_draw.c ****             line = pgm_read_byte(font5x7 + (c * 5) + i);
 862:oledlib/oled_draw.c ****         }
 863:oledlib/oled_draw.c **** 
 864:oledlib/oled_draw.c ****         for (j = 0; j < 8; j++)
 865:oledlib/oled_draw.c ****         {
 866:oledlib/oled_draw.c ****             unsigned char draw_color = (line & 0x1) ? color : bg;
 4111              		.loc 1 866 27 view .LVU1123
 4112 0044 049B     		ldr	r3, [sp, #16]
 4113              	.LVL520:
 4114              		.loc 1 866 27 view .LVU1124
 4115 0046 0193     		str	r3, [sp, #4]
 4116 0048 22E0     		b	.L208
 4117              	.LVL521:
 4118              	.L211:
 867:oledlib/oled_draw.c **** 
 868:oledlib/oled_draw.c ****             if (draw_color || draw_background)
 869:oledlib/oled_draw.c ****             {
 870:oledlib/oled_draw.c ****                 for (a = 0; a < size; a++)
 871:oledlib/oled_draw.c ****                 {
 872:oledlib/oled_draw.c ****                     for (b = 0; b < size; b++)
 873:oledlib/oled_draw.c ****                     {
 874:oledlib/oled_draw.c ****                         SetPointBuffer(x + (i * size) + a, y + (j * size) + b, draw_color);
 4119              		.loc 1 874 25 is_stmt 1 discriminator 3 view .LVU1125
 4120              		.loc 1 874 42 is_stmt 0 discriminator 3 view .LVU1126
 4121 004a 0AFB05B0 		mla	r0, r10, r5, fp
 4122              		.loc 1 874 62 discriminator 3 view .LVU1127
ARM GAS  C:\Users\GKQ\AppData\Local\Temp\ccFEMZSq.s 			page 93


 4123 004e 08FB0591 		mla	r1, r8, r5, r9
 4124              		.loc 1 874 25 discriminator 3 view .LVU1128
 4125 0052 019A     		ldr	r2, [sp, #4]
 4126 0054 2144     		add	r1, r1, r4
 4127 0056 3044     		add	r0, r0, r6
 4128 0058 FFF7FEFF 		bl	SetPointBuffer
 4129              	.LVL522:
 872:oledlib/oled_draw.c ****                     {
 4130              		.loc 1 872 43 is_stmt 1 discriminator 3 view .LVU1129
 872:oledlib/oled_draw.c ****                     {
 4131              		.loc 1 872 44 is_stmt 0 discriminator 3 view .LVU1130
 4132 005c 0134     		adds	r4, r4, #1
 4133              	.LVL523:
 872:oledlib/oled_draw.c ****                     {
 4134              		.loc 1 872 44 discriminator 3 view .LVU1131
 4135 005e E4B2     		uxtb	r4, r4
 4136              	.LVL524:
 4137              	.L213:
 872:oledlib/oled_draw.c ****                     {
 4138              		.loc 1 872 33 is_stmt 1 discriminator 1 view .LVU1132
 872:oledlib/oled_draw.c ****                     {
 4139              		.loc 1 872 21 is_stmt 0 discriminator 1 view .LVU1133
 4140 0060 BC42     		cmp	r4, r7
 4141 0062 F2D3     		bcc	.L211
 870:oledlib/oled_draw.c ****                 {
 4142              		.loc 1 870 39 is_stmt 1 discriminator 2 view .LVU1134
 870:oledlib/oled_draw.c ****                 {
 4143              		.loc 1 870 40 is_stmt 0 discriminator 2 view .LVU1135
 4144 0064 0136     		adds	r6, r6, #1
 4145              	.LVL525:
 870:oledlib/oled_draw.c ****                 {
 4146              		.loc 1 870 40 discriminator 2 view .LVU1136
 4147 0066 F6B2     		uxtb	r6, r6
 4148              	.LVL526:
 4149              	.L212:
 870:oledlib/oled_draw.c ****                 {
 4150              		.loc 1 870 29 is_stmt 1 discriminator 1 view .LVU1137
 870:oledlib/oled_draw.c ****                 {
 4151              		.loc 1 870 17 is_stmt 0 discriminator 1 view .LVU1138
 4152 0068 BE42     		cmp	r6, r7
 4153 006a 03D2     		bcs	.L210
 872:oledlib/oled_draw.c ****                     {
 4154              		.loc 1 872 28 view .LVU1139
 4155 006c 0024     		movs	r4, #0
 4156 006e F7E7     		b	.L213
 4157              	.LVL527:
 4158              	.L219:
 872:oledlib/oled_draw.c ****                     {
 4159              		.loc 1 872 28 view .LVU1140
 4160 0070 0026     		movs	r6, #0
 4161 0072 F9E7     		b	.L212
 4162              	.L210:
 875:oledlib/oled_draw.c ****                     }
 876:oledlib/oled_draw.c ****                 }
 877:oledlib/oled_draw.c ****             }
 878:oledlib/oled_draw.c ****             line >>= 1;
 4163              		.loc 1 878 13 is_stmt 1 discriminator 2 view .LVU1141
ARM GAS  C:\Users\GKQ\AppData\Local\Temp\ccFEMZSq.s 			page 94


 4164              		.loc 1 878 18 is_stmt 0 discriminator 2 view .LVU1142
 4165 0074 029B     		ldr	r3, [sp, #8]
 4166 0076 5B10     		asrs	r3, r3, #1
 4167 0078 0293     		str	r3, [sp, #8]
 4168              	.LVL528:
 4169              		.loc 1 878 18 discriminator 2 view .LVU1143
 4170              	.LBE11:
 864:oledlib/oled_draw.c ****         {
 4171              		.loc 1 864 28 is_stmt 1 discriminator 2 view .LVU1144
 864:oledlib/oled_draw.c ****         {
 4172              		.loc 1 864 29 is_stmt 0 discriminator 2 view .LVU1145
 4173 007a 08F10108 		add	r8, r8, #1
 4174              	.LVL529:
 4175              	.L214:
 864:oledlib/oled_draw.c ****         {
 4176              		.loc 1 864 21 is_stmt 1 discriminator 1 view .LVU1146
 864:oledlib/oled_draw.c ****         {
 4177              		.loc 1 864 9 is_stmt 0 discriminator 1 view .LVU1147
 4178 007e B8F1070F 		cmp	r8, #7
 4179 0082 11DC     		bgt	.L223
 4180              	.LBB12:
 866:oledlib/oled_draw.c **** 
 4181              		.loc 1 866 13 is_stmt 1 view .LVU1148
 866:oledlib/oled_draw.c **** 
 4182              		.loc 1 866 27 is_stmt 0 view .LVU1149
 4183 0084 029B     		ldr	r3, [sp, #8]
 4184 0086 13F0010F 		tst	r3, #1
 4185 008a DBD0     		beq	.L218
 4186 008c 039B     		ldr	r3, [sp, #12]
 4187 008e 0193     		str	r3, [sp, #4]
 4188              	.L208:
 4189              	.LVL530:
 868:oledlib/oled_draw.c ****             {
 4190              		.loc 1 868 13 is_stmt 1 discriminator 4 view .LVU1150
 868:oledlib/oled_draw.c ****             {
 4191              		.loc 1 868 16 is_stmt 0 discriminator 4 view .LVU1151
 4192 0090 019B     		ldr	r3, [sp, #4]
 4193 0092 002B     		cmp	r3, #0
 4194 0094 ECD1     		bne	.L219
 868:oledlib/oled_draw.c ****             {
 4195              		.loc 1 868 28 discriminator 1 view .LVU1152
 4196 0096 039B     		ldr	r3, [sp, #12]
 4197 0098 049A     		ldr	r2, [sp, #16]
 4198 009a 9342     		cmp	r3, r2
 4199 009c EAD0     		beq	.L210
 4200 009e 019E     		ldr	r6, [sp, #4]
 4201 00a0 E2E7     		b	.L212
 4202              	.LVL531:
 4203              	.L217:
 868:oledlib/oled_draw.c ****             {
 4204              		.loc 1 868 28 discriminator 1 view .LVU1153
 4205              	.LBE12:
 857:oledlib/oled_draw.c ****         }
 4206              		.loc 1 857 18 view .LVU1154
 4207 00a2 0023     		movs	r3, #0
 4208 00a4 0293     		str	r3, [sp, #8]
 4209 00a6 10E0     		b	.L207
ARM GAS  C:\Users\GKQ\AppData\Local\Temp\ccFEMZSq.s 			page 95


 4210              	.LVL532:
 4211              	.L223:
 857:oledlib/oled_draw.c ****         }
 4212              		.loc 1 857 18 view .LVU1155
 4213              	.LBE10:
 852:oledlib/oled_draw.c ****     {
 4214              		.loc 1 852 24 is_stmt 1 discriminator 2 view .LVU1156
 852:oledlib/oled_draw.c ****     {
 4215              		.loc 1 852 25 is_stmt 0 discriminator 2 view .LVU1157
 4216 00a8 0AF1010A 		add	r10, r10, #1
 4217              	.LVL533:
 4218              	.L206:
 852:oledlib/oled_draw.c ****     {
 4219              		.loc 1 852 17 is_stmt 1 discriminator 1 view .LVU1158
 852:oledlib/oled_draw.c ****     {
 4220              		.loc 1 852 5 is_stmt 0 discriminator 1 view .LVU1159
 4221 00ac BAF1050F 		cmp	r10, #5
 4222 00b0 0EDC     		bgt	.L204
 4223              	.LBB13:
 854:oledlib/oled_draw.c ****         if (i == 5)
 4224              		.loc 1 854 9 is_stmt 1 view .LVU1160
 855:oledlib/oled_draw.c ****         {
 4225              		.loc 1 855 9 view .LVU1161
 855:oledlib/oled_draw.c ****         {
 4226              		.loc 1 855 12 is_stmt 0 view .LVU1162
 4227 00b2 BAF1050F 		cmp	r10, #5
 4228 00b6 F4D0     		beq	.L217
 861:oledlib/oled_draw.c ****         }
 4229              		.loc 1 861 13 is_stmt 1 view .LVU1163
 861:oledlib/oled_draw.c ****         }
 4230              		.loc 1 861 47 is_stmt 0 view .LVU1164
 4231 00b8 059B     		ldr	r3, [sp, #20]
 4232 00ba 03EB8303 		add	r3, r3, r3, lsl #2
 861:oledlib/oled_draw.c ****         }
 4233              		.loc 1 861 52 view .LVU1165
 4234 00be 5344     		add	r3, r3, r10
 861:oledlib/oled_draw.c ****         }
 4235              		.loc 1 861 20 view .LVU1166
 4236 00c0 0548     		ldr	r0, .L224
 4237 00c2 1844     		add	r0, r0, r3
 4238 00c4 FFF7FEFF 		bl	pgm_read_byte
 4239              	.LVL534:
 861:oledlib/oled_draw.c ****         }
 4240              		.loc 1 861 18 view .LVU1167
 4241 00c8 0290     		str	r0, [sp, #8]
 4242              	.LVL535:
 4243              	.L207:
 857:oledlib/oled_draw.c ****         }
 4244              		.loc 1 857 18 discriminator 1 view .LVU1168
 4245 00ca 4FF00008 		mov	r8, #0
 4246 00ce D6E7     		b	.L214
 4247              	.LVL536:
 4248              	.L204:
 857:oledlib/oled_draw.c ****         }
 4249              		.loc 1 857 18 discriminator 1 view .LVU1169
 4250              	.LBE13:
 879:oledlib/oled_draw.c ****         }
ARM GAS  C:\Users\GKQ\AppData\Local\Temp\ccFEMZSq.s 			page 96


 880:oledlib/oled_draw.c ****     }
 881:oledlib/oled_draw.c **** }
 4251              		.loc 1 881 1 view .LVU1170
 4252 00d0 07B0     		add	sp, sp, #28
 4253              	.LCFI55:
 4254              		.cfi_def_cfa_offset 36
 4255              		@ sp needed
 4256 00d2 BDE8F08F 		pop	{r4, r5, r6, r7, r8, r9, r10, fp, pc}
 4257              	.LVL537:
 4258              	.L225:
 4259              		.loc 1 881 1 view .LVU1171
 4260 00d6 00BF     		.align	2
 4261              	.L224:
 4262 00d8 00000000 		.word	font5x7
 4263              		.cfi_endproc
 4264              	.LFE30:
 4266              		.section	.text.DrawString,"ax",%progbits
 4267              		.align	1
 4268              		.global	DrawString
 4269              		.syntax unified
 4270              		.thumb
 4271              		.thumb_func
 4272              		.fpu softvfp
 4274              	DrawString:
 4275              	.LVL538:
 4276              	.LFB31:
 882:oledlib/oled_draw.c **** 
 883:oledlib/oled_draw.c **** void DrawString(int x, int y, char *str)
 884:oledlib/oled_draw.c **** {
 4277              		.loc 1 884 1 is_stmt 1 view -0
 4278              		.cfi_startproc
 4279              		@ args = 0, pretend = 0, frame = 0
