ARM GAS  C:\Users\GKQ\AppData\Local\Temp\ccJCQwHz.s 			page 1


   1              		.cpu cortex-m3
   2              		.eabi_attribute 20, 1
   3              		.eabi_attribute 21, 1
   4              		.eabi_attribute 23, 3
   5              		.eabi_attribute 24, 1
   6              		.eabi_attribute 25, 1
   7              		.eabi_attribute 26, 1
   8              		.eabi_attribute 30, 1
   9              		.eabi_attribute 34, 1
  10              		.eabi_attribute 18, 4
  11              		.file	"oled_font.c"
  12              		.text
  13              	.Ltext0:
  14              		.cfi_sections	.debug_frame
  15              		.section	.text.SetTextBkMode,"ax",%progbits
  16              		.align	1
  17              		.global	SetTextBkMode
  18              		.arch armv7-m
  19              		.syntax unified
  20              		.thumb
  21              		.thumb_func
  22              		.fpu softvfp
  24              	SetTextBkMode:
  25              	.LVL0:
  26              	.LFB0:
  27              		.file 1 "oledlib/oled_font.c"
   1:oledlib/oled_font.c **** #include "oled_font.h"
   2:oledlib/oled_font.c **** 
   3:oledlib/oled_font.c **** static Type_textbk _TextBk=TEXT_BK_NULL;
   4:oledlib/oled_font.c **** static unsigned char _FontSize=1;
   5:oledlib/oled_font.c **** 
   6:oledlib/oled_font.c **** void SetTextBkMode(Type_textbk value)
   7:oledlib/oled_font.c **** {
  28              		.loc 1 7 1 view -0
  29              		.cfi_startproc
  30              		@ args = 0, pretend = 0, frame = 0
  31              		@ frame_needed = 0, uses_anonymous_args = 0
  32              		@ link register save eliminated.
   8:oledlib/oled_font.c **** 	_TextBk=value;
  33              		.loc 1 8 2 view .LVU1
  34              		.loc 1 8 9 is_stmt 0 view .LVU2
  35 0000 014B     		ldr	r3, .L2
  36 0002 1870     		strb	r0, [r3]
   9:oledlib/oled_font.c **** }
  37              		.loc 1 9 1 view .LVU3
  38 0004 7047     		bx	lr
  39              	.L3:
  40 0006 00BF     		.align	2
  41              	.L2:
  42 0008 00000000 		.word	.LANCHOR0
  43              		.cfi_endproc
  44              	.LFE0:
  46              		.section	.text.GetTextBgMode,"ax",%progbits
  47              		.align	1
  48              		.global	GetTextBgMode
  49              		.syntax unified
  50              		.thumb
ARM GAS  C:\Users\GKQ\AppData\Local\Temp\ccJCQwHz.s 			page 2


  51              		.thumb_func
  52              		.fpu softvfp
  54              	GetTextBgMode:
  55              	.LFB1:
  10:oledlib/oled_font.c **** 
  11:oledlib/oled_font.c **** Type_textbk GetTextBgMode(void)
  12:oledlib/oled_font.c **** {
  56              		.loc 1 12 1 is_stmt 1 view -0
  57              		.cfi_startproc
  58              		@ args = 0, pretend = 0, frame = 0
  59              		@ frame_needed = 0, uses_anonymous_args = 0
  60              		@ link register save eliminated.
  13:oledlib/oled_font.c **** 	return _TextBk;
  61              		.loc 1 13 2 view .LVU5
  14:oledlib/oled_font.c **** }
  62              		.loc 1 14 1 is_stmt 0 view .LVU6
  63 0000 014B     		ldr	r3, .L5
  64 0002 1878     		ldrb	r0, [r3]	@ zero_extendqisi2
  65 0004 7047     		bx	lr
  66              	.L6:
  67 0006 00BF     		.align	2
  68              	.L5:
  69 0008 00000000 		.word	.LANCHOR0
  70              		.cfi_endproc
  71              	.LFE1:
  73              		.section	.text.SetFontSize,"ax",%progbits
  74              		.align	1
  75              		.global	SetFontSize
  76              		.syntax unified
  77              		.thumb
  78              		.thumb_func
  79              		.fpu softvfp
  81              	SetFontSize:
  82              	.LVL1:
  83              	.LFB2:
  15:oledlib/oled_font.c **** 
  16:oledlib/oled_font.c **** void SetFontSize(unsigned char value)
  17:oledlib/oled_font.c **** {
  84              		.loc 1 17 1 is_stmt 1 view -0
  85              		.cfi_startproc
  86              		@ args = 0, pretend = 0, frame = 0
  87              		@ frame_needed = 0, uses_anonymous_args = 0
  88              		@ link register save eliminated.
  18:oledlib/oled_font.c **** 	if(value>=1)
  89              		.loc 1 18 2 view .LVU8
  90              		.loc 1 18 4 is_stmt 0 view .LVU9
  91 0000 08B1     		cbz	r0, .L7
  19:oledlib/oled_font.c **** 		_FontSize=value;
  92              		.loc 1 19 3 is_stmt 1 view .LVU10
  93              		.loc 1 19 12 is_stmt 0 view .LVU11
  94 0002 014A     		ldr	r2, .L9
  95 0004 1070     		strb	r0, [r2]
  96              	.L7:
  20:oledlib/oled_font.c **** 
  21:oledlib/oled_font.c **** }
  97              		.loc 1 21 1 view .LVU12
  98 0006 7047     		bx	lr
ARM GAS  C:\Users\GKQ\AppData\Local\Temp\ccJCQwHz.s 			page 3


  99              	.L10:
 100              		.align	2
 101              	.L9:
 102 0008 00000000 		.word	.LANCHOR1
 103              		.cfi_endproc
 104              	.LFE2:
 106              		.section	.text.GetFontSize,"ax",%progbits
 107              		.align	1
 108              		.global	GetFontSize
 109              		.syntax unified
 110              		.thumb
 111              		.thumb_func
 112              		.fpu softvfp
 114              	GetFontSize:
 115              	.LFB3:
  22:oledlib/oled_font.c **** unsigned char GetFontSize(void)
  23:oledlib/oled_font.c **** {
 116              		.loc 1 23 1 is_stmt 1 view -0
 117              		.cfi_startproc
 118              		@ args = 0, pretend = 0, frame = 0
 119              		@ frame_needed = 0, uses_anonymous_args = 0
 120              		@ link register save eliminated.
  24:oledlib/oled_font.c **** 
  25:oledlib/oled_font.c **** 	return _FontSize;
 121              		.loc 1 25 2 view .LVU14
  26:oledlib/oled_font.c **** }
 122              		.loc 1 26 1 is_stmt 0 view .LVU15
 123 0000 014B     		ldr	r3, .L12
 124 0002 1878     		ldrb	r0, [r3]	@ zero_extendqisi2
 125 0004 7047     		bx	lr
 126              	.L13:
 127 0006 00BF     		.align	2
 128              	.L12:
 129 0008 00000000 		.word	.LANCHOR1
 130              		.cfi_endproc
 131              	.LFE3:
 133              		.global	F8X16
 134              		.global	F6x8
 135              		.global	font5x7
 136              		.section	.bss._TextBk,"aw",%nobits
 137              		.set	.LANCHOR0,. + 0
 140              	_TextBk:
 141 0000 00       		.space	1
 142              		.section	.data._FontSize,"aw"
 143              		.set	.LANCHOR1,. + 0
 146              	_FontSize:
 147 0000 01       		.byte	1
 148              		.section	.rodata.F6x8,"a"
 149              		.align	2
 152              	F6x8:
 153 0000 00000000 		.ascii	"\000\000\000\000\000\000"
 153      0000
 154 0006 0000002F 		.ascii	"\000\000\000/\000\000"
 154      0000
 155 000c 00000700 		.ascii	"\000\000\007\000\007\000"
 155      0700
 156 0012 00147F14 		.ascii	"\000\024\177\024\177\024"
ARM GAS  C:\Users\GKQ\AppData\Local\Temp\ccJCQwHz.s 			page 4


 156      7F14
 157 0018 00242A7F 		.ascii	"\000$*\177*\022"
 157      2A12
 158 001e 00626408 		.ascii	"\000bd\010\023#"
 158      1323
 159 0024 00364955 		.ascii	"\0006IU\"P"
 159      2250
 160 002a 00000503 		.ascii	"\000\000\005\003\000\000"
 160      0000
 161 0030 00001C22 		.ascii	"\000\000\034\"A\000"
 161      4100
 162 0036 00004122 		.ascii	"\000\000A\"\034\000"
 162      1C00
 163 003c 0014083E 		.ascii	"\000\024\010>\010\024"
 163      0814
 164 0042 0008083E 		.ascii	"\000\010\010>\010\010"
 164      0808
 165 0048 000000A0 		.ascii	"\000\000\000\240`\000"
 165      6000
 166 004e 00080808 		.ascii	"\000\010\010\010\010\010"
 166      0808
 167 0054 00006060 		.ascii	"\000\000``\000\000"
 167      0000
 168 005a 00201008 		.ascii	"\000 \020\010\004\002"
 168      0402
 169 0060 003E5149 		.ascii	"\000>QIE>"
 169      453E
 170 0066 0000427F 		.ascii	"\000\000B\177@\000"
 170      4000
 171 006c 00426151 		.ascii	"\000BaQIF"
 171      4946
 172 0072 00214145 		.ascii	"\000!AEK1"
 172      4B31
 173 0078 00181412 		.ascii	"\000\030\024\022\177\020"
 173      7F10
 174 007e 00274545 		.ascii	"\000'EEE9"
 174      4539
 175 0084 003C4A49 		.ascii	"\000<JII0"
 175      4930
 176 008a 00017109 		.ascii	"\000\001q\011\005\003"
 176      0503
 177 0090 00364949 		.ascii	"\0006III6"
 177      4936
 178 0096 00064949 		.ascii	"\000\006II)\036"
 178      291E
 179 009c 00003636 		.ascii	"\000\00066\000\000"
 179      0000
 180 00a2 00005636 		.ascii	"\000\000V6\000\000"
 180      0000
 181 00a8 00081422 		.ascii	"\000\010\024\"A\000"
 181      4100
 182 00ae 00141414 		.ascii	"\000\024\024\024\024\024"
 182      1414
 183 00b4 00004122 		.ascii	"\000\000A\"\024\010"
 183      1408
 184 00ba 00020151 		.ascii	"\000\002\001Q\011\006"
 184      0906
ARM GAS  C:\Users\GKQ\AppData\Local\Temp\ccJCQwHz.s 			page 5


 185 00c0 00324959 		.ascii	"\0002IYQ>"
 185      513E
 186 00c6 007C1211 		.ascii	"\000|\022\021\022|"
 186      127C
 187 00cc 007F4949 		.ascii	"\000\177III6"
 187      4936
 188 00d2 003E4141 		.ascii	"\000>AAA\""
 188      4122
 189 00d8 007F4141 		.ascii	"\000\177AA\"\034"
 189      221C
 190 00de 007F4949 		.ascii	"\000\177IIIA"
 190      4941
 191 00e4 007F0909 		.ascii	"\000\177\011\011\011\001"
 191      0901
 192 00ea 003E4149 		.ascii	"\000>AIIz"
 192      497A
 193 00f0 007F0808 		.ascii	"\000\177\010\010\010\177"
 193      087F
 194 00f6 0000417F 		.ascii	"\000\000A\177A\000"
 194      4100
 195 00fc 00204041 		.ascii	"\000 @A?\001"
 195      3F01
 196 0102 007F0814 		.ascii	"\000\177\010\024\"A"
 196      2241
 197 0108 007F4040 		.ascii	"\000\177@@@@"
 197      4040
 198 010e 007F020C 		.ascii	"\000\177\002\014\002\177"
 198      027F
 199 0114 007F0408 		.ascii	"\000\177\004\010\020\177"
 199      107F
 200 011a 003E4141 		.ascii	"\000>AAA>"
 200      413E
 201 0120 007F0909 		.ascii	"\000\177\011\011\011\006"
 201      0906
 202 0126 003E4151 		.ascii	"\000>AQ!^"
 202      215E
 203 012c 007F0919 		.ascii	"\000\177\011\031)F"
 203      2946
 204 0132 00464949 		.ascii	"\000FIII1"
 204      4931
 205 0138 0001017F 		.ascii	"\000\001\001\177\001\001"
 205      0101
 206 013e 003F4040 		.ascii	"\000?@@@?"
 206      403F
 207 0144 001F2040 		.ascii	"\000\037 @ \037"
 207      201F
 208 014a 003F4038 		.ascii	"\000?@8@?"
 208      403F
 209 0150 00631408 		.ascii	"\000c\024\010\024c"
 209      1463
 210 0156 00070870 		.ascii	"\000\007\010p\010\007"
 210      0807
 211 015c 00615149 		.ascii	"\000aQIEC"
 211      4543
 212 0162 00007F41 		.ascii	"\000\000\177AA\000"
 212      4100
 213 0168 00552A55 		.ascii	"\000U*U*U"
ARM GAS  C:\Users\GKQ\AppData\Local\Temp\ccJCQwHz.s 			page 6


 213      2A55
 214 016e 00004141 		.ascii	"\000\000AA\177\000"
 214      7F00
 215 0174 00040201 		.ascii	"\000\004\002\001\002\004"
 215      0204
 216 017a 00404040 		.ascii	"\000@@@@@"
 216      4040
 217 0180 00000102 		.ascii	"\000\000\001\002\004\000"
 217      0400
 218 0186 00205454 		.ascii	"\000 TTTx"
 218      5478
 219 018c 007F4844 		.ascii	"\000\177HDD8"
 219      4438
 220 0192 00384444 		.ascii	"\0008DDD "
 220      4420
 221 0198 00384444 		.ascii	"\0008DDH\177"
 221      487F
 222 019e 00385454 		.ascii	"\0008TTT\030"
 222      5418
 223 01a4 00087E09 		.ascii	"\000\010~\011\001\002"
 223      0102
 224 01aa 0018A4A4 		.ascii	"\000\030\244\244\244|"
 224      A47C
 225 01b0 007F0804 		.ascii	"\000\177\010\004\004x"
 225      0478
 226 01b6 0000447D 		.ascii	"\000\000D}@\000"
 226      4000
 227 01bc 00408084 		.ascii	"\000@\200\204}\000"
 227      7D00
 228 01c2 007F1028 		.ascii	"\000\177\020(D\000"
 228      4400
 229 01c8 0000417F 		.ascii	"\000\000A\177@\000"
 229      4000
 230 01ce 007C0418 		.ascii	"\000|\004\030\004x"
 230      0478
 231 01d4 007C0804 		.ascii	"\000|\010\004\004x"
 231      0478
 232 01da 00384444 		.ascii	"\0008DDD8"
 232      4438
 233 01e0 00FC2424 		.ascii	"\000\374$$$\030"
 233      2418
 234 01e6 00182424 		.ascii	"\000\030$$\030\374"
 234      18FC
 235 01ec 007C0804 		.ascii	"\000|\010\004\004\010"
 235      0408
 236 01f2 00485454 		.ascii	"\000HTTT "
 236      5420
 237 01f8 00043F44 		.ascii	"\000\004?D@ "
 237      4020
 238 01fe 003C4040 		.ascii	"\000<@@ |"
 238      207C
 239 0204 001C2040 		.ascii	"\000\034 @ \034"
 239      201C
 240 020a 003C4030 		.ascii	"\000<@0@<"
 240      403C
 241 0210 00442810 		.ascii	"\000D(\020(D"
 241      2844
ARM GAS  C:\Users\GKQ\AppData\Local\Temp\ccJCQwHz.s 			page 7


 242 0216 001CA0A0 		.ascii	"\000\034\240\240\240|"
 242      A07C
 243 021c 00446454 		.ascii	"\000DdTLD"
 243      4C44
 244 0222 14141414 		.ascii	"\024\024\024\024\024\024"
 244      1414
 245              		.section	.rodata.F8X16,"a"
 246              		.align	2
 249              	F8X16:
 250 0000 00000000 		.ascii	"\000\000\000\000\000\000\000\000\000\000\000\000\000"
 250      00000000 
 250      00000000 
 250      00
 251 000d 00000000 		.ascii	"\000\000\000\000\000\000\370\000\000\000\000\000\000"
 251      0000F800 
 251      00000000 
 251      00
 252 001a 00333000 		.ascii	"\00030\000\000\000\000\020\014\006\020\014\006\000\000"
 252      00000010 
 252      0C06100C 
 252      060000
 253 0029 00000000 		.ascii	"\000\000\000\000\000\000\000@\300x@\300x@\000\004?\004"
 253      00000040 
 253      C07840C0 
 253      78400004 
 253      3F04
 254 003b 043F0404 		.ascii	"\004?\004\004\000\000p\210\374\0100\000\000\000\030"
 254      00007088 
 254      FC083000 
 254      000018
 255 004a 20FF211E 		.ascii	" \377!\036\000\000\360\010\360\000\340\030\000\000\000"
 255      0000F008 
 255      F000E018 
 255      000000
 256 0059 211C031E 		.ascii	"!\034\003\036!\036\000\000\360\010\210p\000\000\000"
 256      211E0000 
 256      F0088870 
 256      000000
 257 0068 1E212324 		.ascii	"\036!#$\031'!\020\020\026\016\000\000\000\000\000\000"
 257      19272110 
 257      10160E00 
 257      00000000 
 257      00
 258 0079 00000000 		.ascii	"\000\000\000\000\000\000\000\000\000\000\340\030\004"
 258      00000000 
 258      0000E018 
 258      04
 259 0086 02000000 		.ascii	"\002\000\000\000\000\007\030 @\000\000\002\004\030\340"
 259      00071820 
 259      40000002 
 259      0418E0
 260 0095 00000000 		.ascii	"\000\000\000\000@ \030\007\000\000\000@@\200\360\200"
 260      40201807 
 260      00000040 
 260      4080F080 
 261 00a5 40400002 		.ascii	"@@\000\002\002\001\017\001\002\002\000\000\000\000\360"
 261      02010F01 
ARM GAS  C:\Users\GKQ\AppData\Local\Temp\ccJCQwHz.s 			page 8


 261      02020000 
 261      0000F0
 262 00b4 00000000 		.ascii	"\000\000\000\000\001\001\001\037\001\001\001\000\000"
 262      0101011F 
 262      01010100 
 262      00
 263 00c1 00000000 		.ascii	"\000\000\000\000\000\000\000\200\260p\000\000\000\000"
 263      00000080 
 263      B0700000 
 263      0000
 264 00cf 00000000 		.ascii	"\000\000\000\000\000\000\000\000\000\000\001\001\001"
 264      00000000 
 264      00000101 
 264      01
 265 00dc 01010101 		.ascii	"\001\001\001\001\000\000\000\000\000\000\000\000\000"
 265      00000000 
 265      00000000 
 265      00
 266 00e9 30300000 		.ascii	"00\000\000\000\000\000\000\000\000\000\200`\030\004"
 266      00000000 
 266      00000080 
 266      601804
 267 00f8 00601806 		.ascii	"\000`\030\006\001\000\000\000\000\340\020\010\010\020"
 267      01000000 
 267      00E01008 
 267      0810
 268 0106 E000000F 		.ascii	"\340\000\000\017\020  \020\017\000\000\020\020\370\000"
 268      10202010 
 268      0F000010 
 268      10F800
 269 0115 00000000 		.ascii	"\000\000\000\000  ?  \000\000\000p\010\010\010\210p"
 269      20203F20 
 269      20000000 
 269      70080808 
 269      8870
 270 0127 00003028 		.ascii	"\000\0000($\"!0\000\0000\010\210\210H0\000\000\030 "
 270      24222130 
 270      00003008 
 270      88884830 
 270      00001820 
 271 013b 2020110E 		.ascii	"  \021\016\000\000\000\300 \020\370\000\000\000\007"
 271      000000C0 
 271      2010F800 
 271      000007
 272 014a 0424243F 		.ascii	"\004$$?$\000\000\370\010\210\210\010\010\000\000\031"
 272      240000F8 
 272      08888808 
 272      08000019 
 273 015a 21202011 		.ascii	"!  \021\016\000\000\340\020\210\210\030\000\000\000"
 273      0E0000E0 
 273      10888818 
 273      000000
 274 0169 0F112020 		.ascii	"\017\021  \021\016\000\0008\010\010\3108\010\000\000"
 274      110E0000 
 274      380808C8 
 274      38080000 
 275 0179 00003F00 		.ascii	"\000\000?\000\000\000\000\000p\210\010\010\210p\000"
ARM GAS  C:\Users\GKQ\AppData\Local\Temp\ccJCQwHz.s 			page 9


 275      00000000 
 275      70880808 
 275      887000
 276 0188 001C2221 		.ascii	"\000\034\"!!\"\034\000\000\340\020\010\010\020\340\000"
 276      21221C00 
 276      00E01008 
 276      0810E000 
 277 0198 00003122 		.ascii	"\000\0001\"\"\021\017\000\000\000\000\300\300\000\000"
 277      22110F00 
 277      000000C0 
 277      C00000
 278 01a7 00000000 		.ascii	"\000\000\000\00000\000\000\000\000\000\000\200\000\000"
 278      30300000 
 278      00000000 
 278      800000
 279 01b6 00000000 		.ascii	"\000\000\000\000\200`\000\000\000\000\000\000\200@ "
 279      80600000 
 279      00000000 
 279      804020
 280 01c5 10080000 		.ascii	"\020\010\000\000\001\002\004\010\020 \000@@@@@@@\000"
 280      01020408 
 280      10200040 
 280      40404040 
 280      404000
 281 01d8 04040404 		.ascii	"\004\004\004\004\004\004\004\000\000\010\020 @\200\000"
 281      04040400 
 281      00081020 
 281      408000
 282 01e7 00002010 		.ascii	"\000\000 \020\010\004\002\001\000\000pH\010\010\010"
 282      08040201 
 282      00007048 
 282      080808
 283 01f6 F0000000 		.ascii	"\360\000\000\000\00006\001\000\000\3000\310(\350\020"
 283      00303601 
 283      0000C030 
 283      C828E810 
 284 0206 E0000718 		.ascii	"\340\000\007\030'$#\024\013\000\000\000\3008\340\000"
 284      27242314 
 284      0B000000 
 284      C038E000 
 285 0216 0000203C 		.ascii	"\000\000 <#\002\002'8 \010\370\210\210\210p\000\000"
 285      23020227 
 285      382008F8 
 285      88888870 
 285      0000
 286 0228 203F2020 		.ascii	" ?   \021\016\000\3000\010\010\010\0108\000\007\030"
 286      20110E00 
 286      C0300808 
 286      08083800 
 286      0718
 287 023a 20202010 		.ascii	"   \020\010\000\010\370\010\010\010\020\340\000 ?  "
 287      080008F8 
 287      08080810 
 287      E000203F 
 287      2020
 288 024c 20100F00 		.ascii	" \020\017\000\010\370\210\210\350\010\020\000 ?  # "
 288      08F88888 
ARM GAS  C:\Users\GKQ\AppData\Local\Temp\ccJCQwHz.s 			page 10


 288      E8081000 
 288      203F2020 
 288      2320
 289 025e 180008F8 		.ascii	"\030\000\010\370\210\210\350\010\020\000 ? \000\003"
 289      8888E808 
 289      1000203F 
 289      200003
 290 026d 000000C0 		.ascii	"\000\000\000\3000\010\010\0108\000\000\007\030  \"\036"
 290      30080808 
 290      38000007 
 290      18202022 
 290      1E
 291 027e 020008F8 		.ascii	"\002\000\010\370\010\000\000\010\370\010 ?!\001\001"
 291      08000008 
 291      F808203F 
 291      210101
 292 028d 213F2000 		.ascii	"!? \000\010\010\370\010\010\000\000\000  ?  \000\000"
 292      0808F808 
 292      08000000 
 292      20203F20 
 292      200000
 293 02a0 00000808 		.ascii	"\000\000\010\010\370\010\010\000\300\200\200\200\177"
 293      F8080800 
 293      C0808080 
 293      7F
 294 02ad 00000008 		.ascii	"\000\000\000\010\370\210\300(\030\010\000 ? \001&8 "
 294      F888C028 
 294      18080020 
 294      3F200126 
 294      3820
 295 02bf 0008F808 		.ascii	"\000\010\370\010\000\000\000\000\000 ?    0\000\010"
 295      00000000 
 295      00203F20 
 295      20202030 
 295      0008
 296 02d1 F8F800F8 		.ascii	"\370\370\000\370\370\010\000 ?\000?\000? \000\010\370"
 296      F8080020 
 296      3F003F00 
 296      3F200008 
 296      F8
 297 02e2 30C00008 		.ascii	"0\300\000\010\370\010 ? \000\007\030?\000\340\020\010"
 297      F808203F 
 297      20000718 
 297      3F00E010 
 297      08
 298 02f3 080810E0 		.ascii	"\010\010\020\340\000\017\020   \020\017\000\010\370"
 298      000F1020 
 298      2020100F 
 298      0008F8
 299 0302 08080808 		.ascii	"\010\010\010\010\360\000 ?!\001\001\001\000\000\340"
 299      F000203F 
 299      21010101 
 299      0000E0
 300 0311 10080808 		.ascii	"\020\010\010\010\020\340\000\017\030$$8PO\000\010\370"
 300      10E0000F 
 300      18242438 
 300      504F0008 
ARM GAS  C:\Users\GKQ\AppData\Local\Temp\ccJCQwHz.s 			page 11


 300      F8
 301 0322 88888888 		.ascii	"\210\210\210\210p\000 ? \000\003\0140 \000p\210\010"
 301      7000203F 
 301      2000030C 
 301      30200070 
 301      8808
 302 0334 08083800 		.ascii	"\010\0108\000\0008 !!\"\034\000\030\010\010\370\010"
 302      00382021 
 302      21221C00 
 302      180808F8 
 302      08
 303 0345 08180000 		.ascii	"\010\030\000\000\000 ? \000\000\000\010\370\010\000"
 303      00203F20 
 303      00000008 
 303      F80800
 304 0354 0008F808 		.ascii	"\000\010\370\010\000\037    \037\000\010x\210\000\000"
 304      001F2020 
 304      20201F00 
 304      08788800 
 304      00
 305 0365 C8380800 		.ascii	"\3108\010\000\000\0078\016\001\000\000\370\010\000\370"
 305      0007380E 
 305      010000F8 
 305      0800F8
 306 0374 0008F800 		.ascii	"\000\010\370\000\003<\007\000\007<\003\000\010\030h"
 306      033C0700 
 306      073C0300 
 306      081868
 307 0383 80806818 		.ascii	"\200\200h\030\010 0,\003\003,0 \0108\310\000\3108\010"
 307      0820302C 
 307      03032C30 
 307      200838C8 
 307      00C83808 
 308 0397 00000020 		.ascii	"\000\000\000 ? \000\000\000\020\010\010\010\3108\010"
 308      3F200000 
 308      00100808 
 308      08C83808 
 309 03a7 00203826 		.ascii	"\000 8&!  \030\000\000\000\000\376\002\002\002\000\000"
 309      21202018 
 309      00000000 
 309      FE020202 
 309      0000
 310 03b9 00007F40 		.ascii	"\000\000\177@@@\000\000\0140\300\000\000\000\000\000"
 310      40400000 
 310      0C30C000 
 310      00000000 
 311 03c9 00000106 		.ascii	"\000\000\001\0068\300\000\000\002\002\002\376\000\000"
 311      38C00000 
 311      020202FE 
 311      0000
 312 03d7 00004040 		.ascii	"\000\000@@@\177\000\000\000\000\000\004\002\002\002"
 312      407F0000 
 312      00000004 
 312      020202
 313 03e6 04000000 		.ascii	"\004\000\000\000\000\000\000\000\000\000\000\000\000"
 313      00000000 
 313      00000000 
ARM GAS  C:\Users\GKQ\AppData\Local\Temp\ccJCQwHz.s 			page 12


 313      00
 314 03f3 00000000 		.ascii	"\000\000\000\000\000\200\200\200\200\200\200\200\200"
 314      00808080 
 314      80808080 
 314      80
 315 0400 00020204 		.ascii	"\000\002\002\004\000\000\000\000\000\000\000\000\000"
 315      00000000 
 315      00000000 
 315      00
 316 040d 00000000 		.ascii	"\000\000\000\000\000\200\200\200\200\000\000\000\031"
 316      00808080 
 316      80000000 
 316      19
 317 041a 24222222 		.ascii	"$\"\"\"? \010\370\000\200\200\000\000\000\000?\021 "
 317      3F2008F8 
 317      00808000 
 317      0000003F 
 317      1120
 318 042c 20110E00 		.ascii	" \021\016\000\000\000\000\200\200\200\000\000\000\016"
 318      00000080 
 318      80800000 
 318      000E
 319 043a 11202020 		.ascii	"\021   \021\000\000\000\000\200\200\210\370\000\000"
 319      11000000 
 319      00808088 
 319      F80000
 320 0449 0E112020 		.ascii	"\016\021  \020? \000\000\200\200\200\200\000\000\000"
 320      103F2000 
 320      00808080 
 320      80000000 
 321 0459 1F222222 		.ascii	"\037\"\"\"\"\023\000\000\200\200\360\210\210\210\030"
 321      22130000 
 321      8080F088 
 321      888818
 322 0468 0020203F 		.ascii	"\000  ?  \000\000\000\000\200\200\200\200\200\000\000"
 322      20200000 
 322      00008080 
 322      80808000 
 322      00
 323 0479 6B949494 		.ascii	"k\224\224\224\223`\000\010\370\000\200\200\200\000\000"
 323      93600008 
 323      F8008080 
 323      800000
 324 0488 203F2100 		.ascii	" ?!\000\000 ? \000\200\230\230\000\000\000\000\000 "
 324      00203F20 
 324      00809898 
 324      00000000 
 324      0020
 325 049a 203F2020 		.ascii	" ?  \000\000\000\000\000\200\230\230\000\000\000\300"
 325      00000000 
 325      00809898 
 325      000000C0 
 326 04aa 8080807F 		.ascii	"\200\200\200\177\000\000\010\370\000\000\200\200\200"
 326      000008F8 
 326      00008080 
 326      80
 327 04b7 00203F24 		.ascii	"\000 ?$\002-0 \000\000\010\010\370\000\000\000\000\000"
ARM GAS  C:\Users\GKQ\AppData\Local\Temp\ccJCQwHz.s 			page 13


 327      022D3020 
 327      00000808 
 327      F8000000 
 327      0000
 328 04c9 20203F20 		.ascii	"  ?  \000\000\200\200\200\200\200\200\200\000 ? \000"
 328      20000080 
 328      80808080 
 328      80800020 
 328      3F2000
 329 04dc 3F20003F 		.ascii	"? \000?\200\200\000\200\200\200\000\000 ?!\000\000 "
 329      80800080 
 329      80800000 
 329      203F2100 
 329      0020
 330 04ee 3F200000 		.ascii	"? \000\000\200\200\200\200\000\000\000\037    \037\000"
 330      80808080 
 330      0000001F 
 330      20202020 
 330      1F00
 331 0500 80800080 		.ascii	"\200\200\000\200\200\000\000\000\200\377\241  \021\016"
 331      80000000 
 331      80FFA120 
 331      20110E
 332 050f 00000000 		.ascii	"\000\000\000\000\200\200\200\200\000\000\016\021  \240"
 332      80808080 
 332      00000E11 
 332      2020A0
 333 051e FF808080 		.ascii	"\377\200\200\200\200\000\200\200\200\000  ?! \000\001"
 333      80008080 
 333      80002020 
 333      3F212000 
 333      01
 334 052f 00000080 		.ascii	"\000\000\000\200\200\200\200\200\000\0003$$$$\031\000"
 334      80808080 
 334      00003324 
 334      24242419 
 334      00
 335 0540 008080E0 		.ascii	"\000\200\200\340\200\200\000\000\000\000\000\037  \000"
 335      80800000 
 335      0000001F 
 335      202000
 336 054f 00808000 		.ascii	"\000\200\200\000\000\000\200\200\000\000\037   \020"
 336      00008080 
 336      00001F20 
 336      202010
 337 055e 3F208080 		.ascii	"? \200\200\200\000\000\200\200\200\000\001\0160\010"
 337      80000080 
 337      80800001 
 337      0E3008
 338 056d 06010080 		.ascii	"\006\001\000\200\200\000\200\000\200\200\200\0170\014"
 338      80008000 
 338      8080800F 
 338      300C
 339 057b 030C300F 		.ascii	"\003\0140\017\000\000\200\200\000\200\200\200\000\000"
 339      00008080 
 339      00808080 
 339      0000
ARM GAS  C:\Users\GKQ\AppData\Local\Temp\ccJCQwHz.s 			page 14


 340 0589 20312E0E 		.ascii	" 1.\0161 \000\200\200\200\000\000\200\200\200\200\201"
 340      31200080 
 340      80800000 
 340      80808080 
 340      81
 341 059a 8E701806 		.ascii	"\216p\030\006\001\000\000\200\200\200\200\200\200\000"
 341      01000080 
 341      80808080 
 341      8000
 342 05a8 0021302C 		.ascii	"\000!0,\"!0\000\000\000\000\000\200|\002\002\000\000"
 342      22213000 
 342      00000000 
 342      807C0202 
 342      0000
 343 05ba 0000003F 		.ascii	"\000\000\000?@@\000\000\000\000\377\000\000\000\000"
 343      40400000 
 343      0000FF00 
 343      000000
 344 05c9 000000FF 		.ascii	"\000\000\000\377\000\000\000\000\002\002|\200\000\000"
 344      00000000 
 344      02027C80 
 344      0000
 345 05d7 00004040 		.ascii	"\000\000@@?\000\000\000\000\000\006\001\001\002\002"
 345      3F000000 
 345      00000601 
 345      010202
 346 05e6 04040000 		.ascii	"\004\004\000\000\000\000\000\000\000\000"
 346      00000000 
 346      0000
 347              		.section	.rodata.font5x7,"a"
 348              		.align	2
 351              	font5x7:
 352 0000 00000000 		.ascii	"\000\000\000\000\000>[O[>>kOk>\034>|>\034\030<~<\030"
 352      003E5B4F 
 352      5B3E3E6B 
 352      4F6B3E1C 
 352      3E7C3E1C 
 353 0019 1C577D57 		.ascii	"\034W}W\034\034^\177^\034\000\030<\030\000\377\347\303"
 353      1C1C5E7F 
 353      5E1C0018 
 353      3C1800FF 
 353      E7C3
 354 002b E7FF0018 		.ascii	"\347\377\000\030$\030\000\377\347\333\347\3770H:\006"
 354      241800FF 
 354      E7DBE7FF 
 354      30483A06 
 355 003b 0E262979 		.ascii	"\016&)y)&@\177\005\005\007@\177\005%?Z<\347<Z\177>\034"
 355      2926407F 
 355      05050740 
 355      7F05253F 
 355      5A3CE73C 
 356 0053 1C08081C 		.ascii	"\034\010\010\034\034>\177\024\"\177\"\024__\000__\006"
 356      1C3E7F14 
 356      227F2214 
 356      5F5F005F 
 356      5F06
 357 0065 097F017F 		.ascii	"\011\177\001\177\000f\211\225j`````\224\242\377\242"
ARM GAS  C:\Users\GKQ\AppData\Local\Temp\ccJCQwHz.s 			page 15


 357      00668995 
 357      6A606060 
 357      606094A2 
 357      FFA2
 358 0077 9408047E 		.ascii	"\224\010\004~\004\010\020 ~ \020\010\010*\034\010\010"
 358      04081020 
 358      7E201008 
 358      082A1C08 
 358      08
 359 0088 1C2A0808 		.ascii	"\034*\010\010\036\020\020\020\020\014\036\014\036\014"
 359      1E101010 
 359      100C1E0C 
 359      1E0C
 360 0096 30383E38 		.ascii	"08>80\006\016>\016\006\000\000\000\000\000\000\000_"
 360      30060E3E 
 360      0E060000 
 360      00000000 
 360      005F
 361 00a8 00000007 		.ascii	"\000\000\000\007\000\007\000\024\177\024\177\024$*\177"
 361      00070014 
 361      7F147F14 
 361      242A7F
 362 00b7 2A122313 		.ascii	"*\022#\023\010db6IV P\000\010\007\003\000\000\034\""
 362      08646236 
 362      49562050 
 362      00080703 
 362      00001C22 
 363 00cb 41000041 		.ascii	"A\000\000A\"\034\000*\034\177\034*\010\010>\010\010"
 363      221C002A 
 363      1C7F1C2A 
 363      08083E08 
 363      08
 364 00dc 00807030 		.ascii	"\000\200p0\000\010\010\010\010\010\000\000``\000 \020"
 364      00080808 
 364      08080000 
 364      60600020 
 364      10
 365 00ed 0804023E 		.ascii	"\010\004\002>QIE>\000B\177@\000rIIIF!AIM3\030\024\022"
 365      5149453E 
 365      00427F40 
 365      00724949 
 365      49462141 
 366 0107 7F102745 		.ascii	"\177\020'EEE9<JII1A!\021\011\0076III6FII)\036\000\000"
 366      4545393C 
 366      4A494931 
 366      41211109 
 366      07364949 
 367 0124 14000000 		.ascii	"\024\000\000\000@4\000\000\000\010\024\"A\024\024\024"
 367      40340000 
 367      00081422 
 367      41141414 
 368 0134 14140041 		.ascii	"\024\024\000A\"\024\010\002\001Y\011\006>A]YN|\022\021"
 368      22140802 
 368      01590906 
 368      3E415D59 
 368      4E7C1211 
 369 0148 127C7F49 		.ascii	"\022|\177III6>AAA\"\177AAA>\177IIIA\177\011\011\011"
ARM GAS  C:\Users\GKQ\AppData\Local\Temp\ccJCQwHz.s 			page 16


 369      4949363E 
 369      41414122 
 369      7F414141 
 369      3E7F4949 
 370 0162 013E4141 		.ascii	"\001>AAQs\177\010\010\010\177\000A\177A\000 @A?\001"
 370      51737F08 
 370      08087F00 
 370      417F4100 
 370      2040413F 
 371 0177 7F081422 		.ascii	"\177\010\024\"A\177@@@@\177\002\034\002\177\177\004"
 371      417F4040 
 371      40407F02 
 371      1C027F7F 
 371      04
 372 0188 08107F3E 		.ascii	"\010\020\177>AAA>\177\011\011\011\006>AQ!^\177\011\031"
 372      4141413E 
 372      7F090909 
 372      063E4151 
 372      215E7F09 
 373 019d 29462649 		.ascii	")F&III2\003\001\177\001\003?@@@?\037 @ \037?@8@?c\024"
 373      49493203 
 373      017F0103 
 373      3F404040 
 373      3F1F2040 
 374 01ba 08146303 		.ascii	"\010\024c\003\004x\004\003aYIMC\000\177AAA\002\004\010"
 374      04780403 
 374      6159494D 
 374      43007F41 
 374      41410204 
 375 01cf 10200041 		.ascii	"\020 \000AAA\177\004\002\001\002\004@@@@@\000\003\007"
 375      41417F04 
 375      02010204 
 375      40404040 
 375      40000307 
 376 01e3 08002054 		.ascii	"\010\000 TTx@\177(DD88DDD(8DD(\1778TTT\030\000\010~"
 376      5478407F 
 376      28444438 
 376      38444444 
 376      28384444 
 377 0201 090218A4 		.ascii	"\011\002\030\244\244\234x\177\010\004\004x\000D}@\000"
 377      A49C787F 
 377      08040478 
 377      00447D40 
 377      00
 378 0212 2040403D 		.ascii	" @@=\000\177\020(D\000\000A\177@\000|\004x\004x|\010"
 378      007F1028 
 378      44000041 
 378      7F40007C 
 378      04780478 
 379 0228 04047838 		.ascii	"\004\004x8DDD8\374\030$$\030\030$$\030\374|\010\004"
 379      44444438 
 379      FC182424 
 379      18182424 
 379      18FC7C08 
 380 023d 04084854 		.ascii	"\004\010HTTT$\004\004?D$<@@ |\034 @ \034<@0@<D(\020"
 380      54542404 
 380      043F4424 
ARM GAS  C:\Users\GKQ\AppData\Local\Temp\ccJCQwHz.s 			page 17


 380      3C404020 
 380      7C1C2040 
 381 025b 28444C90 		.ascii	"(DL\220\220\220|DdTLD\000\0106A\000\000\000w\000\000"
 381      90907C44 
 381      64544C44 
 381      00083641 
 381      00000077 
 382 0271 00413608 		.ascii	"\000A6\010\000\002\001\002\004\002<&#&<\036\241\241"
 382      00020102 
 382      04023C26 
 382      23263C1E 
 382      A1A1
 383 0283 61123A40 		.ascii	"a\022:@@ z8TTUY!UUyA!TTxA!UTx@ TUy@\014\036Rr\0229U"
 383      40207A38 
 383      54545559 
 383      21555579 
 383      41215454 
 384 02aa 55555939 		.ascii	"UUY9TTTY9UTTX\000\000E|A\000\002E}B\000\001E|@\360)"
 384      54545459 
 384      39555454 
 384      58000045 
 384      7C410002 
 385 02c8 2429F0F0 		.ascii	"$)\360\360(%(\360|TUE\000 TT|T|\012\011\177I2III22H"
 385      282528F0 
 385      7C545545 
 385      00205454 
 385      7C547C0A 
 386 02e6 48483232 		.ascii	"HH22JHH0:AA!z:B@ x\000\235\240\240}9DDD9=@@@=<$\377"
 386      4A484830 
 386      3A414121 
 386      7A3A4240 
 386      2078009D 
 387 030a 2424487E 		.ascii	"$$H~ICf+/\374/+\377\011)\366 \300\210~\011\003 TTyA"
 387      4943662B 
 387      2FFC2F2B 
 387      FF0929F6 
 387      20C0887E 
 388 0325 0000447D 		.ascii	"\000\000D}A0HHJ28@@\"z\000z\012\012r}\015\0311}&))/"
 388      41304848 
 388      4A323840 
 388      40227A00 
 388      7A0A0A72 
 389 0342 28262929 		.ascii	"(&)))&0HM@ 8\010\010\010\010\010\010\010\0108/\020\310"
 389      29263048 
 389      4D402038 
 389      08080808 
 389      08080808 
 390 035a ACBA2F10 		.ascii	"\254\272/\020(4\372\000\000{\000\000\010\024*\024\""
 390      2834FA00 
 390      007B0000 
 390      08142A14 
 390      22
 391 036b 22142A14 		.ascii	"\"\024*\024\010\225\000\"\000\225\252\000U\000\252\252"
 391      08950022 
 391      0095AA00 
 391      5500AAAA 
 392 037b 55AA55AA 		.ascii	"U\252U\252\000\000\000\377\000\020\020\020\377\000\024"
ARM GAS  C:\Users\GKQ\AppData\Local\Temp\ccJCQwHz.s 			page 18


 392      000000FF 
 392      00101010 
 392      FF0014
 393 038a 1414FF00 		.ascii	"\024\024\377\000\020\020\377\000\377\020\020\360\020"
 393      1010FF00 
 393      FF1010F0 
 393      10
 394 0397 F0141414 		.ascii	"\360\024\024\024\374\000\024\024\367\000\377\000\000"
 394      FC001414 
 394      F700FF00 
 394      00
 395 03a4 FF00FF14 		.ascii	"\377\000\377\024\024\364\004\374\024\024\027\020\037"
 395      14F404FC 
 395      14141710 
 395      1F
 396 03b1 10101F10 		.ascii	"\020\020\037\020\037\024\024\024\037\000\020\020\020"
 396      1F141414 
 396      1F001010 
 396      10
 397 03be F0000000 		.ascii	"\360\000\000\000\000\037\020\020\020\020\037\020\020"
 397      001F1010 
 397      10101F10 
 397      10
 398 03cb 1010F010 		.ascii	"\020\020\360\020\000\000\000\377\020\020\020\020\020"
 398      000000FF 
 398      10101010 
 398      10
 399 03d8 10101010 		.ascii	"\020\020\020\020\377\020\000\000\000\377\024\000\000"
 399      FF100000 
 399      00FF1400 
 399      00
 400 03e5 FF00FF00 		.ascii	"\377\000\377\000\000\037\020\027\000\000\374\004\364"
 400      001F1017 
 400      0000FC04 
 400      F4
 401 03f2 14141710 		.ascii	"\024\024\027\020\027\024\024\364\004\364\000\000\377"
 401      171414F4 
 401      04F40000 
 401      FF
 402 03ff 00F71414 		.ascii	"\000\367\024\024\024\024\024\024\024\367\000\367\024"
 402      14141414 
 402      14F700F7 
 402      14
 403 040c 14141714 		.ascii	"\024\024\027\024\020\020\037\020\037\024\024\024\364"
 403      10101F10 
 403      1F141414 
 403      F4
 404 0419 141010F0 		.ascii	"\024\020\020\360\020\360\000\000\037\020\037\000\000"
 404      10F00000 
 404      1F101F00 
 404      00
 405 0426 001F1400 		.ascii	"\000\037\024\000\000\000\374\024\000\000\360\020\360"
 405      0000FC14 
 405      0000F010 
 405      F0
 406 0433 1010FF10 		.ascii	"\020\020\377\020\377\024\024\024\377\024\020\020\020"
 406      FF141414 
ARM GAS  C:\Users\GKQ\AppData\Local\Temp\ccJCQwHz.s 			page 19


 406      FF141010 
 406      10
 407 0440 1F000000 		.ascii	"\037\000\000\000\000\360\020\377\377\377\377\377\360"
 407      00F010FF 
 407      FFFFFFFF 
 407      F0
 408 044d F0F0F0F0 		.ascii	"\360\360\360\360\377\377\377\000\000\000\000\000\377"
 408      FFFFFF00 
 408      00000000 
 408      FF
 409 045a FF0F0F0F 		.ascii	"\377\017\017\017\017\0178DD8D|**>\024~\002\002\006\006"
 409      0F0F3844 
 409      4438447C 
 409      2A2A3E14 
 409      7E020206 
 410 046f 027E027E 		.ascii	"\002~\002~\002cUIAc8DD<\004@~ \036 \006\002~\002\002"
 410      02635549 
 410      41633844 
 410      443C0440 
 410      7E201E20 
 411 0488 99A5E7A5 		.ascii	"\231\245\347\245\231\034*I*\034Lr\001rL0JMM00HxH0\274"
 411      991C2A49 
 411      2A1C4C72 
 411      01724C30 
 411      4A4D4D30 
 412 04a2 625A463D 		.ascii	"bZF=>III\000~\001\001\001~*****DD_DD@QJD@@DJQ@\000\000"
 412      3E494949 
 412      007E0101 
 412      017E2A2A 
 412      2A2A2A44 
 413 04c6 FF0103E0 		.ascii	"\377\001\003\340\200\377\000\000\010\010kk\0106\022"
 413      80FF0000 
 413      08086B6B 
 413      083612
 414 04d5 36243606 		.ascii	"6$6\006\017\011\017\006\000\000\030\030\000\000\000"
 414      0F090F06 
 414      00001818 
 414      000000
 415 04e4 10100030 		.ascii	"\020\020\0000@\377\001\001\000\037\001\001\036\000\031"
 415      40FF0101 
 415      001F0101 
 415      1E0019
 416 04f3 1D171200 		.ascii	"\035\027\022\000<<<<\000\000\000\000\000"
 416      3C3C3C3C 
 416      00000000 
 416      00
 417              		.text
 418              	.Letext0:
 419              		.file 2 "oledlib/oled_font.h"
ARM GAS  C:\Users\GKQ\AppData\Local\Temp\ccJCQwHz.s 			page 20

