ARM GAS  C:\Users\GKQ\AppData\Local\Temp\cccAG2jo.s 			page 1


   1              		.cpu cortex-m3
   2              		.eabi_attribute 20, 1
   3              		.eabi_attribute 21, 1
   4              		.eabi_attribute 23, 3
   5              		.eabi_attribute 24, 1
   6              		.eabi_attribute 25, 1
   7              		.eabi_attribute 26, 1
   8              		.eabi_attribute 30, 1
   9              		.eabi_attribute 34, 1
  10              		.eabi_attribute 18, 4
  11              		.file	"stm32f1xx_hal_dma.c"
  12              		.text
  13              	.Ltext0:
  14              		.cfi_sections	.debug_frame
  15              		.section	.text.DMA_SetConfig,"ax",%progbits
  16              		.align	1
  17              		.arch armv7-m
  18              		.syntax unified
  19              		.thumb
  20              		.thumb_func
  21              		.fpu softvfp
  23              	DMA_SetConfig:
  24              	.LVL0:
  25              	.LFB77:
  26              		.file 1 "Drivers/STM32F1xx_HAL_Driver/Src/stm32f1xx_hal_dma.c"
   1:Drivers/STM32F1xx_HAL_Driver/Src/stm32f1xx_hal_dma.c **** /**
   2:Drivers/STM32F1xx_HAL_Driver/Src/stm32f1xx_hal_dma.c ****   ******************************************************************************
   3:Drivers/STM32F1xx_HAL_Driver/Src/stm32f1xx_hal_dma.c ****   * @file    stm32f1xx_hal_dma.c
   4:Drivers/STM32F1xx_HAL_Driver/Src/stm32f1xx_hal_dma.c ****   * @author  MCD Application Team
   5:Drivers/STM32F1xx_HAL_Driver/Src/stm32f1xx_hal_dma.c ****   * @brief   DMA HAL module driver.
   6:Drivers/STM32F1xx_HAL_Driver/Src/stm32f1xx_hal_dma.c ****   *         This file provides firmware functions to manage the following
   7:Drivers/STM32F1xx_HAL_Driver/Src/stm32f1xx_hal_dma.c ****   *         functionalities of the Direct Memory Access (DMA) peripheral:
   8:Drivers/STM32F1xx_HAL_Driver/Src/stm32f1xx_hal_dma.c ****   *           + Initialization and de-initialization functions
   9:Drivers/STM32F1xx_HAL_Driver/Src/stm32f1xx_hal_dma.c ****   *           + IO operation functions
  10:Drivers/STM32F1xx_HAL_Driver/Src/stm32f1xx_hal_dma.c ****   *           + Peripheral State and errors functions
  11:Drivers/STM32F1xx_HAL_Driver/Src/stm32f1xx_hal_dma.c ****   @verbatim
  12:Drivers/STM32F1xx_HAL_Driver/Src/stm32f1xx_hal_dma.c ****   ==============================================================================
  13:Drivers/STM32F1xx_HAL_Driver/Src/stm32f1xx_hal_dma.c ****                         ##### How to use this driver #####
  14:Drivers/STM32F1xx_HAL_Driver/Src/stm32f1xx_hal_dma.c ****   ==============================================================================
  15:Drivers/STM32F1xx_HAL_Driver/Src/stm32f1xx_hal_dma.c ****   [..]
  16:Drivers/STM32F1xx_HAL_Driver/Src/stm32f1xx_hal_dma.c ****    (#) Enable and configure the peripheral to be connected to the DMA Channel
  17:Drivers/STM32F1xx_HAL_Driver/Src/stm32f1xx_hal_dma.c ****        (except for internal SRAM / FLASH memories: no initialization is 
  18:Drivers/STM32F1xx_HAL_Driver/Src/stm32f1xx_hal_dma.c ****        necessary). Please refer to the Reference manual for connection between peripherals
  19:Drivers/STM32F1xx_HAL_Driver/Src/stm32f1xx_hal_dma.c ****        and DMA requests.
  20:Drivers/STM32F1xx_HAL_Driver/Src/stm32f1xx_hal_dma.c **** 
  21:Drivers/STM32F1xx_HAL_Driver/Src/stm32f1xx_hal_dma.c ****    (#) For a given Channel, program the required configuration through the following parameters:
  22:Drivers/STM32F1xx_HAL_Driver/Src/stm32f1xx_hal_dma.c ****        Channel request, Transfer Direction, Source and Destination data formats,
  23:Drivers/STM32F1xx_HAL_Driver/Src/stm32f1xx_hal_dma.c ****        Circular or Normal mode, Channel Priority level, Source and Destination Increment mode
  24:Drivers/STM32F1xx_HAL_Driver/Src/stm32f1xx_hal_dma.c ****        using HAL_DMA_Init() function.
  25:Drivers/STM32F1xx_HAL_Driver/Src/stm32f1xx_hal_dma.c **** 
  26:Drivers/STM32F1xx_HAL_Driver/Src/stm32f1xx_hal_dma.c ****    (#) Use HAL_DMA_GetState() function to return the DMA state and HAL_DMA_GetError() in case of er
  27:Drivers/STM32F1xx_HAL_Driver/Src/stm32f1xx_hal_dma.c ****        detection.
  28:Drivers/STM32F1xx_HAL_Driver/Src/stm32f1xx_hal_dma.c ****                     
  29:Drivers/STM32F1xx_HAL_Driver/Src/stm32f1xx_hal_dma.c ****    (#) Use HAL_DMA_Abort() function to abort the current transfer
  30:Drivers/STM32F1xx_HAL_Driver/Src/stm32f1xx_hal_dma.c ****                    
  31:Drivers/STM32F1xx_HAL_Driver/Src/stm32f1xx_hal_dma.c ****      -@-   In Memory-to-Memory transfer mode, Circular mode is not allowed.
  32:Drivers/STM32F1xx_HAL_Driver/Src/stm32f1xx_hal_dma.c ****      *** Polling mode IO operation ***
ARM GAS  C:\Users\GKQ\AppData\Local\Temp\cccAG2jo.s 			page 2


  33:Drivers/STM32F1xx_HAL_Driver/Src/stm32f1xx_hal_dma.c ****      =================================
  34:Drivers/STM32F1xx_HAL_Driver/Src/stm32f1xx_hal_dma.c ****     [..]
  35:Drivers/STM32F1xx_HAL_Driver/Src/stm32f1xx_hal_dma.c ****           (+) Use HAL_DMA_Start() to start DMA transfer after the configuration of Source
  36:Drivers/STM32F1xx_HAL_Driver/Src/stm32f1xx_hal_dma.c ****               address and destination address and the Length of data to be transferred
  37:Drivers/STM32F1xx_HAL_Driver/Src/stm32f1xx_hal_dma.c ****           (+) Use HAL_DMA_PollForTransfer() to poll for the end of current transfer, in this
  38:Drivers/STM32F1xx_HAL_Driver/Src/stm32f1xx_hal_dma.c ****               case a fixed Timeout can be configured by User depending from his application.
  39:Drivers/STM32F1xx_HAL_Driver/Src/stm32f1xx_hal_dma.c **** 
  40:Drivers/STM32F1xx_HAL_Driver/Src/stm32f1xx_hal_dma.c ****      *** Interrupt mode IO operation ***
  41:Drivers/STM32F1xx_HAL_Driver/Src/stm32f1xx_hal_dma.c ****      ===================================
  42:Drivers/STM32F1xx_HAL_Driver/Src/stm32f1xx_hal_dma.c ****     [..]
  43:Drivers/STM32F1xx_HAL_Driver/Src/stm32f1xx_hal_dma.c ****           (+) Configure the DMA interrupt priority using HAL_NVIC_SetPriority()
  44:Drivers/STM32F1xx_HAL_Driver/Src/stm32f1xx_hal_dma.c ****           (+) Enable the DMA IRQ handler using HAL_NVIC_EnableIRQ()
  45:Drivers/STM32F1xx_HAL_Driver/Src/stm32f1xx_hal_dma.c ****           (+) Use HAL_DMA_Start_IT() to start DMA transfer after the configuration of
  46:Drivers/STM32F1xx_HAL_Driver/Src/stm32f1xx_hal_dma.c ****               Source address and destination address and the Length of data to be transferred.
  47:Drivers/STM32F1xx_HAL_Driver/Src/stm32f1xx_hal_dma.c ****               In this case the DMA interrupt is configured
  48:Drivers/STM32F1xx_HAL_Driver/Src/stm32f1xx_hal_dma.c ****           (+) Use HAL_DMA_IRQHandler() called under DMA_IRQHandler() Interrupt subroutine
  49:Drivers/STM32F1xx_HAL_Driver/Src/stm32f1xx_hal_dma.c ****           (+) At the end of data transfer HAL_DMA_IRQHandler() function is executed and user can
  50:Drivers/STM32F1xx_HAL_Driver/Src/stm32f1xx_hal_dma.c ****               add his own function by customization of function pointer XferCpltCallback and
  51:Drivers/STM32F1xx_HAL_Driver/Src/stm32f1xx_hal_dma.c ****               XferErrorCallback (i.e. a member of DMA handle structure).
  52:Drivers/STM32F1xx_HAL_Driver/Src/stm32f1xx_hal_dma.c **** 
  53:Drivers/STM32F1xx_HAL_Driver/Src/stm32f1xx_hal_dma.c ****      *** DMA HAL driver macros list ***
  54:Drivers/STM32F1xx_HAL_Driver/Src/stm32f1xx_hal_dma.c ****      ============================================= 
  55:Drivers/STM32F1xx_HAL_Driver/Src/stm32f1xx_hal_dma.c ****       [..]
  56:Drivers/STM32F1xx_HAL_Driver/Src/stm32f1xx_hal_dma.c ****        Below the list of most used macros in DMA HAL driver.
  57:Drivers/STM32F1xx_HAL_Driver/Src/stm32f1xx_hal_dma.c **** 
  58:Drivers/STM32F1xx_HAL_Driver/Src/stm32f1xx_hal_dma.c ****        (+) __HAL_DMA_ENABLE: Enable the specified DMA Channel.
  59:Drivers/STM32F1xx_HAL_Driver/Src/stm32f1xx_hal_dma.c ****        (+) __HAL_DMA_DISABLE: Disable the specified DMA Channel.
  60:Drivers/STM32F1xx_HAL_Driver/Src/stm32f1xx_hal_dma.c ****        (+) __HAL_DMA_GET_FLAG: Get the DMA Channel pending flags.
  61:Drivers/STM32F1xx_HAL_Driver/Src/stm32f1xx_hal_dma.c ****        (+) __HAL_DMA_CLEAR_FLAG: Clear the DMA Channel pending flags.
  62:Drivers/STM32F1xx_HAL_Driver/Src/stm32f1xx_hal_dma.c ****        (+) __HAL_DMA_ENABLE_IT: Enable the specified DMA Channel interrupts.
  63:Drivers/STM32F1xx_HAL_Driver/Src/stm32f1xx_hal_dma.c ****        (+) __HAL_DMA_DISABLE_IT: Disable the specified DMA Channel interrupts.
  64:Drivers/STM32F1xx_HAL_Driver/Src/stm32f1xx_hal_dma.c ****        (+) __HAL_DMA_GET_IT_SOURCE: Check whether the specified DMA Channel interrupt has occurred 
  65:Drivers/STM32F1xx_HAL_Driver/Src/stm32f1xx_hal_dma.c **** 
  66:Drivers/STM32F1xx_HAL_Driver/Src/stm32f1xx_hal_dma.c ****      [..] 
  67:Drivers/STM32F1xx_HAL_Driver/Src/stm32f1xx_hal_dma.c ****       (@) You can refer to the DMA HAL driver header file for more useful macros  
  68:Drivers/STM32F1xx_HAL_Driver/Src/stm32f1xx_hal_dma.c **** 
  69:Drivers/STM32F1xx_HAL_Driver/Src/stm32f1xx_hal_dma.c ****   @endverbatim
  70:Drivers/STM32F1xx_HAL_Driver/Src/stm32f1xx_hal_dma.c ****   ******************************************************************************
  71:Drivers/STM32F1xx_HAL_Driver/Src/stm32f1xx_hal_dma.c ****   * @attention
  72:Drivers/STM32F1xx_HAL_Driver/Src/stm32f1xx_hal_dma.c ****   *
  73:Drivers/STM32F1xx_HAL_Driver/Src/stm32f1xx_hal_dma.c ****   * <h2><center>&copy; Copyright (c) 2016 STMicroelectronics.
  74:Drivers/STM32F1xx_HAL_Driver/Src/stm32f1xx_hal_dma.c ****   * All rights reserved.</center></h2>
  75:Drivers/STM32F1xx_HAL_Driver/Src/stm32f1xx_hal_dma.c ****   *
  76:Drivers/STM32F1xx_HAL_Driver/Src/stm32f1xx_hal_dma.c ****   * This software component is licensed by ST under BSD 3-Clause license,
  77:Drivers/STM32F1xx_HAL_Driver/Src/stm32f1xx_hal_dma.c ****   * the "License"; You may not use this file except in compliance with the
  78:Drivers/STM32F1xx_HAL_Driver/Src/stm32f1xx_hal_dma.c ****   * License. You may obtain a copy of the License at:
  79:Drivers/STM32F1xx_HAL_Driver/Src/stm32f1xx_hal_dma.c ****   *                        opensource.org/licenses/BSD-3-Clause
  80:Drivers/STM32F1xx_HAL_Driver/Src/stm32f1xx_hal_dma.c ****   *
  81:Drivers/STM32F1xx_HAL_Driver/Src/stm32f1xx_hal_dma.c ****   ******************************************************************************
  82:Drivers/STM32F1xx_HAL_Driver/Src/stm32f1xx_hal_dma.c ****   */
  83:Drivers/STM32F1xx_HAL_Driver/Src/stm32f1xx_hal_dma.c **** 
  84:Drivers/STM32F1xx_HAL_Driver/Src/stm32f1xx_hal_dma.c **** /* Includes ------------------------------------------------------------------*/
  85:Drivers/STM32F1xx_HAL_Driver/Src/stm32f1xx_hal_dma.c **** #include "stm32f1xx_hal.h"
  86:Drivers/STM32F1xx_HAL_Driver/Src/stm32f1xx_hal_dma.c **** 
  87:Drivers/STM32F1xx_HAL_Driver/Src/stm32f1xx_hal_dma.c **** /** @addtogroup STM32F1xx_HAL_Driver
  88:Drivers/STM32F1xx_HAL_Driver/Src/stm32f1xx_hal_dma.c ****   * @{
  89:Drivers/STM32F1xx_HAL_Driver/Src/stm32f1xx_hal_dma.c ****   */
ARM GAS  C:\Users\GKQ\AppData\Local\Temp\cccAG2jo.s 			page 3


  90:Drivers/STM32F1xx_HAL_Driver/Src/stm32f1xx_hal_dma.c **** 
  91:Drivers/STM32F1xx_HAL_Driver/Src/stm32f1xx_hal_dma.c **** /** @defgroup DMA DMA
  92:Drivers/STM32F1xx_HAL_Driver/Src/stm32f1xx_hal_dma.c ****   * @brief DMA HAL module driver
  93:Drivers/STM32F1xx_HAL_Driver/Src/stm32f1xx_hal_dma.c ****   * @{
  94:Drivers/STM32F1xx_HAL_Driver/Src/stm32f1xx_hal_dma.c ****   */
  95:Drivers/STM32F1xx_HAL_Driver/Src/stm32f1xx_hal_dma.c **** 
  96:Drivers/STM32F1xx_HAL_Driver/Src/stm32f1xx_hal_dma.c **** #ifdef HAL_DMA_MODULE_ENABLED
  97:Drivers/STM32F1xx_HAL_Driver/Src/stm32f1xx_hal_dma.c **** 
  98:Drivers/STM32F1xx_HAL_Driver/Src/stm32f1xx_hal_dma.c **** /* Private typedef -----------------------------------------------------------*/
  99:Drivers/STM32F1xx_HAL_Driver/Src/stm32f1xx_hal_dma.c **** /* Private define ------------------------------------------------------------*/
 100:Drivers/STM32F1xx_HAL_Driver/Src/stm32f1xx_hal_dma.c **** /* Private macro -------------------------------------------------------------*/
 101:Drivers/STM32F1xx_HAL_Driver/Src/stm32f1xx_hal_dma.c **** /* Private variables ---------------------------------------------------------*/
 102:Drivers/STM32F1xx_HAL_Driver/Src/stm32f1xx_hal_dma.c **** /* Private function prototypes -----------------------------------------------*/
 103:Drivers/STM32F1xx_HAL_Driver/Src/stm32f1xx_hal_dma.c **** /** @defgroup DMA_Private_Functions DMA Private Functions
 104:Drivers/STM32F1xx_HAL_Driver/Src/stm32f1xx_hal_dma.c ****   * @{
 105:Drivers/STM32F1xx_HAL_Driver/Src/stm32f1xx_hal_dma.c ****   */
 106:Drivers/STM32F1xx_HAL_Driver/Src/stm32f1xx_hal_dma.c **** static void DMA_SetConfig(DMA_HandleTypeDef *hdma, uint32_t SrcAddress, uint32_t DstAddress, uint32
 107:Drivers/STM32F1xx_HAL_Driver/Src/stm32f1xx_hal_dma.c **** /**
 108:Drivers/STM32F1xx_HAL_Driver/Src/stm32f1xx_hal_dma.c ****   * @}
 109:Drivers/STM32F1xx_HAL_Driver/Src/stm32f1xx_hal_dma.c ****   */
 110:Drivers/STM32F1xx_HAL_Driver/Src/stm32f1xx_hal_dma.c **** 
 111:Drivers/STM32F1xx_HAL_Driver/Src/stm32f1xx_hal_dma.c **** /* Exported functions ---------------------------------------------------------*/
 112:Drivers/STM32F1xx_HAL_Driver/Src/stm32f1xx_hal_dma.c **** 
 113:Drivers/STM32F1xx_HAL_Driver/Src/stm32f1xx_hal_dma.c **** /** @defgroup DMA_Exported_Functions DMA Exported Functions
 114:Drivers/STM32F1xx_HAL_Driver/Src/stm32f1xx_hal_dma.c ****   * @{
 115:Drivers/STM32F1xx_HAL_Driver/Src/stm32f1xx_hal_dma.c ****   */
 116:Drivers/STM32F1xx_HAL_Driver/Src/stm32f1xx_hal_dma.c **** 
 117:Drivers/STM32F1xx_HAL_Driver/Src/stm32f1xx_hal_dma.c **** /** @defgroup DMA_Exported_Functions_Group1 Initialization and de-initialization functions
 118:Drivers/STM32F1xx_HAL_Driver/Src/stm32f1xx_hal_dma.c ****   *  @brief   Initialization and de-initialization functions 
 119:Drivers/STM32F1xx_HAL_Driver/Src/stm32f1xx_hal_dma.c ****   *
 120:Drivers/STM32F1xx_HAL_Driver/Src/stm32f1xx_hal_dma.c **** @verbatim
 121:Drivers/STM32F1xx_HAL_Driver/Src/stm32f1xx_hal_dma.c ****  ===============================================================================
 122:Drivers/STM32F1xx_HAL_Driver/Src/stm32f1xx_hal_dma.c ****              ##### Initialization and de-initialization functions  #####
 123:Drivers/STM32F1xx_HAL_Driver/Src/stm32f1xx_hal_dma.c ****  ===============================================================================
 124:Drivers/STM32F1xx_HAL_Driver/Src/stm32f1xx_hal_dma.c ****     [..]
 125:Drivers/STM32F1xx_HAL_Driver/Src/stm32f1xx_hal_dma.c ****     This section provides functions allowing to initialize the DMA Channel source
 126:Drivers/STM32F1xx_HAL_Driver/Src/stm32f1xx_hal_dma.c ****     and destination addresses, incrementation and data sizes, transfer direction, 
 127:Drivers/STM32F1xx_HAL_Driver/Src/stm32f1xx_hal_dma.c ****     circular/normal mode selection, memory-to-memory mode selection and Channel priority value.
 128:Drivers/STM32F1xx_HAL_Driver/Src/stm32f1xx_hal_dma.c ****     [..]
 129:Drivers/STM32F1xx_HAL_Driver/Src/stm32f1xx_hal_dma.c ****     The HAL_DMA_Init() function follows the DMA configuration procedures as described in
 130:Drivers/STM32F1xx_HAL_Driver/Src/stm32f1xx_hal_dma.c ****     reference manual.  
 131:Drivers/STM32F1xx_HAL_Driver/Src/stm32f1xx_hal_dma.c **** 
 132:Drivers/STM32F1xx_HAL_Driver/Src/stm32f1xx_hal_dma.c **** @endverbatim
 133:Drivers/STM32F1xx_HAL_Driver/Src/stm32f1xx_hal_dma.c ****   * @{
 134:Drivers/STM32F1xx_HAL_Driver/Src/stm32f1xx_hal_dma.c ****   */
 135:Drivers/STM32F1xx_HAL_Driver/Src/stm32f1xx_hal_dma.c **** 
 136:Drivers/STM32F1xx_HAL_Driver/Src/stm32f1xx_hal_dma.c **** /**
 137:Drivers/STM32F1xx_HAL_Driver/Src/stm32f1xx_hal_dma.c ****   * @brief  Initialize the DMA according to the specified
 138:Drivers/STM32F1xx_HAL_Driver/Src/stm32f1xx_hal_dma.c ****   *         parameters in the DMA_InitTypeDef and initialize the associated handle.
 139:Drivers/STM32F1xx_HAL_Driver/Src/stm32f1xx_hal_dma.c ****   * @param  hdma: Pointer to a DMA_HandleTypeDef structure that contains
 140:Drivers/STM32F1xx_HAL_Driver/Src/stm32f1xx_hal_dma.c ****   *               the configuration information for the specified DMA Channel.
 141:Drivers/STM32F1xx_HAL_Driver/Src/stm32f1xx_hal_dma.c ****   * @retval HAL status
 142:Drivers/STM32F1xx_HAL_Driver/Src/stm32f1xx_hal_dma.c ****   */
 143:Drivers/STM32F1xx_HAL_Driver/Src/stm32f1xx_hal_dma.c **** HAL_StatusTypeDef HAL_DMA_Init(DMA_HandleTypeDef *hdma)
 144:Drivers/STM32F1xx_HAL_Driver/Src/stm32f1xx_hal_dma.c **** {
 145:Drivers/STM32F1xx_HAL_Driver/Src/stm32f1xx_hal_dma.c ****   uint32_t tmp = 0U;
 146:Drivers/STM32F1xx_HAL_Driver/Src/stm32f1xx_hal_dma.c **** 
ARM GAS  C:\Users\GKQ\AppData\Local\Temp\cccAG2jo.s 			page 4


 147:Drivers/STM32F1xx_HAL_Driver/Src/stm32f1xx_hal_dma.c ****   /* Check the DMA handle allocation */
 148:Drivers/STM32F1xx_HAL_Driver/Src/stm32f1xx_hal_dma.c ****   if(hdma == NULL)
 149:Drivers/STM32F1xx_HAL_Driver/Src/stm32f1xx_hal_dma.c ****   {
 150:Drivers/STM32F1xx_HAL_Driver/Src/stm32f1xx_hal_dma.c ****     return HAL_ERROR;
 151:Drivers/STM32F1xx_HAL_Driver/Src/stm32f1xx_hal_dma.c ****   }
 152:Drivers/STM32F1xx_HAL_Driver/Src/stm32f1xx_hal_dma.c **** 
 153:Drivers/STM32F1xx_HAL_Driver/Src/stm32f1xx_hal_dma.c ****   /* Check the parameters */
 154:Drivers/STM32F1xx_HAL_Driver/Src/stm32f1xx_hal_dma.c ****   assert_param(IS_DMA_ALL_INSTANCE(hdma->Instance));
 155:Drivers/STM32F1xx_HAL_Driver/Src/stm32f1xx_hal_dma.c ****   assert_param(IS_DMA_DIRECTION(hdma->Init.Direction));
 156:Drivers/STM32F1xx_HAL_Driver/Src/stm32f1xx_hal_dma.c ****   assert_param(IS_DMA_PERIPHERAL_INC_STATE(hdma->Init.PeriphInc));
 157:Drivers/STM32F1xx_HAL_Driver/Src/stm32f1xx_hal_dma.c ****   assert_param(IS_DMA_MEMORY_INC_STATE(hdma->Init.MemInc));
 158:Drivers/STM32F1xx_HAL_Driver/Src/stm32f1xx_hal_dma.c ****   assert_param(IS_DMA_PERIPHERAL_DATA_SIZE(hdma->Init.PeriphDataAlignment));
 159:Drivers/STM32F1xx_HAL_Driver/Src/stm32f1xx_hal_dma.c ****   assert_param(IS_DMA_MEMORY_DATA_SIZE(hdma->Init.MemDataAlignment));
 160:Drivers/STM32F1xx_HAL_Driver/Src/stm32f1xx_hal_dma.c ****   assert_param(IS_DMA_MODE(hdma->Init.Mode));
 161:Drivers/STM32F1xx_HAL_Driver/Src/stm32f1xx_hal_dma.c ****   assert_param(IS_DMA_PRIORITY(hdma->Init.Priority));
 162:Drivers/STM32F1xx_HAL_Driver/Src/stm32f1xx_hal_dma.c **** 
 163:Drivers/STM32F1xx_HAL_Driver/Src/stm32f1xx_hal_dma.c **** #if defined (DMA2)
 164:Drivers/STM32F1xx_HAL_Driver/Src/stm32f1xx_hal_dma.c ****   /* calculation of the channel index */
 165:Drivers/STM32F1xx_HAL_Driver/Src/stm32f1xx_hal_dma.c ****   if ((uint32_t)(hdma->Instance) < (uint32_t)(DMA2_Channel1))
 166:Drivers/STM32F1xx_HAL_Driver/Src/stm32f1xx_hal_dma.c ****   {
 167:Drivers/STM32F1xx_HAL_Driver/Src/stm32f1xx_hal_dma.c ****     /* DMA1 */
 168:Drivers/STM32F1xx_HAL_Driver/Src/stm32f1xx_hal_dma.c ****     hdma->ChannelIndex = (((uint32_t)hdma->Instance - (uint32_t)DMA1_Channel1) / ((uint32_t)DMA1_Ch
 169:Drivers/STM32F1xx_HAL_Driver/Src/stm32f1xx_hal_dma.c ****     hdma->DmaBaseAddress = DMA1;
 170:Drivers/STM32F1xx_HAL_Driver/Src/stm32f1xx_hal_dma.c ****   }
 171:Drivers/STM32F1xx_HAL_Driver/Src/stm32f1xx_hal_dma.c ****   else 
 172:Drivers/STM32F1xx_HAL_Driver/Src/stm32f1xx_hal_dma.c ****   {
 173:Drivers/STM32F1xx_HAL_Driver/Src/stm32f1xx_hal_dma.c ****     /* DMA2 */
 174:Drivers/STM32F1xx_HAL_Driver/Src/stm32f1xx_hal_dma.c ****     hdma->ChannelIndex = (((uint32_t)hdma->Instance - (uint32_t)DMA2_Channel1) / ((uint32_t)DMA2_Ch
 175:Drivers/STM32F1xx_HAL_Driver/Src/stm32f1xx_hal_dma.c ****     hdma->DmaBaseAddress = DMA2;
 176:Drivers/STM32F1xx_HAL_Driver/Src/stm32f1xx_hal_dma.c ****   }
 177:Drivers/STM32F1xx_HAL_Driver/Src/stm32f1xx_hal_dma.c **** #else
 178:Drivers/STM32F1xx_HAL_Driver/Src/stm32f1xx_hal_dma.c ****   /* DMA1 */
 179:Drivers/STM32F1xx_HAL_Driver/Src/stm32f1xx_hal_dma.c ****   hdma->ChannelIndex = (((uint32_t)hdma->Instance - (uint32_t)DMA1_Channel1) / ((uint32_t)DMA1_Chan
 180:Drivers/STM32F1xx_HAL_Driver/Src/stm32f1xx_hal_dma.c ****   hdma->DmaBaseAddress = DMA1;
 181:Drivers/STM32F1xx_HAL_Driver/Src/stm32f1xx_hal_dma.c **** #endif /* DMA2 */
 182:Drivers/STM32F1xx_HAL_Driver/Src/stm32f1xx_hal_dma.c **** 
 183:Drivers/STM32F1xx_HAL_Driver/Src/stm32f1xx_hal_dma.c ****   /* Change DMA peripheral state */
 184:Drivers/STM32F1xx_HAL_Driver/Src/stm32f1xx_hal_dma.c ****   hdma->State = HAL_DMA_STATE_BUSY;
 185:Drivers/STM32F1xx_HAL_Driver/Src/stm32f1xx_hal_dma.c **** 
 186:Drivers/STM32F1xx_HAL_Driver/Src/stm32f1xx_hal_dma.c ****   /* Get the CR register value */
 187:Drivers/STM32F1xx_HAL_Driver/Src/stm32f1xx_hal_dma.c ****   tmp = hdma->Instance->CCR;
 188:Drivers/STM32F1xx_HAL_Driver/Src/stm32f1xx_hal_dma.c **** 
 189:Drivers/STM32F1xx_HAL_Driver/Src/stm32f1xx_hal_dma.c ****   /* Clear PL, MSIZE, PSIZE, MINC, PINC, CIRC and DIR bits */
 190:Drivers/STM32F1xx_HAL_Driver/Src/stm32f1xx_hal_dma.c ****   tmp &= ((uint32_t)~(DMA_CCR_PL    | DMA_CCR_MSIZE  | DMA_CCR_PSIZE  | \
 191:Drivers/STM32F1xx_HAL_Driver/Src/stm32f1xx_hal_dma.c ****                       DMA_CCR_MINC  | DMA_CCR_PINC   | DMA_CCR_CIRC   | \
 192:Drivers/STM32F1xx_HAL_Driver/Src/stm32f1xx_hal_dma.c ****                       DMA_CCR_DIR));
 193:Drivers/STM32F1xx_HAL_Driver/Src/stm32f1xx_hal_dma.c **** 
 194:Drivers/STM32F1xx_HAL_Driver/Src/stm32f1xx_hal_dma.c ****   /* Prepare the DMA Channel configuration */
 195:Drivers/STM32F1xx_HAL_Driver/Src/stm32f1xx_hal_dma.c ****   tmp |=  hdma->Init.Direction        |
 196:Drivers/STM32F1xx_HAL_Driver/Src/stm32f1xx_hal_dma.c ****           hdma->Init.PeriphInc           | hdma->Init.MemInc           |
 197:Drivers/STM32F1xx_HAL_Driver/Src/stm32f1xx_hal_dma.c ****           hdma->Init.PeriphDataAlignment | hdma->Init.MemDataAlignment |
 198:Drivers/STM32F1xx_HAL_Driver/Src/stm32f1xx_hal_dma.c ****           hdma->Init.Mode                | hdma->Init.Priority;
 199:Drivers/STM32F1xx_HAL_Driver/Src/stm32f1xx_hal_dma.c **** 
 200:Drivers/STM32F1xx_HAL_Driver/Src/stm32f1xx_hal_dma.c ****   /* Write to DMA Channel CR register */
 201:Drivers/STM32F1xx_HAL_Driver/Src/stm32f1xx_hal_dma.c ****   hdma->Instance->CCR = tmp;
 202:Drivers/STM32F1xx_HAL_Driver/Src/stm32f1xx_hal_dma.c **** 
 203:Drivers/STM32F1xx_HAL_Driver/Src/stm32f1xx_hal_dma.c ****   /* Initialise the error code */
ARM GAS  C:\Users\GKQ\AppData\Local\Temp\cccAG2jo.s 			page 5


 204:Drivers/STM32F1xx_HAL_Driver/Src/stm32f1xx_hal_dma.c ****   hdma->ErrorCode = HAL_DMA_ERROR_NONE;
 205:Drivers/STM32F1xx_HAL_Driver/Src/stm32f1xx_hal_dma.c **** 
 206:Drivers/STM32F1xx_HAL_Driver/Src/stm32f1xx_hal_dma.c ****   /* Initialize the DMA state*/
 207:Drivers/STM32F1xx_HAL_Driver/Src/stm32f1xx_hal_dma.c ****   hdma->State = HAL_DMA_STATE_READY;
 208:Drivers/STM32F1xx_HAL_Driver/Src/stm32f1xx_hal_dma.c ****   /* Allocate lock resource and initialize it */
 209:Drivers/STM32F1xx_HAL_Driver/Src/stm32f1xx_hal_dma.c ****   hdma->Lock = HAL_UNLOCKED;
 210:Drivers/STM32F1xx_HAL_Driver/Src/stm32f1xx_hal_dma.c **** 
 211:Drivers/STM32F1xx_HAL_Driver/Src/stm32f1xx_hal_dma.c ****   return HAL_OK;
 212:Drivers/STM32F1xx_HAL_Driver/Src/stm32f1xx_hal_dma.c **** }
 213:Drivers/STM32F1xx_HAL_Driver/Src/stm32f1xx_hal_dma.c **** 
 214:Drivers/STM32F1xx_HAL_Driver/Src/stm32f1xx_hal_dma.c **** /**
 215:Drivers/STM32F1xx_HAL_Driver/Src/stm32f1xx_hal_dma.c ****   * @brief  DeInitialize the DMA peripheral.
 216:Drivers/STM32F1xx_HAL_Driver/Src/stm32f1xx_hal_dma.c ****   * @param  hdma: pointer to a DMA_HandleTypeDef structure that contains
 217:Drivers/STM32F1xx_HAL_Driver/Src/stm32f1xx_hal_dma.c ****   *               the configuration information for the specified DMA Channel.
 218:Drivers/STM32F1xx_HAL_Driver/Src/stm32f1xx_hal_dma.c ****   * @retval HAL status
 219:Drivers/STM32F1xx_HAL_Driver/Src/stm32f1xx_hal_dma.c ****   */
 220:Drivers/STM32F1xx_HAL_Driver/Src/stm32f1xx_hal_dma.c **** HAL_StatusTypeDef HAL_DMA_DeInit(DMA_HandleTypeDef *hdma)
 221:Drivers/STM32F1xx_HAL_Driver/Src/stm32f1xx_hal_dma.c **** {
 222:Drivers/STM32F1xx_HAL_Driver/Src/stm32f1xx_hal_dma.c ****   /* Check the DMA handle allocation */
 223:Drivers/STM32F1xx_HAL_Driver/Src/stm32f1xx_hal_dma.c ****   if(hdma == NULL)
 224:Drivers/STM32F1xx_HAL_Driver/Src/stm32f1xx_hal_dma.c ****   {
 225:Drivers/STM32F1xx_HAL_Driver/Src/stm32f1xx_hal_dma.c ****     return HAL_ERROR;
 226:Drivers/STM32F1xx_HAL_Driver/Src/stm32f1xx_hal_dma.c ****   }
 227:Drivers/STM32F1xx_HAL_Driver/Src/stm32f1xx_hal_dma.c **** 
 228:Drivers/STM32F1xx_HAL_Driver/Src/stm32f1xx_hal_dma.c ****   /* Check the parameters */
 229:Drivers/STM32F1xx_HAL_Driver/Src/stm32f1xx_hal_dma.c ****   assert_param(IS_DMA_ALL_INSTANCE(hdma->Instance));
 230:Drivers/STM32F1xx_HAL_Driver/Src/stm32f1xx_hal_dma.c **** 
 231:Drivers/STM32F1xx_HAL_Driver/Src/stm32f1xx_hal_dma.c ****   /* Disable the selected DMA Channelx */
 232:Drivers/STM32F1xx_HAL_Driver/Src/stm32f1xx_hal_dma.c ****   __HAL_DMA_DISABLE(hdma);
 233:Drivers/STM32F1xx_HAL_Driver/Src/stm32f1xx_hal_dma.c **** 
 234:Drivers/STM32F1xx_HAL_Driver/Src/stm32f1xx_hal_dma.c ****   /* Reset DMA Channel control register */
 235:Drivers/STM32F1xx_HAL_Driver/Src/stm32f1xx_hal_dma.c ****   hdma->Instance->CCR  = 0U;
 236:Drivers/STM32F1xx_HAL_Driver/Src/stm32f1xx_hal_dma.c **** 
 237:Drivers/STM32F1xx_HAL_Driver/Src/stm32f1xx_hal_dma.c ****   /* Reset DMA Channel Number of Data to Transfer register */
 238:Drivers/STM32F1xx_HAL_Driver/Src/stm32f1xx_hal_dma.c ****   hdma->Instance->CNDTR = 0U;
 239:Drivers/STM32F1xx_HAL_Driver/Src/stm32f1xx_hal_dma.c **** 
 240:Drivers/STM32F1xx_HAL_Driver/Src/stm32f1xx_hal_dma.c ****   /* Reset DMA Channel peripheral address register */
 241:Drivers/STM32F1xx_HAL_Driver/Src/stm32f1xx_hal_dma.c ****   hdma->Instance->CPAR  = 0U;
 242:Drivers/STM32F1xx_HAL_Driver/Src/stm32f1xx_hal_dma.c **** 
 243:Drivers/STM32F1xx_HAL_Driver/Src/stm32f1xx_hal_dma.c ****   /* Reset DMA Channel memory address register */
 244:Drivers/STM32F1xx_HAL_Driver/Src/stm32f1xx_hal_dma.c ****   hdma->Instance->CMAR = 0U;
 245:Drivers/STM32F1xx_HAL_Driver/Src/stm32f1xx_hal_dma.c **** 
 246:Drivers/STM32F1xx_HAL_Driver/Src/stm32f1xx_hal_dma.c **** #if defined (DMA2)
 247:Drivers/STM32F1xx_HAL_Driver/Src/stm32f1xx_hal_dma.c ****   /* calculation of the channel index */
 248:Drivers/STM32F1xx_HAL_Driver/Src/stm32f1xx_hal_dma.c ****   if ((uint32_t)(hdma->Instance) < (uint32_t)(DMA2_Channel1))
 249:Drivers/STM32F1xx_HAL_Driver/Src/stm32f1xx_hal_dma.c ****   {
 250:Drivers/STM32F1xx_HAL_Driver/Src/stm32f1xx_hal_dma.c ****     /* DMA1 */
 251:Drivers/STM32F1xx_HAL_Driver/Src/stm32f1xx_hal_dma.c ****     hdma->ChannelIndex = (((uint32_t)hdma->Instance - (uint32_t)DMA1_Channel1) / ((uint32_t)DMA1_Ch
 252:Drivers/STM32F1xx_HAL_Driver/Src/stm32f1xx_hal_dma.c ****     hdma->DmaBaseAddress = DMA1;
 253:Drivers/STM32F1xx_HAL_Driver/Src/stm32f1xx_hal_dma.c ****   }
 254:Drivers/STM32F1xx_HAL_Driver/Src/stm32f1xx_hal_dma.c ****   else
 255:Drivers/STM32F1xx_HAL_Driver/Src/stm32f1xx_hal_dma.c ****   {
 256:Drivers/STM32F1xx_HAL_Driver/Src/stm32f1xx_hal_dma.c ****     /* DMA2 */
 257:Drivers/STM32F1xx_HAL_Driver/Src/stm32f1xx_hal_dma.c ****     hdma->ChannelIndex = (((uint32_t)hdma->Instance - (uint32_t)DMA2_Channel1) / ((uint32_t)DMA2_Ch
 258:Drivers/STM32F1xx_HAL_Driver/Src/stm32f1xx_hal_dma.c ****     hdma->DmaBaseAddress = DMA2;
 259:Drivers/STM32F1xx_HAL_Driver/Src/stm32f1xx_hal_dma.c ****   }
 260:Drivers/STM32F1xx_HAL_Driver/Src/stm32f1xx_hal_dma.c **** #else
ARM GAS  C:\Users\GKQ\AppData\Local\Temp\cccAG2jo.s 			page 6


 261:Drivers/STM32F1xx_HAL_Driver/Src/stm32f1xx_hal_dma.c ****   /* DMA1 */
 262:Drivers/STM32F1xx_HAL_Driver/Src/stm32f1xx_hal_dma.c ****   hdma->ChannelIndex = (((uint32_t)hdma->Instance - (uint32_t)DMA1_Channel1) / ((uint32_t)DMA1_Chan
 263:Drivers/STM32F1xx_HAL_Driver/Src/stm32f1xx_hal_dma.c ****   hdma->DmaBaseAddress = DMA1;
 264:Drivers/STM32F1xx_HAL_Driver/Src/stm32f1xx_hal_dma.c **** #endif /* DMA2 */
 265:Drivers/STM32F1xx_HAL_Driver/Src/stm32f1xx_hal_dma.c **** 
 266:Drivers/STM32F1xx_HAL_Driver/Src/stm32f1xx_hal_dma.c ****   /* Clear all flags */
 267:Drivers/STM32F1xx_HAL_Driver/Src/stm32f1xx_hal_dma.c ****   hdma->DmaBaseAddress->IFCR = (DMA_ISR_GIF1 << (hdma->ChannelIndex));
 268:Drivers/STM32F1xx_HAL_Driver/Src/stm32f1xx_hal_dma.c **** 
 269:Drivers/STM32F1xx_HAL_Driver/Src/stm32f1xx_hal_dma.c ****   /* Clean all callbacks */
 270:Drivers/STM32F1xx_HAL_Driver/Src/stm32f1xx_hal_dma.c ****   hdma->XferCpltCallback = NULL;
 271:Drivers/STM32F1xx_HAL_Driver/Src/stm32f1xx_hal_dma.c ****   hdma->XferHalfCpltCallback = NULL;
 272:Drivers/STM32F1xx_HAL_Driver/Src/stm32f1xx_hal_dma.c ****   hdma->XferErrorCallback = NULL;
 273:Drivers/STM32F1xx_HAL_Driver/Src/stm32f1xx_hal_dma.c ****   hdma->XferAbortCallback = NULL;
 274:Drivers/STM32F1xx_HAL_Driver/Src/stm32f1xx_hal_dma.c **** 
 275:Drivers/STM32F1xx_HAL_Driver/Src/stm32f1xx_hal_dma.c ****   /* Reset the error code */
 276:Drivers/STM32F1xx_HAL_Driver/Src/stm32f1xx_hal_dma.c ****   hdma->ErrorCode = HAL_DMA_ERROR_NONE;
 277:Drivers/STM32F1xx_HAL_Driver/Src/stm32f1xx_hal_dma.c **** 
 278:Drivers/STM32F1xx_HAL_Driver/Src/stm32f1xx_hal_dma.c ****   /* Reset the DMA state */
 279:Drivers/STM32F1xx_HAL_Driver/Src/stm32f1xx_hal_dma.c ****   hdma->State = HAL_DMA_STATE_RESET;
 280:Drivers/STM32F1xx_HAL_Driver/Src/stm32f1xx_hal_dma.c **** 
 281:Drivers/STM32F1xx_HAL_Driver/Src/stm32f1xx_hal_dma.c ****   /* Release Lock */
 282:Drivers/STM32F1xx_HAL_Driver/Src/stm32f1xx_hal_dma.c ****   __HAL_UNLOCK(hdma);
 283:Drivers/STM32F1xx_HAL_Driver/Src/stm32f1xx_hal_dma.c **** 
 284:Drivers/STM32F1xx_HAL_Driver/Src/stm32f1xx_hal_dma.c ****   return HAL_OK;
 285:Drivers/STM32F1xx_HAL_Driver/Src/stm32f1xx_hal_dma.c **** }
 286:Drivers/STM32F1xx_HAL_Driver/Src/stm32f1xx_hal_dma.c **** 
 287:Drivers/STM32F1xx_HAL_Driver/Src/stm32f1xx_hal_dma.c **** /**
 288:Drivers/STM32F1xx_HAL_Driver/Src/stm32f1xx_hal_dma.c ****   * @}
 289:Drivers/STM32F1xx_HAL_Driver/Src/stm32f1xx_hal_dma.c ****   */
 290:Drivers/STM32F1xx_HAL_Driver/Src/stm32f1xx_hal_dma.c **** 
 291:Drivers/STM32F1xx_HAL_Driver/Src/stm32f1xx_hal_dma.c **** /** @defgroup DMA_Exported_Functions_Group2 Input and Output operation functions
 292:Drivers/STM32F1xx_HAL_Driver/Src/stm32f1xx_hal_dma.c ****   *  @brief   Input and Output operation functions
 293:Drivers/STM32F1xx_HAL_Driver/Src/stm32f1xx_hal_dma.c ****   *
 294:Drivers/STM32F1xx_HAL_Driver/Src/stm32f1xx_hal_dma.c **** @verbatim
 295:Drivers/STM32F1xx_HAL_Driver/Src/stm32f1xx_hal_dma.c ****  ===============================================================================
 296:Drivers/STM32F1xx_HAL_Driver/Src/stm32f1xx_hal_dma.c ****                       #####  IO operation functions  #####
 297:Drivers/STM32F1xx_HAL_Driver/Src/stm32f1xx_hal_dma.c ****  ===============================================================================
 298:Drivers/STM32F1xx_HAL_Driver/Src/stm32f1xx_hal_dma.c ****     [..]  This section provides functions allowing to:
 299:Drivers/STM32F1xx_HAL_Driver/Src/stm32f1xx_hal_dma.c ****       (+) Configure the source, destination address and data length and Start DMA transfer
 300:Drivers/STM32F1xx_HAL_Driver/Src/stm32f1xx_hal_dma.c ****       (+) Configure the source, destination address and data length and
 301:Drivers/STM32F1xx_HAL_Driver/Src/stm32f1xx_hal_dma.c ****           Start DMA transfer with interrupt
 302:Drivers/STM32F1xx_HAL_Driver/Src/stm32f1xx_hal_dma.c ****       (+) Abort DMA transfer
 303:Drivers/STM32F1xx_HAL_Driver/Src/stm32f1xx_hal_dma.c ****       (+) Poll for transfer complete
 304:Drivers/STM32F1xx_HAL_Driver/Src/stm32f1xx_hal_dma.c ****       (+) Handle DMA interrupt request
 305:Drivers/STM32F1xx_HAL_Driver/Src/stm32f1xx_hal_dma.c **** 
 306:Drivers/STM32F1xx_HAL_Driver/Src/stm32f1xx_hal_dma.c **** @endverbatim
 307:Drivers/STM32F1xx_HAL_Driver/Src/stm32f1xx_hal_dma.c ****   * @{
 308:Drivers/STM32F1xx_HAL_Driver/Src/stm32f1xx_hal_dma.c ****   */
 309:Drivers/STM32F1xx_HAL_Driver/Src/stm32f1xx_hal_dma.c **** 
 310:Drivers/STM32F1xx_HAL_Driver/Src/stm32f1xx_hal_dma.c **** /**
 311:Drivers/STM32F1xx_HAL_Driver/Src/stm32f1xx_hal_dma.c ****   * @brief  Start the DMA Transfer.
 312:Drivers/STM32F1xx_HAL_Driver/Src/stm32f1xx_hal_dma.c ****   * @param  hdma: pointer to a DMA_HandleTypeDef structure that contains
 313:Drivers/STM32F1xx_HAL_Driver/Src/stm32f1xx_hal_dma.c ****   *               the configuration information for the specified DMA Channel.
 314:Drivers/STM32F1xx_HAL_Driver/Src/stm32f1xx_hal_dma.c ****   * @param  SrcAddress: The source memory Buffer address
 315:Drivers/STM32F1xx_HAL_Driver/Src/stm32f1xx_hal_dma.c ****   * @param  DstAddress: The destination memory Buffer address
 316:Drivers/STM32F1xx_HAL_Driver/Src/stm32f1xx_hal_dma.c ****   * @param  DataLength: The length of data to be transferred from source to destination
 317:Drivers/STM32F1xx_HAL_Driver/Src/stm32f1xx_hal_dma.c ****   * @retval HAL status
ARM GAS  C:\Users\GKQ\AppData\Local\Temp\cccAG2jo.s 			page 7


 318:Drivers/STM32F1xx_HAL_Driver/Src/stm32f1xx_hal_dma.c ****   */
 319:Drivers/STM32F1xx_HAL_Driver/Src/stm32f1xx_hal_dma.c **** HAL_StatusTypeDef HAL_DMA_Start(DMA_HandleTypeDef *hdma, uint32_t SrcAddress, uint32_t DstAddress, 
 320:Drivers/STM32F1xx_HAL_Driver/Src/stm32f1xx_hal_dma.c **** {
 321:Drivers/STM32F1xx_HAL_Driver/Src/stm32f1xx_hal_dma.c ****   HAL_StatusTypeDef status = HAL_OK;
 322:Drivers/STM32F1xx_HAL_Driver/Src/stm32f1xx_hal_dma.c **** 
 323:Drivers/STM32F1xx_HAL_Driver/Src/stm32f1xx_hal_dma.c ****   /* Check the parameters */
 324:Drivers/STM32F1xx_HAL_Driver/Src/stm32f1xx_hal_dma.c ****   assert_param(IS_DMA_BUFFER_SIZE(DataLength));
 325:Drivers/STM32F1xx_HAL_Driver/Src/stm32f1xx_hal_dma.c **** 
 326:Drivers/STM32F1xx_HAL_Driver/Src/stm32f1xx_hal_dma.c ****   /* Process locked */
 327:Drivers/STM32F1xx_HAL_Driver/Src/stm32f1xx_hal_dma.c ****   __HAL_LOCK(hdma);
 328:Drivers/STM32F1xx_HAL_Driver/Src/stm32f1xx_hal_dma.c **** 
 329:Drivers/STM32F1xx_HAL_Driver/Src/stm32f1xx_hal_dma.c ****   if(HAL_DMA_STATE_READY == hdma->State)
 330:Drivers/STM32F1xx_HAL_Driver/Src/stm32f1xx_hal_dma.c ****   {
 331:Drivers/STM32F1xx_HAL_Driver/Src/stm32f1xx_hal_dma.c ****     /* Change DMA peripheral state */
 332:Drivers/STM32F1xx_HAL_Driver/Src/stm32f1xx_hal_dma.c ****     hdma->State = HAL_DMA_STATE_BUSY;
 333:Drivers/STM32F1xx_HAL_Driver/Src/stm32f1xx_hal_dma.c ****     hdma->ErrorCode = HAL_DMA_ERROR_NONE;
 334:Drivers/STM32F1xx_HAL_Driver/Src/stm32f1xx_hal_dma.c ****             
 335:Drivers/STM32F1xx_HAL_Driver/Src/stm32f1xx_hal_dma.c ****     /* Disable the peripheral */
 336:Drivers/STM32F1xx_HAL_Driver/Src/stm32f1xx_hal_dma.c ****     __HAL_DMA_DISABLE(hdma);
 337:Drivers/STM32F1xx_HAL_Driver/Src/stm32f1xx_hal_dma.c ****     
 338:Drivers/STM32F1xx_HAL_Driver/Src/stm32f1xx_hal_dma.c ****     /* Configure the source, destination address and the data length & clear flags*/
 339:Drivers/STM32F1xx_HAL_Driver/Src/stm32f1xx_hal_dma.c ****     DMA_SetConfig(hdma, SrcAddress, DstAddress, DataLength);
 340:Drivers/STM32F1xx_HAL_Driver/Src/stm32f1xx_hal_dma.c ****     
 341:Drivers/STM32F1xx_HAL_Driver/Src/stm32f1xx_hal_dma.c ****     /* Enable the Peripheral */
 342:Drivers/STM32F1xx_HAL_Driver/Src/stm32f1xx_hal_dma.c ****     __HAL_DMA_ENABLE(hdma);
 343:Drivers/STM32F1xx_HAL_Driver/Src/stm32f1xx_hal_dma.c ****   }
 344:Drivers/STM32F1xx_HAL_Driver/Src/stm32f1xx_hal_dma.c ****   else
 345:Drivers/STM32F1xx_HAL_Driver/Src/stm32f1xx_hal_dma.c ****   {
 346:Drivers/STM32F1xx_HAL_Driver/Src/stm32f1xx_hal_dma.c ****    /* Process Unlocked */
 347:Drivers/STM32F1xx_HAL_Driver/Src/stm32f1xx_hal_dma.c ****    __HAL_UNLOCK(hdma);  
 348:Drivers/STM32F1xx_HAL_Driver/Src/stm32f1xx_hal_dma.c ****    status = HAL_BUSY;
 349:Drivers/STM32F1xx_HAL_Driver/Src/stm32f1xx_hal_dma.c ****   }  
 350:Drivers/STM32F1xx_HAL_Driver/Src/stm32f1xx_hal_dma.c ****   return status;
 351:Drivers/STM32F1xx_HAL_Driver/Src/stm32f1xx_hal_dma.c **** }
 352:Drivers/STM32F1xx_HAL_Driver/Src/stm32f1xx_hal_dma.c **** 
 353:Drivers/STM32F1xx_HAL_Driver/Src/stm32f1xx_hal_dma.c **** /**
 354:Drivers/STM32F1xx_HAL_Driver/Src/stm32f1xx_hal_dma.c ****   * @brief  Start the DMA Transfer with interrupt enabled.
 355:Drivers/STM32F1xx_HAL_Driver/Src/stm32f1xx_hal_dma.c ****   * @param  hdma: pointer to a DMA_HandleTypeDef structure that contains
 356:Drivers/STM32F1xx_HAL_Driver/Src/stm32f1xx_hal_dma.c ****   *               the configuration information for the specified DMA Channel.
 357:Drivers/STM32F1xx_HAL_Driver/Src/stm32f1xx_hal_dma.c ****   * @param  SrcAddress: The source memory Buffer address
 358:Drivers/STM32F1xx_HAL_Driver/Src/stm32f1xx_hal_dma.c ****   * @param  DstAddress: The destination memory Buffer address
 359:Drivers/STM32F1xx_HAL_Driver/Src/stm32f1xx_hal_dma.c ****   * @param  DataLength: The length of data to be transferred from source to destination
 360:Drivers/STM32F1xx_HAL_Driver/Src/stm32f1xx_hal_dma.c ****   * @retval HAL status
 361:Drivers/STM32F1xx_HAL_Driver/Src/stm32f1xx_hal_dma.c ****   */
 362:Drivers/STM32F1xx_HAL_Driver/Src/stm32f1xx_hal_dma.c **** HAL_StatusTypeDef HAL_DMA_Start_IT(DMA_HandleTypeDef *hdma, uint32_t SrcAddress, uint32_t DstAddres
 363:Drivers/STM32F1xx_HAL_Driver/Src/stm32f1xx_hal_dma.c **** {
 364:Drivers/STM32F1xx_HAL_Driver/Src/stm32f1xx_hal_dma.c ****   HAL_StatusTypeDef status = HAL_OK;
 365:Drivers/STM32F1xx_HAL_Driver/Src/stm32f1xx_hal_dma.c **** 
 366:Drivers/STM32F1xx_HAL_Driver/Src/stm32f1xx_hal_dma.c ****   /* Check the parameters */
 367:Drivers/STM32F1xx_HAL_Driver/Src/stm32f1xx_hal_dma.c ****   assert_param(IS_DMA_BUFFER_SIZE(DataLength));
 368:Drivers/STM32F1xx_HAL_Driver/Src/stm32f1xx_hal_dma.c **** 
 369:Drivers/STM32F1xx_HAL_Driver/Src/stm32f1xx_hal_dma.c ****   /* Process locked */
 370:Drivers/STM32F1xx_HAL_Driver/Src/stm32f1xx_hal_dma.c ****   __HAL_LOCK(hdma);
 371:Drivers/STM32F1xx_HAL_Driver/Src/stm32f1xx_hal_dma.c ****   
 372:Drivers/STM32F1xx_HAL_Driver/Src/stm32f1xx_hal_dma.c ****   if(HAL_DMA_STATE_READY == hdma->State)
 373:Drivers/STM32F1xx_HAL_Driver/Src/stm32f1xx_hal_dma.c ****   {
 374:Drivers/STM32F1xx_HAL_Driver/Src/stm32f1xx_hal_dma.c ****     /* Change DMA peripheral state */
ARM GAS  C:\Users\GKQ\AppData\Local\Temp\cccAG2jo.s 			page 8


 375:Drivers/STM32F1xx_HAL_Driver/Src/stm32f1xx_hal_dma.c ****     hdma->State = HAL_DMA_STATE_BUSY;
 376:Drivers/STM32F1xx_HAL_Driver/Src/stm32f1xx_hal_dma.c ****     hdma->ErrorCode = HAL_DMA_ERROR_NONE;
 377:Drivers/STM32F1xx_HAL_Driver/Src/stm32f1xx_hal_dma.c ****     
 378:Drivers/STM32F1xx_HAL_Driver/Src/stm32f1xx_hal_dma.c ****     /* Disable the peripheral */
 379:Drivers/STM32F1xx_HAL_Driver/Src/stm32f1xx_hal_dma.c ****     __HAL_DMA_DISABLE(hdma);
 380:Drivers/STM32F1xx_HAL_Driver/Src/stm32f1xx_hal_dma.c ****     
 381:Drivers/STM32F1xx_HAL_Driver/Src/stm32f1xx_hal_dma.c ****     /* Configure the source, destination address and the data length & clear flags*/
 382:Drivers/STM32F1xx_HAL_Driver/Src/stm32f1xx_hal_dma.c ****     DMA_SetConfig(hdma, SrcAddress, DstAddress, DataLength);
 383:Drivers/STM32F1xx_HAL_Driver/Src/stm32f1xx_hal_dma.c ****     
 384:Drivers/STM32F1xx_HAL_Driver/Src/stm32f1xx_hal_dma.c ****     /* Enable the transfer complete interrupt */
 385:Drivers/STM32F1xx_HAL_Driver/Src/stm32f1xx_hal_dma.c ****     /* Enable the transfer Error interrupt */
 386:Drivers/STM32F1xx_HAL_Driver/Src/stm32f1xx_hal_dma.c ****     if(NULL != hdma->XferHalfCpltCallback)
 387:Drivers/STM32F1xx_HAL_Driver/Src/stm32f1xx_hal_dma.c ****     {
 388:Drivers/STM32F1xx_HAL_Driver/Src/stm32f1xx_hal_dma.c ****       /* Enable the Half transfer complete interrupt as well */
 389:Drivers/STM32F1xx_HAL_Driver/Src/stm32f1xx_hal_dma.c ****       __HAL_DMA_ENABLE_IT(hdma, (DMA_IT_TC | DMA_IT_HT | DMA_IT_TE));
 390:Drivers/STM32F1xx_HAL_Driver/Src/stm32f1xx_hal_dma.c ****     }
 391:Drivers/STM32F1xx_HAL_Driver/Src/stm32f1xx_hal_dma.c ****     else
 392:Drivers/STM32F1xx_HAL_Driver/Src/stm32f1xx_hal_dma.c ****     {
 393:Drivers/STM32F1xx_HAL_Driver/Src/stm32f1xx_hal_dma.c ****       __HAL_DMA_DISABLE_IT(hdma, DMA_IT_HT);
 394:Drivers/STM32F1xx_HAL_Driver/Src/stm32f1xx_hal_dma.c ****       __HAL_DMA_ENABLE_IT(hdma, (DMA_IT_TC | DMA_IT_TE));
 395:Drivers/STM32F1xx_HAL_Driver/Src/stm32f1xx_hal_dma.c ****     }
 396:Drivers/STM32F1xx_HAL_Driver/Src/stm32f1xx_hal_dma.c ****     /* Enable the Peripheral */
 397:Drivers/STM32F1xx_HAL_Driver/Src/stm32f1xx_hal_dma.c ****     __HAL_DMA_ENABLE(hdma);
 398:Drivers/STM32F1xx_HAL_Driver/Src/stm32f1xx_hal_dma.c ****   }
 399:Drivers/STM32F1xx_HAL_Driver/Src/stm32f1xx_hal_dma.c ****   else
 400:Drivers/STM32F1xx_HAL_Driver/Src/stm32f1xx_hal_dma.c ****   {      
 401:Drivers/STM32F1xx_HAL_Driver/Src/stm32f1xx_hal_dma.c ****     /* Process Unlocked */
 402:Drivers/STM32F1xx_HAL_Driver/Src/stm32f1xx_hal_dma.c ****     __HAL_UNLOCK(hdma); 
 403:Drivers/STM32F1xx_HAL_Driver/Src/stm32f1xx_hal_dma.c **** 
 404:Drivers/STM32F1xx_HAL_Driver/Src/stm32f1xx_hal_dma.c ****     /* Remain BUSY */
 405:Drivers/STM32F1xx_HAL_Driver/Src/stm32f1xx_hal_dma.c ****     status = HAL_BUSY;
 406:Drivers/STM32F1xx_HAL_Driver/Src/stm32f1xx_hal_dma.c ****   }    
 407:Drivers/STM32F1xx_HAL_Driver/Src/stm32f1xx_hal_dma.c ****   return status;
 408:Drivers/STM32F1xx_HAL_Driver/Src/stm32f1xx_hal_dma.c **** }
 409:Drivers/STM32F1xx_HAL_Driver/Src/stm32f1xx_hal_dma.c **** 
 410:Drivers/STM32F1xx_HAL_Driver/Src/stm32f1xx_hal_dma.c **** /**
 411:Drivers/STM32F1xx_HAL_Driver/Src/stm32f1xx_hal_dma.c ****   * @brief  Abort the DMA Transfer.
 412:Drivers/STM32F1xx_HAL_Driver/Src/stm32f1xx_hal_dma.c ****   * @param  hdma: pointer to a DMA_HandleTypeDef structure that contains
 413:Drivers/STM32F1xx_HAL_Driver/Src/stm32f1xx_hal_dma.c ****   *               the configuration information for the specified DMA Channel.
 414:Drivers/STM32F1xx_HAL_Driver/Src/stm32f1xx_hal_dma.c ****   * @retval HAL status
 415:Drivers/STM32F1xx_HAL_Driver/Src/stm32f1xx_hal_dma.c ****   */
 416:Drivers/STM32F1xx_HAL_Driver/Src/stm32f1xx_hal_dma.c **** HAL_StatusTypeDef HAL_DMA_Abort(DMA_HandleTypeDef *hdma)
 417:Drivers/STM32F1xx_HAL_Driver/Src/stm32f1xx_hal_dma.c **** {
 418:Drivers/STM32F1xx_HAL_Driver/Src/stm32f1xx_hal_dma.c ****   HAL_StatusTypeDef status = HAL_OK;
 419:Drivers/STM32F1xx_HAL_Driver/Src/stm32f1xx_hal_dma.c ****   
 420:Drivers/STM32F1xx_HAL_Driver/Src/stm32f1xx_hal_dma.c ****   if(hdma->State != HAL_DMA_STATE_BUSY)
 421:Drivers/STM32F1xx_HAL_Driver/Src/stm32f1xx_hal_dma.c ****   {
 422:Drivers/STM32F1xx_HAL_Driver/Src/stm32f1xx_hal_dma.c ****     /* no transfer ongoing */
 423:Drivers/STM32F1xx_HAL_Driver/Src/stm32f1xx_hal_dma.c ****     hdma->ErrorCode = HAL_DMA_ERROR_NO_XFER;
 424:Drivers/STM32F1xx_HAL_Driver/Src/stm32f1xx_hal_dma.c ****     
 425:Drivers/STM32F1xx_HAL_Driver/Src/stm32f1xx_hal_dma.c ****     /* Process Unlocked */
 426:Drivers/STM32F1xx_HAL_Driver/Src/stm32f1xx_hal_dma.c ****     __HAL_UNLOCK(hdma);
 427:Drivers/STM32F1xx_HAL_Driver/Src/stm32f1xx_hal_dma.c ****     
 428:Drivers/STM32F1xx_HAL_Driver/Src/stm32f1xx_hal_dma.c ****     return HAL_ERROR;
 429:Drivers/STM32F1xx_HAL_Driver/Src/stm32f1xx_hal_dma.c ****   }
 430:Drivers/STM32F1xx_HAL_Driver/Src/stm32f1xx_hal_dma.c ****   else
 431:Drivers/STM32F1xx_HAL_Driver/Src/stm32f1xx_hal_dma.c **** 
ARM GAS  C:\Users\GKQ\AppData\Local\Temp\cccAG2jo.s 			page 9


 432:Drivers/STM32F1xx_HAL_Driver/Src/stm32f1xx_hal_dma.c ****   {
 433:Drivers/STM32F1xx_HAL_Driver/Src/stm32f1xx_hal_dma.c ****     /* Disable DMA IT */
 434:Drivers/STM32F1xx_HAL_Driver/Src/stm32f1xx_hal_dma.c ****     __HAL_DMA_DISABLE_IT(hdma, (DMA_IT_TC | DMA_IT_HT | DMA_IT_TE));
 435:Drivers/STM32F1xx_HAL_Driver/Src/stm32f1xx_hal_dma.c ****       
 436:Drivers/STM32F1xx_HAL_Driver/Src/stm32f1xx_hal_dma.c ****     /* Disable the channel */
 437:Drivers/STM32F1xx_HAL_Driver/Src/stm32f1xx_hal_dma.c ****     __HAL_DMA_DISABLE(hdma);
 438:Drivers/STM32F1xx_HAL_Driver/Src/stm32f1xx_hal_dma.c ****       
 439:Drivers/STM32F1xx_HAL_Driver/Src/stm32f1xx_hal_dma.c ****     /* Clear all flags */
 440:Drivers/STM32F1xx_HAL_Driver/Src/stm32f1xx_hal_dma.c ****     hdma->DmaBaseAddress->IFCR = (DMA_ISR_GIF1 << hdma->ChannelIndex);
 441:Drivers/STM32F1xx_HAL_Driver/Src/stm32f1xx_hal_dma.c ****   }
 442:Drivers/STM32F1xx_HAL_Driver/Src/stm32f1xx_hal_dma.c ****   /* Change the DMA state */
 443:Drivers/STM32F1xx_HAL_Driver/Src/stm32f1xx_hal_dma.c ****   hdma->State = HAL_DMA_STATE_READY;
 444:Drivers/STM32F1xx_HAL_Driver/Src/stm32f1xx_hal_dma.c **** 
 445:Drivers/STM32F1xx_HAL_Driver/Src/stm32f1xx_hal_dma.c ****   /* Process Unlocked */
 446:Drivers/STM32F1xx_HAL_Driver/Src/stm32f1xx_hal_dma.c ****   __HAL_UNLOCK(hdma);      
 447:Drivers/STM32F1xx_HAL_Driver/Src/stm32f1xx_hal_dma.c ****   
 448:Drivers/STM32F1xx_HAL_Driver/Src/stm32f1xx_hal_dma.c ****   return status; 
 449:Drivers/STM32F1xx_HAL_Driver/Src/stm32f1xx_hal_dma.c **** }
 450:Drivers/STM32F1xx_HAL_Driver/Src/stm32f1xx_hal_dma.c **** 
 451:Drivers/STM32F1xx_HAL_Driver/Src/stm32f1xx_hal_dma.c **** /**
 452:Drivers/STM32F1xx_HAL_Driver/Src/stm32f1xx_hal_dma.c ****   * @brief  Aborts the DMA Transfer in Interrupt mode.
 453:Drivers/STM32F1xx_HAL_Driver/Src/stm32f1xx_hal_dma.c ****   * @param  hdma  : pointer to a DMA_HandleTypeDef structure that contains
 454:Drivers/STM32F1xx_HAL_Driver/Src/stm32f1xx_hal_dma.c ****   *                 the configuration information for the specified DMA Channel.
 455:Drivers/STM32F1xx_HAL_Driver/Src/stm32f1xx_hal_dma.c ****   * @retval HAL status
 456:Drivers/STM32F1xx_HAL_Driver/Src/stm32f1xx_hal_dma.c ****   */
 457:Drivers/STM32F1xx_HAL_Driver/Src/stm32f1xx_hal_dma.c **** HAL_StatusTypeDef HAL_DMA_Abort_IT(DMA_HandleTypeDef *hdma)
 458:Drivers/STM32F1xx_HAL_Driver/Src/stm32f1xx_hal_dma.c **** {  
 459:Drivers/STM32F1xx_HAL_Driver/Src/stm32f1xx_hal_dma.c ****   HAL_StatusTypeDef status = HAL_OK;
 460:Drivers/STM32F1xx_HAL_Driver/Src/stm32f1xx_hal_dma.c ****   
 461:Drivers/STM32F1xx_HAL_Driver/Src/stm32f1xx_hal_dma.c ****   if(HAL_DMA_STATE_BUSY != hdma->State)
 462:Drivers/STM32F1xx_HAL_Driver/Src/stm32f1xx_hal_dma.c ****   {
 463:Drivers/STM32F1xx_HAL_Driver/Src/stm32f1xx_hal_dma.c ****     /* no transfer ongoing */
 464:Drivers/STM32F1xx_HAL_Driver/Src/stm32f1xx_hal_dma.c ****     hdma->ErrorCode = HAL_DMA_ERROR_NO_XFER;
 465:Drivers/STM32F1xx_HAL_Driver/Src/stm32f1xx_hal_dma.c ****         
 466:Drivers/STM32F1xx_HAL_Driver/Src/stm32f1xx_hal_dma.c ****     status = HAL_ERROR;
 467:Drivers/STM32F1xx_HAL_Driver/Src/stm32f1xx_hal_dma.c ****   }
 468:Drivers/STM32F1xx_HAL_Driver/Src/stm32f1xx_hal_dma.c ****   else
 469:Drivers/STM32F1xx_HAL_Driver/Src/stm32f1xx_hal_dma.c ****   { 
 470:Drivers/STM32F1xx_HAL_Driver/Src/stm32f1xx_hal_dma.c ****     /* Disable DMA IT */
 471:Drivers/STM32F1xx_HAL_Driver/Src/stm32f1xx_hal_dma.c ****     __HAL_DMA_DISABLE_IT(hdma, (DMA_IT_TC | DMA_IT_HT | DMA_IT_TE));
 472:Drivers/STM32F1xx_HAL_Driver/Src/stm32f1xx_hal_dma.c **** 
 473:Drivers/STM32F1xx_HAL_Driver/Src/stm32f1xx_hal_dma.c ****     /* Disable the channel */
 474:Drivers/STM32F1xx_HAL_Driver/Src/stm32f1xx_hal_dma.c ****     __HAL_DMA_DISABLE(hdma);
 475:Drivers/STM32F1xx_HAL_Driver/Src/stm32f1xx_hal_dma.c **** 
 476:Drivers/STM32F1xx_HAL_Driver/Src/stm32f1xx_hal_dma.c ****     /* Clear all flags */
 477:Drivers/STM32F1xx_HAL_Driver/Src/stm32f1xx_hal_dma.c ****     __HAL_DMA_CLEAR_FLAG(hdma, __HAL_DMA_GET_GI_FLAG_INDEX(hdma));
 478:Drivers/STM32F1xx_HAL_Driver/Src/stm32f1xx_hal_dma.c **** 
 479:Drivers/STM32F1xx_HAL_Driver/Src/stm32f1xx_hal_dma.c ****     /* Change the DMA state */
 480:Drivers/STM32F1xx_HAL_Driver/Src/stm32f1xx_hal_dma.c ****     hdma->State = HAL_DMA_STATE_READY;
 481:Drivers/STM32F1xx_HAL_Driver/Src/stm32f1xx_hal_dma.c **** 
 482:Drivers/STM32F1xx_HAL_Driver/Src/stm32f1xx_hal_dma.c ****     /* Process Unlocked */
 483:Drivers/STM32F1xx_HAL_Driver/Src/stm32f1xx_hal_dma.c ****     __HAL_UNLOCK(hdma);
 484:Drivers/STM32F1xx_HAL_Driver/Src/stm32f1xx_hal_dma.c **** 
 485:Drivers/STM32F1xx_HAL_Driver/Src/stm32f1xx_hal_dma.c ****     /* Call User Abort callback */
 486:Drivers/STM32F1xx_HAL_Driver/Src/stm32f1xx_hal_dma.c ****     if(hdma->XferAbortCallback != NULL)
 487:Drivers/STM32F1xx_HAL_Driver/Src/stm32f1xx_hal_dma.c ****     {
 488:Drivers/STM32F1xx_HAL_Driver/Src/stm32f1xx_hal_dma.c ****       hdma->XferAbortCallback(hdma);
ARM GAS  C:\Users\GKQ\AppData\Local\Temp\cccAG2jo.s 			page 10


 489:Drivers/STM32F1xx_HAL_Driver/Src/stm32f1xx_hal_dma.c ****     } 
 490:Drivers/STM32F1xx_HAL_Driver/Src/stm32f1xx_hal_dma.c ****   }
 491:Drivers/STM32F1xx_HAL_Driver/Src/stm32f1xx_hal_dma.c ****   return status;
 492:Drivers/STM32F1xx_HAL_Driver/Src/stm32f1xx_hal_dma.c **** }
 493:Drivers/STM32F1xx_HAL_Driver/Src/stm32f1xx_hal_dma.c **** 
 494:Drivers/STM32F1xx_HAL_Driver/Src/stm32f1xx_hal_dma.c **** /**
 495:Drivers/STM32F1xx_HAL_Driver/Src/stm32f1xx_hal_dma.c ****   * @brief  Polling for transfer complete.
 496:Drivers/STM32F1xx_HAL_Driver/Src/stm32f1xx_hal_dma.c ****   * @param  hdma:    pointer to a DMA_HandleTypeDef structure that contains
 497:Drivers/STM32F1xx_HAL_Driver/Src/stm32f1xx_hal_dma.c ****   *                  the configuration information for the specified DMA Channel.
 498:Drivers/STM32F1xx_HAL_Driver/Src/stm32f1xx_hal_dma.c ****   * @param  CompleteLevel: Specifies the DMA level complete.
 499:Drivers/STM32F1xx_HAL_Driver/Src/stm32f1xx_hal_dma.c ****   * @param  Timeout:       Timeout duration.
 500:Drivers/STM32F1xx_HAL_Driver/Src/stm32f1xx_hal_dma.c ****   * @retval HAL status
 501:Drivers/STM32F1xx_HAL_Driver/Src/stm32f1xx_hal_dma.c ****   */
 502:Drivers/STM32F1xx_HAL_Driver/Src/stm32f1xx_hal_dma.c **** HAL_StatusTypeDef HAL_DMA_PollForTransfer(DMA_HandleTypeDef *hdma, uint32_t CompleteLevel, uint32_t
 503:Drivers/STM32F1xx_HAL_Driver/Src/stm32f1xx_hal_dma.c **** {
 504:Drivers/STM32F1xx_HAL_Driver/Src/stm32f1xx_hal_dma.c ****   uint32_t temp;
 505:Drivers/STM32F1xx_HAL_Driver/Src/stm32f1xx_hal_dma.c ****   uint32_t tickstart = 0U;
 506:Drivers/STM32F1xx_HAL_Driver/Src/stm32f1xx_hal_dma.c **** 
 507:Drivers/STM32F1xx_HAL_Driver/Src/stm32f1xx_hal_dma.c ****   if(HAL_DMA_STATE_BUSY != hdma->State)
 508:Drivers/STM32F1xx_HAL_Driver/Src/stm32f1xx_hal_dma.c ****   {
 509:Drivers/STM32F1xx_HAL_Driver/Src/stm32f1xx_hal_dma.c ****     /* no transfer ongoing */
 510:Drivers/STM32F1xx_HAL_Driver/Src/stm32f1xx_hal_dma.c ****     hdma->ErrorCode = HAL_DMA_ERROR_NO_XFER;
 511:Drivers/STM32F1xx_HAL_Driver/Src/stm32f1xx_hal_dma.c ****     __HAL_UNLOCK(hdma);
 512:Drivers/STM32F1xx_HAL_Driver/Src/stm32f1xx_hal_dma.c ****     return HAL_ERROR;
 513:Drivers/STM32F1xx_HAL_Driver/Src/stm32f1xx_hal_dma.c ****   }
 514:Drivers/STM32F1xx_HAL_Driver/Src/stm32f1xx_hal_dma.c **** 
 515:Drivers/STM32F1xx_HAL_Driver/Src/stm32f1xx_hal_dma.c ****   /* Polling mode not supported in circular mode */
 516:Drivers/STM32F1xx_HAL_Driver/Src/stm32f1xx_hal_dma.c ****   if (RESET != (hdma->Instance->CCR & DMA_CCR_CIRC))
 517:Drivers/STM32F1xx_HAL_Driver/Src/stm32f1xx_hal_dma.c ****   {
 518:Drivers/STM32F1xx_HAL_Driver/Src/stm32f1xx_hal_dma.c ****     hdma->ErrorCode = HAL_DMA_ERROR_NOT_SUPPORTED;
 519:Drivers/STM32F1xx_HAL_Driver/Src/stm32f1xx_hal_dma.c ****     return HAL_ERROR;
 520:Drivers/STM32F1xx_HAL_Driver/Src/stm32f1xx_hal_dma.c ****   }
 521:Drivers/STM32F1xx_HAL_Driver/Src/stm32f1xx_hal_dma.c ****   
 522:Drivers/STM32F1xx_HAL_Driver/Src/stm32f1xx_hal_dma.c ****   /* Get the level transfer complete flag */
 523:Drivers/STM32F1xx_HAL_Driver/Src/stm32f1xx_hal_dma.c ****   if(CompleteLevel == HAL_DMA_FULL_TRANSFER)
 524:Drivers/STM32F1xx_HAL_Driver/Src/stm32f1xx_hal_dma.c ****   {
 525:Drivers/STM32F1xx_HAL_Driver/Src/stm32f1xx_hal_dma.c ****     /* Transfer Complete flag */
 526:Drivers/STM32F1xx_HAL_Driver/Src/stm32f1xx_hal_dma.c ****     temp = __HAL_DMA_GET_TC_FLAG_INDEX(hdma);
 527:Drivers/STM32F1xx_HAL_Driver/Src/stm32f1xx_hal_dma.c ****   }
 528:Drivers/STM32F1xx_HAL_Driver/Src/stm32f1xx_hal_dma.c ****   else
 529:Drivers/STM32F1xx_HAL_Driver/Src/stm32f1xx_hal_dma.c ****   {
 530:Drivers/STM32F1xx_HAL_Driver/Src/stm32f1xx_hal_dma.c ****     /* Half Transfer Complete flag */
 531:Drivers/STM32F1xx_HAL_Driver/Src/stm32f1xx_hal_dma.c ****     temp = __HAL_DMA_GET_HT_FLAG_INDEX(hdma);
 532:Drivers/STM32F1xx_HAL_Driver/Src/stm32f1xx_hal_dma.c ****   }
 533:Drivers/STM32F1xx_HAL_Driver/Src/stm32f1xx_hal_dma.c **** 
 534:Drivers/STM32F1xx_HAL_Driver/Src/stm32f1xx_hal_dma.c ****   /* Get tick */
 535:Drivers/STM32F1xx_HAL_Driver/Src/stm32f1xx_hal_dma.c ****   tickstart = HAL_GetTick();
 536:Drivers/STM32F1xx_HAL_Driver/Src/stm32f1xx_hal_dma.c **** 
 537:Drivers/STM32F1xx_HAL_Driver/Src/stm32f1xx_hal_dma.c ****   while(__HAL_DMA_GET_FLAG(hdma, temp) == RESET)
 538:Drivers/STM32F1xx_HAL_Driver/Src/stm32f1xx_hal_dma.c ****   {
 539:Drivers/STM32F1xx_HAL_Driver/Src/stm32f1xx_hal_dma.c ****     if((__HAL_DMA_GET_FLAG(hdma, __HAL_DMA_GET_TE_FLAG_INDEX(hdma)) != RESET))
 540:Drivers/STM32F1xx_HAL_Driver/Src/stm32f1xx_hal_dma.c ****     {
 541:Drivers/STM32F1xx_HAL_Driver/Src/stm32f1xx_hal_dma.c ****       /* When a DMA transfer error occurs */
 542:Drivers/STM32F1xx_HAL_Driver/Src/stm32f1xx_hal_dma.c ****       /* A hardware clear of its EN bits is performed */
 543:Drivers/STM32F1xx_HAL_Driver/Src/stm32f1xx_hal_dma.c ****       /* Clear all flags */
 544:Drivers/STM32F1xx_HAL_Driver/Src/stm32f1xx_hal_dma.c ****       hdma->DmaBaseAddress->IFCR = (DMA_ISR_GIF1 << hdma->ChannelIndex);
 545:Drivers/STM32F1xx_HAL_Driver/Src/stm32f1xx_hal_dma.c **** 
ARM GAS  C:\Users\GKQ\AppData\Local\Temp\cccAG2jo.s 			page 11


 546:Drivers/STM32F1xx_HAL_Driver/Src/stm32f1xx_hal_dma.c ****       /* Update error code */
 547:Drivers/STM32F1xx_HAL_Driver/Src/stm32f1xx_hal_dma.c ****       SET_BIT(hdma->ErrorCode, HAL_DMA_ERROR_TE);
 548:Drivers/STM32F1xx_HAL_Driver/Src/stm32f1xx_hal_dma.c **** 
 549:Drivers/STM32F1xx_HAL_Driver/Src/stm32f1xx_hal_dma.c ****       /* Change the DMA state */
 550:Drivers/STM32F1xx_HAL_Driver/Src/stm32f1xx_hal_dma.c ****       hdma->State= HAL_DMA_STATE_READY;
 551:Drivers/STM32F1xx_HAL_Driver/Src/stm32f1xx_hal_dma.c **** 
 552:Drivers/STM32F1xx_HAL_Driver/Src/stm32f1xx_hal_dma.c ****       /* Process Unlocked */
 553:Drivers/STM32F1xx_HAL_Driver/Src/stm32f1xx_hal_dma.c ****       __HAL_UNLOCK(hdma);
 554:Drivers/STM32F1xx_HAL_Driver/Src/stm32f1xx_hal_dma.c **** 
 555:Drivers/STM32F1xx_HAL_Driver/Src/stm32f1xx_hal_dma.c ****       return HAL_ERROR;
 556:Drivers/STM32F1xx_HAL_Driver/Src/stm32f1xx_hal_dma.c ****     }
 557:Drivers/STM32F1xx_HAL_Driver/Src/stm32f1xx_hal_dma.c ****     /* Check for the Timeout */
 558:Drivers/STM32F1xx_HAL_Driver/Src/stm32f1xx_hal_dma.c ****     if(Timeout != HAL_MAX_DELAY)
 559:Drivers/STM32F1xx_HAL_Driver/Src/stm32f1xx_hal_dma.c ****     {
 560:Drivers/STM32F1xx_HAL_Driver/Src/stm32f1xx_hal_dma.c ****       if((Timeout == 0U) || ((HAL_GetTick() - tickstart) > Timeout))
 561:Drivers/STM32F1xx_HAL_Driver/Src/stm32f1xx_hal_dma.c ****       {
 562:Drivers/STM32F1xx_HAL_Driver/Src/stm32f1xx_hal_dma.c ****         /* Update error code */
 563:Drivers/STM32F1xx_HAL_Driver/Src/stm32f1xx_hal_dma.c ****         SET_BIT(hdma->ErrorCode, HAL_DMA_ERROR_TIMEOUT);
 564:Drivers/STM32F1xx_HAL_Driver/Src/stm32f1xx_hal_dma.c **** 
 565:Drivers/STM32F1xx_HAL_Driver/Src/stm32f1xx_hal_dma.c ****         /* Change the DMA state */
 566:Drivers/STM32F1xx_HAL_Driver/Src/stm32f1xx_hal_dma.c ****         hdma->State = HAL_DMA_STATE_READY;
 567:Drivers/STM32F1xx_HAL_Driver/Src/stm32f1xx_hal_dma.c **** 
 568:Drivers/STM32F1xx_HAL_Driver/Src/stm32f1xx_hal_dma.c ****         /* Process Unlocked */
 569:Drivers/STM32F1xx_HAL_Driver/Src/stm32f1xx_hal_dma.c ****         __HAL_UNLOCK(hdma);
 570:Drivers/STM32F1xx_HAL_Driver/Src/stm32f1xx_hal_dma.c **** 
 571:Drivers/STM32F1xx_HAL_Driver/Src/stm32f1xx_hal_dma.c ****         return HAL_ERROR;
 572:Drivers/STM32F1xx_HAL_Driver/Src/stm32f1xx_hal_dma.c ****       }
 573:Drivers/STM32F1xx_HAL_Driver/Src/stm32f1xx_hal_dma.c ****     }
 574:Drivers/STM32F1xx_HAL_Driver/Src/stm32f1xx_hal_dma.c ****   }
 575:Drivers/STM32F1xx_HAL_Driver/Src/stm32f1xx_hal_dma.c **** 
 576:Drivers/STM32F1xx_HAL_Driver/Src/stm32f1xx_hal_dma.c ****   if(CompleteLevel == HAL_DMA_FULL_TRANSFER)
 577:Drivers/STM32F1xx_HAL_Driver/Src/stm32f1xx_hal_dma.c ****   {
 578:Drivers/STM32F1xx_HAL_Driver/Src/stm32f1xx_hal_dma.c ****     /* Clear the transfer complete flag */
 579:Drivers/STM32F1xx_HAL_Driver/Src/stm32f1xx_hal_dma.c ****     __HAL_DMA_CLEAR_FLAG(hdma, __HAL_DMA_GET_TC_FLAG_INDEX(hdma));
 580:Drivers/STM32F1xx_HAL_Driver/Src/stm32f1xx_hal_dma.c **** 
 581:Drivers/STM32F1xx_HAL_Driver/Src/stm32f1xx_hal_dma.c ****     /* The selected Channelx EN bit is cleared (DMA is disabled and
 582:Drivers/STM32F1xx_HAL_Driver/Src/stm32f1xx_hal_dma.c ****     all transfers are complete) */
 583:Drivers/STM32F1xx_HAL_Driver/Src/stm32f1xx_hal_dma.c ****     hdma->State = HAL_DMA_STATE_READY;
 584:Drivers/STM32F1xx_HAL_Driver/Src/stm32f1xx_hal_dma.c ****   }
 585:Drivers/STM32F1xx_HAL_Driver/Src/stm32f1xx_hal_dma.c ****   else
 586:Drivers/STM32F1xx_HAL_Driver/Src/stm32f1xx_hal_dma.c ****   {
 587:Drivers/STM32F1xx_HAL_Driver/Src/stm32f1xx_hal_dma.c ****     /* Clear the half transfer complete flag */
 588:Drivers/STM32F1xx_HAL_Driver/Src/stm32f1xx_hal_dma.c ****     __HAL_DMA_CLEAR_FLAG(hdma, __HAL_DMA_GET_HT_FLAG_INDEX(hdma));
 589:Drivers/STM32F1xx_HAL_Driver/Src/stm32f1xx_hal_dma.c ****   }
 590:Drivers/STM32F1xx_HAL_Driver/Src/stm32f1xx_hal_dma.c ****   
 591:Drivers/STM32F1xx_HAL_Driver/Src/stm32f1xx_hal_dma.c ****   /* Process unlocked */
 592:Drivers/STM32F1xx_HAL_Driver/Src/stm32f1xx_hal_dma.c ****   __HAL_UNLOCK(hdma);
 593:Drivers/STM32F1xx_HAL_Driver/Src/stm32f1xx_hal_dma.c **** 
 594:Drivers/STM32F1xx_HAL_Driver/Src/stm32f1xx_hal_dma.c ****   return HAL_OK;
 595:Drivers/STM32F1xx_HAL_Driver/Src/stm32f1xx_hal_dma.c **** }
 596:Drivers/STM32F1xx_HAL_Driver/Src/stm32f1xx_hal_dma.c **** 
 597:Drivers/STM32F1xx_HAL_Driver/Src/stm32f1xx_hal_dma.c **** /**
 598:Drivers/STM32F1xx_HAL_Driver/Src/stm32f1xx_hal_dma.c ****   * @brief  Handles DMA interrupt request.
 599:Drivers/STM32F1xx_HAL_Driver/Src/stm32f1xx_hal_dma.c ****   * @param  hdma: pointer to a DMA_HandleTypeDef structure that contains
 600:Drivers/STM32F1xx_HAL_Driver/Src/stm32f1xx_hal_dma.c ****   *               the configuration information for the specified DMA Channel.  
 601:Drivers/STM32F1xx_HAL_Driver/Src/stm32f1xx_hal_dma.c ****   * @retval None
 602:Drivers/STM32F1xx_HAL_Driver/Src/stm32f1xx_hal_dma.c ****   */
ARM GAS  C:\Users\GKQ\AppData\Local\Temp\cccAG2jo.s 			page 12


 603:Drivers/STM32F1xx_HAL_Driver/Src/stm32f1xx_hal_dma.c **** void HAL_DMA_IRQHandler(DMA_HandleTypeDef *hdma)
 604:Drivers/STM32F1xx_HAL_Driver/Src/stm32f1xx_hal_dma.c **** {
 605:Drivers/STM32F1xx_HAL_Driver/Src/stm32f1xx_hal_dma.c ****   uint32_t flag_it = hdma->DmaBaseAddress->ISR;
 606:Drivers/STM32F1xx_HAL_Driver/Src/stm32f1xx_hal_dma.c ****   uint32_t source_it = hdma->Instance->CCR;
 607:Drivers/STM32F1xx_HAL_Driver/Src/stm32f1xx_hal_dma.c ****   
 608:Drivers/STM32F1xx_HAL_Driver/Src/stm32f1xx_hal_dma.c ****   /* Half Transfer Complete Interrupt management ******************************/
 609:Drivers/STM32F1xx_HAL_Driver/Src/stm32f1xx_hal_dma.c ****   if (((flag_it & (DMA_FLAG_HT1 << hdma->ChannelIndex)) != RESET) && ((source_it & DMA_IT_HT) != RE
 610:Drivers/STM32F1xx_HAL_Driver/Src/stm32f1xx_hal_dma.c ****   {
 611:Drivers/STM32F1xx_HAL_Driver/Src/stm32f1xx_hal_dma.c ****     /* Disable the half transfer interrupt if the DMA mode is not CIRCULAR */
 612:Drivers/STM32F1xx_HAL_Driver/Src/stm32f1xx_hal_dma.c ****     if((hdma->Instance->CCR & DMA_CCR_CIRC) == 0U)
 613:Drivers/STM32F1xx_HAL_Driver/Src/stm32f1xx_hal_dma.c ****     {
 614:Drivers/STM32F1xx_HAL_Driver/Src/stm32f1xx_hal_dma.c ****       /* Disable the half transfer interrupt */
 615:Drivers/STM32F1xx_HAL_Driver/Src/stm32f1xx_hal_dma.c ****       __HAL_DMA_DISABLE_IT(hdma, DMA_IT_HT);
 616:Drivers/STM32F1xx_HAL_Driver/Src/stm32f1xx_hal_dma.c ****     }
 617:Drivers/STM32F1xx_HAL_Driver/Src/stm32f1xx_hal_dma.c ****     /* Clear the half transfer complete flag */
 618:Drivers/STM32F1xx_HAL_Driver/Src/stm32f1xx_hal_dma.c ****     __HAL_DMA_CLEAR_FLAG(hdma, __HAL_DMA_GET_HT_FLAG_INDEX(hdma));
 619:Drivers/STM32F1xx_HAL_Driver/Src/stm32f1xx_hal_dma.c **** 
 620:Drivers/STM32F1xx_HAL_Driver/Src/stm32f1xx_hal_dma.c ****     /* DMA peripheral state is not updated in Half Transfer */
 621:Drivers/STM32F1xx_HAL_Driver/Src/stm32f1xx_hal_dma.c ****     /* but in Transfer Complete case */
 622:Drivers/STM32F1xx_HAL_Driver/Src/stm32f1xx_hal_dma.c **** 
 623:Drivers/STM32F1xx_HAL_Driver/Src/stm32f1xx_hal_dma.c ****     if(hdma->XferHalfCpltCallback != NULL)
 624:Drivers/STM32F1xx_HAL_Driver/Src/stm32f1xx_hal_dma.c ****     {
 625:Drivers/STM32F1xx_HAL_Driver/Src/stm32f1xx_hal_dma.c ****       /* Half transfer callback */
 626:Drivers/STM32F1xx_HAL_Driver/Src/stm32f1xx_hal_dma.c ****       hdma->XferHalfCpltCallback(hdma);
 627:Drivers/STM32F1xx_HAL_Driver/Src/stm32f1xx_hal_dma.c ****     }
 628:Drivers/STM32F1xx_HAL_Driver/Src/stm32f1xx_hal_dma.c ****   }
 629:Drivers/STM32F1xx_HAL_Driver/Src/stm32f1xx_hal_dma.c **** 
 630:Drivers/STM32F1xx_HAL_Driver/Src/stm32f1xx_hal_dma.c ****   /* Transfer Complete Interrupt management ***********************************/
 631:Drivers/STM32F1xx_HAL_Driver/Src/stm32f1xx_hal_dma.c ****   else if (((flag_it & (DMA_FLAG_TC1 << hdma->ChannelIndex)) != RESET) && ((source_it & DMA_IT_TC) 
 632:Drivers/STM32F1xx_HAL_Driver/Src/stm32f1xx_hal_dma.c ****   {
 633:Drivers/STM32F1xx_HAL_Driver/Src/stm32f1xx_hal_dma.c ****     if((hdma->Instance->CCR & DMA_CCR_CIRC) == 0U)
 634:Drivers/STM32F1xx_HAL_Driver/Src/stm32f1xx_hal_dma.c ****     {
 635:Drivers/STM32F1xx_HAL_Driver/Src/stm32f1xx_hal_dma.c ****       /* Disable the transfer complete and error interrupt */
 636:Drivers/STM32F1xx_HAL_Driver/Src/stm32f1xx_hal_dma.c ****       __HAL_DMA_DISABLE_IT(hdma, DMA_IT_TE | DMA_IT_TC);  
 637:Drivers/STM32F1xx_HAL_Driver/Src/stm32f1xx_hal_dma.c **** 
 638:Drivers/STM32F1xx_HAL_Driver/Src/stm32f1xx_hal_dma.c ****       /* Change the DMA state */
 639:Drivers/STM32F1xx_HAL_Driver/Src/stm32f1xx_hal_dma.c ****       hdma->State = HAL_DMA_STATE_READY;
 640:Drivers/STM32F1xx_HAL_Driver/Src/stm32f1xx_hal_dma.c ****     }
 641:Drivers/STM32F1xx_HAL_Driver/Src/stm32f1xx_hal_dma.c ****     /* Clear the transfer complete flag */
 642:Drivers/STM32F1xx_HAL_Driver/Src/stm32f1xx_hal_dma.c ****       __HAL_DMA_CLEAR_FLAG(hdma, __HAL_DMA_GET_TC_FLAG_INDEX(hdma));
 643:Drivers/STM32F1xx_HAL_Driver/Src/stm32f1xx_hal_dma.c **** 
 644:Drivers/STM32F1xx_HAL_Driver/Src/stm32f1xx_hal_dma.c ****     /* Process Unlocked */
 645:Drivers/STM32F1xx_HAL_Driver/Src/stm32f1xx_hal_dma.c ****     __HAL_UNLOCK(hdma);
 646:Drivers/STM32F1xx_HAL_Driver/Src/stm32f1xx_hal_dma.c **** 
 647:Drivers/STM32F1xx_HAL_Driver/Src/stm32f1xx_hal_dma.c ****     if(hdma->XferCpltCallback != NULL)
 648:Drivers/STM32F1xx_HAL_Driver/Src/stm32f1xx_hal_dma.c ****     {
 649:Drivers/STM32F1xx_HAL_Driver/Src/stm32f1xx_hal_dma.c ****       /* Transfer complete callback */
 650:Drivers/STM32F1xx_HAL_Driver/Src/stm32f1xx_hal_dma.c ****       hdma->XferCpltCallback(hdma);
 651:Drivers/STM32F1xx_HAL_Driver/Src/stm32f1xx_hal_dma.c ****     }
 652:Drivers/STM32F1xx_HAL_Driver/Src/stm32f1xx_hal_dma.c ****   }
 653:Drivers/STM32F1xx_HAL_Driver/Src/stm32f1xx_hal_dma.c **** 
 654:Drivers/STM32F1xx_HAL_Driver/Src/stm32f1xx_hal_dma.c ****   /* Transfer Error Interrupt management **************************************/
 655:Drivers/STM32F1xx_HAL_Driver/Src/stm32f1xx_hal_dma.c ****   else if (( RESET != (flag_it & (DMA_FLAG_TE1 << hdma->ChannelIndex))) && (RESET != (source_it & D
 656:Drivers/STM32F1xx_HAL_Driver/Src/stm32f1xx_hal_dma.c ****   {
 657:Drivers/STM32F1xx_HAL_Driver/Src/stm32f1xx_hal_dma.c ****     /* When a DMA transfer error occurs */
 658:Drivers/STM32F1xx_HAL_Driver/Src/stm32f1xx_hal_dma.c ****     /* A hardware clear of its EN bits is performed */
 659:Drivers/STM32F1xx_HAL_Driver/Src/stm32f1xx_hal_dma.c ****     /* Disable ALL DMA IT */
ARM GAS  C:\Users\GKQ\AppData\Local\Temp\cccAG2jo.s 			page 13


 660:Drivers/STM32F1xx_HAL_Driver/Src/stm32f1xx_hal_dma.c ****     __HAL_DMA_DISABLE_IT(hdma, (DMA_IT_TC | DMA_IT_HT | DMA_IT_TE));
 661:Drivers/STM32F1xx_HAL_Driver/Src/stm32f1xx_hal_dma.c **** 
 662:Drivers/STM32F1xx_HAL_Driver/Src/stm32f1xx_hal_dma.c ****     /* Clear all flags */
 663:Drivers/STM32F1xx_HAL_Driver/Src/stm32f1xx_hal_dma.c ****     hdma->DmaBaseAddress->IFCR = (DMA_ISR_GIF1 << hdma->ChannelIndex);
 664:Drivers/STM32F1xx_HAL_Driver/Src/stm32f1xx_hal_dma.c **** 
 665:Drivers/STM32F1xx_HAL_Driver/Src/stm32f1xx_hal_dma.c ****     /* Update error code */
 666:Drivers/STM32F1xx_HAL_Driver/Src/stm32f1xx_hal_dma.c ****     hdma->ErrorCode = HAL_DMA_ERROR_TE;
 667:Drivers/STM32F1xx_HAL_Driver/Src/stm32f1xx_hal_dma.c **** 
 668:Drivers/STM32F1xx_HAL_Driver/Src/stm32f1xx_hal_dma.c ****     /* Change the DMA state */
 669:Drivers/STM32F1xx_HAL_Driver/Src/stm32f1xx_hal_dma.c ****     hdma->State = HAL_DMA_STATE_READY;
 670:Drivers/STM32F1xx_HAL_Driver/Src/stm32f1xx_hal_dma.c **** 
 671:Drivers/STM32F1xx_HAL_Driver/Src/stm32f1xx_hal_dma.c ****     /* Process Unlocked */
 672:Drivers/STM32F1xx_HAL_Driver/Src/stm32f1xx_hal_dma.c ****     __HAL_UNLOCK(hdma);
 673:Drivers/STM32F1xx_HAL_Driver/Src/stm32f1xx_hal_dma.c **** 
 674:Drivers/STM32F1xx_HAL_Driver/Src/stm32f1xx_hal_dma.c ****     if (hdma->XferErrorCallback != NULL)
 675:Drivers/STM32F1xx_HAL_Driver/Src/stm32f1xx_hal_dma.c ****     {
 676:Drivers/STM32F1xx_HAL_Driver/Src/stm32f1xx_hal_dma.c ****       /* Transfer error callback */
 677:Drivers/STM32F1xx_HAL_Driver/Src/stm32f1xx_hal_dma.c ****       hdma->XferErrorCallback(hdma);
 678:Drivers/STM32F1xx_HAL_Driver/Src/stm32f1xx_hal_dma.c ****     }
 679:Drivers/STM32F1xx_HAL_Driver/Src/stm32f1xx_hal_dma.c ****   }
 680:Drivers/STM32F1xx_HAL_Driver/Src/stm32f1xx_hal_dma.c ****   return;
 681:Drivers/STM32F1xx_HAL_Driver/Src/stm32f1xx_hal_dma.c **** }
 682:Drivers/STM32F1xx_HAL_Driver/Src/stm32f1xx_hal_dma.c **** 
 683:Drivers/STM32F1xx_HAL_Driver/Src/stm32f1xx_hal_dma.c **** /**
 684:Drivers/STM32F1xx_HAL_Driver/Src/stm32f1xx_hal_dma.c ****   * @brief Register callbacks
 685:Drivers/STM32F1xx_HAL_Driver/Src/stm32f1xx_hal_dma.c ****   * @param hdma: pointer to a DMA_HandleTypeDef structure that contains
 686:Drivers/STM32F1xx_HAL_Driver/Src/stm32f1xx_hal_dma.c ****   *              the configuration information for the specified DMA Channel.
 687:Drivers/STM32F1xx_HAL_Driver/Src/stm32f1xx_hal_dma.c ****   * @param CallbackID: User Callback identifer
 688:Drivers/STM32F1xx_HAL_Driver/Src/stm32f1xx_hal_dma.c ****   *                    a HAL_DMA_CallbackIDTypeDef ENUM as parameter.
 689:Drivers/STM32F1xx_HAL_Driver/Src/stm32f1xx_hal_dma.c ****   * @param pCallback: pointer to private callbacsk function which has pointer to 
 690:Drivers/STM32F1xx_HAL_Driver/Src/stm32f1xx_hal_dma.c ****   *                   a DMA_HandleTypeDef structure as parameter.
 691:Drivers/STM32F1xx_HAL_Driver/Src/stm32f1xx_hal_dma.c ****   * @retval HAL status
 692:Drivers/STM32F1xx_HAL_Driver/Src/stm32f1xx_hal_dma.c ****   */                          
 693:Drivers/STM32F1xx_HAL_Driver/Src/stm32f1xx_hal_dma.c **** HAL_StatusTypeDef HAL_DMA_RegisterCallback(DMA_HandleTypeDef *hdma, HAL_DMA_CallbackIDTypeDef Callb
 694:Drivers/STM32F1xx_HAL_Driver/Src/stm32f1xx_hal_dma.c **** {
 695:Drivers/STM32F1xx_HAL_Driver/Src/stm32f1xx_hal_dma.c ****   HAL_StatusTypeDef status = HAL_OK;
 696:Drivers/STM32F1xx_HAL_Driver/Src/stm32f1xx_hal_dma.c ****   
 697:Drivers/STM32F1xx_HAL_Driver/Src/stm32f1xx_hal_dma.c ****   /* Process locked */
 698:Drivers/STM32F1xx_HAL_Driver/Src/stm32f1xx_hal_dma.c ****   __HAL_LOCK(hdma);
 699:Drivers/STM32F1xx_HAL_Driver/Src/stm32f1xx_hal_dma.c ****   
 700:Drivers/STM32F1xx_HAL_Driver/Src/stm32f1xx_hal_dma.c ****   if(HAL_DMA_STATE_READY == hdma->State)
 701:Drivers/STM32F1xx_HAL_Driver/Src/stm32f1xx_hal_dma.c ****   {
 702:Drivers/STM32F1xx_HAL_Driver/Src/stm32f1xx_hal_dma.c ****     switch (CallbackID)
 703:Drivers/STM32F1xx_HAL_Driver/Src/stm32f1xx_hal_dma.c ****     {
 704:Drivers/STM32F1xx_HAL_Driver/Src/stm32f1xx_hal_dma.c ****     case  HAL_DMA_XFER_CPLT_CB_ID:
 705:Drivers/STM32F1xx_HAL_Driver/Src/stm32f1xx_hal_dma.c ****       hdma->XferCpltCallback = pCallback;
 706:Drivers/STM32F1xx_HAL_Driver/Src/stm32f1xx_hal_dma.c ****       break;
 707:Drivers/STM32F1xx_HAL_Driver/Src/stm32f1xx_hal_dma.c ****       
 708:Drivers/STM32F1xx_HAL_Driver/Src/stm32f1xx_hal_dma.c ****     case  HAL_DMA_XFER_HALFCPLT_CB_ID:
 709:Drivers/STM32F1xx_HAL_Driver/Src/stm32f1xx_hal_dma.c ****       hdma->XferHalfCpltCallback = pCallback;
 710:Drivers/STM32F1xx_HAL_Driver/Src/stm32f1xx_hal_dma.c ****       break;         
 711:Drivers/STM32F1xx_HAL_Driver/Src/stm32f1xx_hal_dma.c **** 
 712:Drivers/STM32F1xx_HAL_Driver/Src/stm32f1xx_hal_dma.c ****     case  HAL_DMA_XFER_ERROR_CB_ID:
 713:Drivers/STM32F1xx_HAL_Driver/Src/stm32f1xx_hal_dma.c ****       hdma->XferErrorCallback = pCallback;
 714:Drivers/STM32F1xx_HAL_Driver/Src/stm32f1xx_hal_dma.c ****       break;         
 715:Drivers/STM32F1xx_HAL_Driver/Src/stm32f1xx_hal_dma.c ****       
 716:Drivers/STM32F1xx_HAL_Driver/Src/stm32f1xx_hal_dma.c ****     case  HAL_DMA_XFER_ABORT_CB_ID:
ARM GAS  C:\Users\GKQ\AppData\Local\Temp\cccAG2jo.s 			page 14


 717:Drivers/STM32F1xx_HAL_Driver/Src/stm32f1xx_hal_dma.c ****       hdma->XferAbortCallback = pCallback;
 718:Drivers/STM32F1xx_HAL_Driver/Src/stm32f1xx_hal_dma.c ****       break; 
 719:Drivers/STM32F1xx_HAL_Driver/Src/stm32f1xx_hal_dma.c ****       
 720:Drivers/STM32F1xx_HAL_Driver/Src/stm32f1xx_hal_dma.c ****     default:
 721:Drivers/STM32F1xx_HAL_Driver/Src/stm32f1xx_hal_dma.c ****       status = HAL_ERROR;
 722:Drivers/STM32F1xx_HAL_Driver/Src/stm32f1xx_hal_dma.c ****       break;                                                            
 723:Drivers/STM32F1xx_HAL_Driver/Src/stm32f1xx_hal_dma.c ****     }
 724:Drivers/STM32F1xx_HAL_Driver/Src/stm32f1xx_hal_dma.c ****   }
 725:Drivers/STM32F1xx_HAL_Driver/Src/stm32f1xx_hal_dma.c ****   else
 726:Drivers/STM32F1xx_HAL_Driver/Src/stm32f1xx_hal_dma.c ****   {
 727:Drivers/STM32F1xx_HAL_Driver/Src/stm32f1xx_hal_dma.c ****     status = HAL_ERROR;
 728:Drivers/STM32F1xx_HAL_Driver/Src/stm32f1xx_hal_dma.c ****   } 
 729:Drivers/STM32F1xx_HAL_Driver/Src/stm32f1xx_hal_dma.c ****   
 730:Drivers/STM32F1xx_HAL_Driver/Src/stm32f1xx_hal_dma.c ****   /* Release Lock */
 731:Drivers/STM32F1xx_HAL_Driver/Src/stm32f1xx_hal_dma.c ****   __HAL_UNLOCK(hdma);
 732:Drivers/STM32F1xx_HAL_Driver/Src/stm32f1xx_hal_dma.c ****   
 733:Drivers/STM32F1xx_HAL_Driver/Src/stm32f1xx_hal_dma.c ****   return status;
 734:Drivers/STM32F1xx_HAL_Driver/Src/stm32f1xx_hal_dma.c **** }
 735:Drivers/STM32F1xx_HAL_Driver/Src/stm32f1xx_hal_dma.c **** 
 736:Drivers/STM32F1xx_HAL_Driver/Src/stm32f1xx_hal_dma.c **** /**
 737:Drivers/STM32F1xx_HAL_Driver/Src/stm32f1xx_hal_dma.c ****   * @brief UnRegister callbacks
 738:Drivers/STM32F1xx_HAL_Driver/Src/stm32f1xx_hal_dma.c ****   * @param hdma: pointer to a DMA_HandleTypeDef structure that contains
 739:Drivers/STM32F1xx_HAL_Driver/Src/stm32f1xx_hal_dma.c ****   *              the configuration information for the specified DMA Channel.
 740:Drivers/STM32F1xx_HAL_Driver/Src/stm32f1xx_hal_dma.c ****   * @param CallbackID: User Callback identifer
 741:Drivers/STM32F1xx_HAL_Driver/Src/stm32f1xx_hal_dma.c ****   *                    a HAL_DMA_CallbackIDTypeDef ENUM as parameter.
 742:Drivers/STM32F1xx_HAL_Driver/Src/stm32f1xx_hal_dma.c ****   * @retval HAL status
 743:Drivers/STM32F1xx_HAL_Driver/Src/stm32f1xx_hal_dma.c ****   */              
 744:Drivers/STM32F1xx_HAL_Driver/Src/stm32f1xx_hal_dma.c **** HAL_StatusTypeDef HAL_DMA_UnRegisterCallback(DMA_HandleTypeDef *hdma, HAL_DMA_CallbackIDTypeDef Cal
 745:Drivers/STM32F1xx_HAL_Driver/Src/stm32f1xx_hal_dma.c **** {
 746:Drivers/STM32F1xx_HAL_Driver/Src/stm32f1xx_hal_dma.c ****   HAL_StatusTypeDef status = HAL_OK;
 747:Drivers/STM32F1xx_HAL_Driver/Src/stm32f1xx_hal_dma.c **** 
 748:Drivers/STM32F1xx_HAL_Driver/Src/stm32f1xx_hal_dma.c ****   /* Process locked */
 749:Drivers/STM32F1xx_HAL_Driver/Src/stm32f1xx_hal_dma.c ****   __HAL_LOCK(hdma);
 750:Drivers/STM32F1xx_HAL_Driver/Src/stm32f1xx_hal_dma.c ****   
 751:Drivers/STM32F1xx_HAL_Driver/Src/stm32f1xx_hal_dma.c ****   if(HAL_DMA_STATE_READY == hdma->State)
 752:Drivers/STM32F1xx_HAL_Driver/Src/stm32f1xx_hal_dma.c ****   {
 753:Drivers/STM32F1xx_HAL_Driver/Src/stm32f1xx_hal_dma.c ****     switch (CallbackID)
 754:Drivers/STM32F1xx_HAL_Driver/Src/stm32f1xx_hal_dma.c ****     {
 755:Drivers/STM32F1xx_HAL_Driver/Src/stm32f1xx_hal_dma.c ****     case  HAL_DMA_XFER_CPLT_CB_ID:
 756:Drivers/STM32F1xx_HAL_Driver/Src/stm32f1xx_hal_dma.c ****       hdma->XferCpltCallback = NULL;
 757:Drivers/STM32F1xx_HAL_Driver/Src/stm32f1xx_hal_dma.c ****       break;
 758:Drivers/STM32F1xx_HAL_Driver/Src/stm32f1xx_hal_dma.c **** 
 759:Drivers/STM32F1xx_HAL_Driver/Src/stm32f1xx_hal_dma.c ****     case  HAL_DMA_XFER_HALFCPLT_CB_ID:
 760:Drivers/STM32F1xx_HAL_Driver/Src/stm32f1xx_hal_dma.c ****       hdma->XferHalfCpltCallback = NULL;
 761:Drivers/STM32F1xx_HAL_Driver/Src/stm32f1xx_hal_dma.c ****       break;         
 762:Drivers/STM32F1xx_HAL_Driver/Src/stm32f1xx_hal_dma.c **** 
 763:Drivers/STM32F1xx_HAL_Driver/Src/stm32f1xx_hal_dma.c ****     case  HAL_DMA_XFER_ERROR_CB_ID:
 764:Drivers/STM32F1xx_HAL_Driver/Src/stm32f1xx_hal_dma.c ****       hdma->XferErrorCallback = NULL;
 765:Drivers/STM32F1xx_HAL_Driver/Src/stm32f1xx_hal_dma.c ****       break;         
 766:Drivers/STM32F1xx_HAL_Driver/Src/stm32f1xx_hal_dma.c **** 
 767:Drivers/STM32F1xx_HAL_Driver/Src/stm32f1xx_hal_dma.c ****     case  HAL_DMA_XFER_ABORT_CB_ID:
 768:Drivers/STM32F1xx_HAL_Driver/Src/stm32f1xx_hal_dma.c ****       hdma->XferAbortCallback = NULL;
 769:Drivers/STM32F1xx_HAL_Driver/Src/stm32f1xx_hal_dma.c ****       break; 
 770:Drivers/STM32F1xx_HAL_Driver/Src/stm32f1xx_hal_dma.c **** 
 771:Drivers/STM32F1xx_HAL_Driver/Src/stm32f1xx_hal_dma.c ****     case   HAL_DMA_XFER_ALL_CB_ID:
 772:Drivers/STM32F1xx_HAL_Driver/Src/stm32f1xx_hal_dma.c ****       hdma->XferCpltCallback = NULL;
 773:Drivers/STM32F1xx_HAL_Driver/Src/stm32f1xx_hal_dma.c ****       hdma->XferHalfCpltCallback = NULL;
ARM GAS  C:\Users\GKQ\AppData\Local\Temp\cccAG2jo.s 			page 15


 774:Drivers/STM32F1xx_HAL_Driver/Src/stm32f1xx_hal_dma.c ****       hdma->XferErrorCallback = NULL;
 775:Drivers/STM32F1xx_HAL_Driver/Src/stm32f1xx_hal_dma.c ****       hdma->XferAbortCallback = NULL;
 776:Drivers/STM32F1xx_HAL_Driver/Src/stm32f1xx_hal_dma.c ****       break; 
 777:Drivers/STM32F1xx_HAL_Driver/Src/stm32f1xx_hal_dma.c **** 
 778:Drivers/STM32F1xx_HAL_Driver/Src/stm32f1xx_hal_dma.c ****     default:
 779:Drivers/STM32F1xx_HAL_Driver/Src/stm32f1xx_hal_dma.c ****       status = HAL_ERROR;
 780:Drivers/STM32F1xx_HAL_Driver/Src/stm32f1xx_hal_dma.c ****       break;
 781:Drivers/STM32F1xx_HAL_Driver/Src/stm32f1xx_hal_dma.c ****     }
 782:Drivers/STM32F1xx_HAL_Driver/Src/stm32f1xx_hal_dma.c ****   }
 783:Drivers/STM32F1xx_HAL_Driver/Src/stm32f1xx_hal_dma.c ****   else
 784:Drivers/STM32F1xx_HAL_Driver/Src/stm32f1xx_hal_dma.c ****   {
 785:Drivers/STM32F1xx_HAL_Driver/Src/stm32f1xx_hal_dma.c ****     status = HAL_ERROR;
 786:Drivers/STM32F1xx_HAL_Driver/Src/stm32f1xx_hal_dma.c ****   } 
 787:Drivers/STM32F1xx_HAL_Driver/Src/stm32f1xx_hal_dma.c ****   
 788:Drivers/STM32F1xx_HAL_Driver/Src/stm32f1xx_hal_dma.c ****   /* Release Lock */
 789:Drivers/STM32F1xx_HAL_Driver/Src/stm32f1xx_hal_dma.c ****   __HAL_UNLOCK(hdma);
 790:Drivers/STM32F1xx_HAL_Driver/Src/stm32f1xx_hal_dma.c ****   
 791:Drivers/STM32F1xx_HAL_Driver/Src/stm32f1xx_hal_dma.c ****   return status;
 792:Drivers/STM32F1xx_HAL_Driver/Src/stm32f1xx_hal_dma.c **** }
 793:Drivers/STM32F1xx_HAL_Driver/Src/stm32f1xx_hal_dma.c ****   
 794:Drivers/STM32F1xx_HAL_Driver/Src/stm32f1xx_hal_dma.c **** /**
 795:Drivers/STM32F1xx_HAL_Driver/Src/stm32f1xx_hal_dma.c ****   * @}
 796:Drivers/STM32F1xx_HAL_Driver/Src/stm32f1xx_hal_dma.c ****   */
 797:Drivers/STM32F1xx_HAL_Driver/Src/stm32f1xx_hal_dma.c **** 
 798:Drivers/STM32F1xx_HAL_Driver/Src/stm32f1xx_hal_dma.c **** /** @defgroup DMA_Exported_Functions_Group3 Peripheral State and Errors functions
 799:Drivers/STM32F1xx_HAL_Driver/Src/stm32f1xx_hal_dma.c ****   *  @brief    Peripheral State and Errors functions
 800:Drivers/STM32F1xx_HAL_Driver/Src/stm32f1xx_hal_dma.c ****   *
 801:Drivers/STM32F1xx_HAL_Driver/Src/stm32f1xx_hal_dma.c **** @verbatim
 802:Drivers/STM32F1xx_HAL_Driver/Src/stm32f1xx_hal_dma.c ****  ===============================================================================
 803:Drivers/STM32F1xx_HAL_Driver/Src/stm32f1xx_hal_dma.c ****             ##### Peripheral State and Errors functions #####
 804:Drivers/STM32F1xx_HAL_Driver/Src/stm32f1xx_hal_dma.c ****  ===============================================================================  
 805:Drivers/STM32F1xx_HAL_Driver/Src/stm32f1xx_hal_dma.c ****     [..]
 806:Drivers/STM32F1xx_HAL_Driver/Src/stm32f1xx_hal_dma.c ****     This subsection provides functions allowing to
 807:Drivers/STM32F1xx_HAL_Driver/Src/stm32f1xx_hal_dma.c ****       (+) Check the DMA state
 808:Drivers/STM32F1xx_HAL_Driver/Src/stm32f1xx_hal_dma.c ****       (+) Get error code
 809:Drivers/STM32F1xx_HAL_Driver/Src/stm32f1xx_hal_dma.c **** 
 810:Drivers/STM32F1xx_HAL_Driver/Src/stm32f1xx_hal_dma.c **** @endverbatim
 811:Drivers/STM32F1xx_HAL_Driver/Src/stm32f1xx_hal_dma.c ****   * @{
 812:Drivers/STM32F1xx_HAL_Driver/Src/stm32f1xx_hal_dma.c ****   */
 813:Drivers/STM32F1xx_HAL_Driver/Src/stm32f1xx_hal_dma.c **** 
 814:Drivers/STM32F1xx_HAL_Driver/Src/stm32f1xx_hal_dma.c **** /**
 815:Drivers/STM32F1xx_HAL_Driver/Src/stm32f1xx_hal_dma.c ****   * @brief  Return the DMA hande state.
 816:Drivers/STM32F1xx_HAL_Driver/Src/stm32f1xx_hal_dma.c ****   * @param  hdma: pointer to a DMA_HandleTypeDef structure that contains
 817:Drivers/STM32F1xx_HAL_Driver/Src/stm32f1xx_hal_dma.c ****   *               the configuration information for the specified DMA Channel.
 818:Drivers/STM32F1xx_HAL_Driver/Src/stm32f1xx_hal_dma.c ****   * @retval HAL state
 819:Drivers/STM32F1xx_HAL_Driver/Src/stm32f1xx_hal_dma.c ****   */
 820:Drivers/STM32F1xx_HAL_Driver/Src/stm32f1xx_hal_dma.c **** HAL_DMA_StateTypeDef HAL_DMA_GetState(DMA_HandleTypeDef *hdma)
 821:Drivers/STM32F1xx_HAL_Driver/Src/stm32f1xx_hal_dma.c **** {
 822:Drivers/STM32F1xx_HAL_Driver/Src/stm32f1xx_hal_dma.c ****   /* Return DMA handle state */
 823:Drivers/STM32F1xx_HAL_Driver/Src/stm32f1xx_hal_dma.c ****   return hdma->State;
 824:Drivers/STM32F1xx_HAL_Driver/Src/stm32f1xx_hal_dma.c **** }
 825:Drivers/STM32F1xx_HAL_Driver/Src/stm32f1xx_hal_dma.c **** 
 826:Drivers/STM32F1xx_HAL_Driver/Src/stm32f1xx_hal_dma.c **** /**
 827:Drivers/STM32F1xx_HAL_Driver/Src/stm32f1xx_hal_dma.c ****   * @brief  Return the DMA error code.
 828:Drivers/STM32F1xx_HAL_Driver/Src/stm32f1xx_hal_dma.c ****   * @param  hdma : pointer to a DMA_HandleTypeDef structure that contains
 829:Drivers/STM32F1xx_HAL_Driver/Src/stm32f1xx_hal_dma.c ****   *              the configuration information for the specified DMA Channel.
 830:Drivers/STM32F1xx_HAL_Driver/Src/stm32f1xx_hal_dma.c ****   * @retval DMA Error Code
ARM GAS  C:\Users\GKQ\AppData\Local\Temp\cccAG2jo.s 			page 16


 831:Drivers/STM32F1xx_HAL_Driver/Src/stm32f1xx_hal_dma.c ****   */
 832:Drivers/STM32F1xx_HAL_Driver/Src/stm32f1xx_hal_dma.c **** uint32_t HAL_DMA_GetError(DMA_HandleTypeDef *hdma)
 833:Drivers/STM32F1xx_HAL_Driver/Src/stm32f1xx_hal_dma.c **** {
 834:Drivers/STM32F1xx_HAL_Driver/Src/stm32f1xx_hal_dma.c ****   return hdma->ErrorCode;
 835:Drivers/STM32F1xx_HAL_Driver/Src/stm32f1xx_hal_dma.c **** }
 836:Drivers/STM32F1xx_HAL_Driver/Src/stm32f1xx_hal_dma.c **** 
 837:Drivers/STM32F1xx_HAL_Driver/Src/stm32f1xx_hal_dma.c **** /**
 838:Drivers/STM32F1xx_HAL_Driver/Src/stm32f1xx_hal_dma.c ****   * @}
 839:Drivers/STM32F1xx_HAL_Driver/Src/stm32f1xx_hal_dma.c ****   */
 840:Drivers/STM32F1xx_HAL_Driver/Src/stm32f1xx_hal_dma.c **** 
 841:Drivers/STM32F1xx_HAL_Driver/Src/stm32f1xx_hal_dma.c **** /**
 842:Drivers/STM32F1xx_HAL_Driver/Src/stm32f1xx_hal_dma.c ****   * @}
 843:Drivers/STM32F1xx_HAL_Driver/Src/stm32f1xx_hal_dma.c ****   */
 844:Drivers/STM32F1xx_HAL_Driver/Src/stm32f1xx_hal_dma.c **** 
 845:Drivers/STM32F1xx_HAL_Driver/Src/stm32f1xx_hal_dma.c **** /** @addtogroup DMA_Private_Functions
 846:Drivers/STM32F1xx_HAL_Driver/Src/stm32f1xx_hal_dma.c ****   * @{
 847:Drivers/STM32F1xx_HAL_Driver/Src/stm32f1xx_hal_dma.c ****   */
 848:Drivers/STM32F1xx_HAL_Driver/Src/stm32f1xx_hal_dma.c **** 
 849:Drivers/STM32F1xx_HAL_Driver/Src/stm32f1xx_hal_dma.c **** /**
 850:Drivers/STM32F1xx_HAL_Driver/Src/stm32f1xx_hal_dma.c ****   * @brief  Sets the DMA Transfer parameter.
 851:Drivers/STM32F1xx_HAL_Driver/Src/stm32f1xx_hal_dma.c ****   * @param  hdma:       pointer to a DMA_HandleTypeDef structure that contains
 852:Drivers/STM32F1xx_HAL_Driver/Src/stm32f1xx_hal_dma.c ****   *                     the configuration information for the specified DMA Channel.
 853:Drivers/STM32F1xx_HAL_Driver/Src/stm32f1xx_hal_dma.c ****   * @param  SrcAddress: The source memory Buffer address
 854:Drivers/STM32F1xx_HAL_Driver/Src/stm32f1xx_hal_dma.c ****   * @param  DstAddress: The destination memory Buffer address
 855:Drivers/STM32F1xx_HAL_Driver/Src/stm32f1xx_hal_dma.c ****   * @param  DataLength: The length of data to be transferred from source to destination
 856:Drivers/STM32F1xx_HAL_Driver/Src/stm32f1xx_hal_dma.c ****   * @retval HAL status
 857:Drivers/STM32F1xx_HAL_Driver/Src/stm32f1xx_hal_dma.c ****   */
 858:Drivers/STM32F1xx_HAL_Driver/Src/stm32f1xx_hal_dma.c **** static void DMA_SetConfig(DMA_HandleTypeDef *hdma, uint32_t SrcAddress, uint32_t DstAddress, uint32
 859:Drivers/STM32F1xx_HAL_Driver/Src/stm32f1xx_hal_dma.c **** {
  27              		.loc 1 859 1 view -0
  28              		.cfi_startproc
  29              		@ args = 0, pretend = 0, frame = 0
  30              		@ frame_needed = 0, uses_anonymous_args = 0
  31              		@ link register save eliminated.
  32              		.loc 1 859 1 is_stmt 0 view .LVU1
  33 0000 70B4     		push	{r4, r5, r6}
  34              	.LCFI0:
  35              		.cfi_def_cfa_offset 12
  36              		.cfi_offset 4, -12
  37              		.cfi_offset 5, -8
  38              		.cfi_offset 6, -4
 860:Drivers/STM32F1xx_HAL_Driver/Src/stm32f1xx_hal_dma.c ****   /* Clear all flags */
 861:Drivers/STM32F1xx_HAL_Driver/Src/stm32f1xx_hal_dma.c ****   hdma->DmaBaseAddress->IFCR = (DMA_ISR_GIF1 << hdma->ChannelIndex);
  39              		.loc 1 861 3 is_stmt 1 view .LVU2
  40              		.loc 1 861 53 is_stmt 0 view .LVU3
  41 0002 066C     		ldr	r6, [r0, #64]
  42              		.loc 1 861 7 view .LVU4
  43 0004 C56B     		ldr	r5, [r0, #60]
  44              		.loc 1 861 46 view .LVU5
  45 0006 0124     		movs	r4, #1
  46 0008 B440     		lsls	r4, r4, r6
  47              		.loc 1 861 30 view .LVU6
  48 000a 6C60     		str	r4, [r5, #4]
 862:Drivers/STM32F1xx_HAL_Driver/Src/stm32f1xx_hal_dma.c **** 
 863:Drivers/STM32F1xx_HAL_Driver/Src/stm32f1xx_hal_dma.c ****   /* Configure DMA Channel data length */
 864:Drivers/STM32F1xx_HAL_Driver/Src/stm32f1xx_hal_dma.c ****   hdma->Instance->CNDTR = DataLength;
  49              		.loc 1 864 3 is_stmt 1 view .LVU7
ARM GAS  C:\Users\GKQ\AppData\Local\Temp\cccAG2jo.s 			page 17


  50              		.loc 1 864 7 is_stmt 0 view .LVU8
  51 000c 0468     		ldr	r4, [r0]
  52              		.loc 1 864 25 view .LVU9
  53 000e 6360     		str	r3, [r4, #4]
 865:Drivers/STM32F1xx_HAL_Driver/Src/stm32f1xx_hal_dma.c **** 
 866:Drivers/STM32F1xx_HAL_Driver/Src/stm32f1xx_hal_dma.c ****   /* Memory to Peripheral */
 867:Drivers/STM32F1xx_HAL_Driver/Src/stm32f1xx_hal_dma.c ****   if((hdma->Init.Direction) == DMA_MEMORY_TO_PERIPH)
  54              		.loc 1 867 3 is_stmt 1 view .LVU10
  55              		.loc 1 867 17 is_stmt 0 view .LVU11
  56 0010 4368     		ldr	r3, [r0, #4]
  57              	.LVL1:
  58              		.loc 1 867 5 view .LVU12
  59 0012 102B     		cmp	r3, #16
  60 0014 05D0     		beq	.L5
 868:Drivers/STM32F1xx_HAL_Driver/Src/stm32f1xx_hal_dma.c ****   {
 869:Drivers/STM32F1xx_HAL_Driver/Src/stm32f1xx_hal_dma.c ****     /* Configure DMA Channel destination address */
 870:Drivers/STM32F1xx_HAL_Driver/Src/stm32f1xx_hal_dma.c ****     hdma->Instance->CPAR = DstAddress;
 871:Drivers/STM32F1xx_HAL_Driver/Src/stm32f1xx_hal_dma.c **** 
 872:Drivers/STM32F1xx_HAL_Driver/Src/stm32f1xx_hal_dma.c ****     /* Configure DMA Channel source address */
 873:Drivers/STM32F1xx_HAL_Driver/Src/stm32f1xx_hal_dma.c ****     hdma->Instance->CMAR = SrcAddress;
 874:Drivers/STM32F1xx_HAL_Driver/Src/stm32f1xx_hal_dma.c ****   }
 875:Drivers/STM32F1xx_HAL_Driver/Src/stm32f1xx_hal_dma.c ****   /* Peripheral to Memory */
 876:Drivers/STM32F1xx_HAL_Driver/Src/stm32f1xx_hal_dma.c ****   else
 877:Drivers/STM32F1xx_HAL_Driver/Src/stm32f1xx_hal_dma.c ****   {
 878:Drivers/STM32F1xx_HAL_Driver/Src/stm32f1xx_hal_dma.c ****     /* Configure DMA Channel source address */
 879:Drivers/STM32F1xx_HAL_Driver/Src/stm32f1xx_hal_dma.c ****     hdma->Instance->CPAR = SrcAddress;
  61              		.loc 1 879 5 is_stmt 1 view .LVU13
  62              		.loc 1 879 9 is_stmt 0 view .LVU14
  63 0016 0368     		ldr	r3, [r0]
  64              		.loc 1 879 26 view .LVU15
  65 0018 9960     		str	r1, [r3, #8]
  66              	.LVL2:
 880:Drivers/STM32F1xx_HAL_Driver/Src/stm32f1xx_hal_dma.c **** 
 881:Drivers/STM32F1xx_HAL_Driver/Src/stm32f1xx_hal_dma.c ****     /* Configure DMA Channel destination address */
 882:Drivers/STM32F1xx_HAL_Driver/Src/stm32f1xx_hal_dma.c ****     hdma->Instance->CMAR = DstAddress;
  67              		.loc 1 882 5 is_stmt 1 view .LVU16
  68              		.loc 1 882 9 is_stmt 0 view .LVU17
  69 001a 0368     		ldr	r3, [r0]
  70              		.loc 1 882 26 view .LVU18
  71 001c DA60     		str	r2, [r3, #12]
  72              	.L1:
 883:Drivers/STM32F1xx_HAL_Driver/Src/stm32f1xx_hal_dma.c ****   }
 884:Drivers/STM32F1xx_HAL_Driver/Src/stm32f1xx_hal_dma.c **** }
  73              		.loc 1 884 1 view .LVU19
  74 001e 70BC     		pop	{r4, r5, r6}
  75              	.LCFI1:
  76              		.cfi_remember_state
  77              		.cfi_restore 6
  78              		.cfi_restore 5
  79              		.cfi_restore 4
  80              		.cfi_def_cfa_offset 0
  81 0020 7047     		bx	lr
  82              	.LVL3:
  83              	.L5:
  84              	.LCFI2:
  85              		.cfi_restore_state
 870:Drivers/STM32F1xx_HAL_Driver/Src/stm32f1xx_hal_dma.c **** 
ARM GAS  C:\Users\GKQ\AppData\Local\Temp\cccAG2jo.s 			page 18


  86              		.loc 1 870 5 is_stmt 1 view .LVU20
 870:Drivers/STM32F1xx_HAL_Driver/Src/stm32f1xx_hal_dma.c **** 
  87              		.loc 1 870 9 is_stmt 0 view .LVU21
  88 0022 0368     		ldr	r3, [r0]
 870:Drivers/STM32F1xx_HAL_Driver/Src/stm32f1xx_hal_dma.c **** 
  89              		.loc 1 870 26 view .LVU22
  90 0024 9A60     		str	r2, [r3, #8]
  91              	.LVL4:
 873:Drivers/STM32F1xx_HAL_Driver/Src/stm32f1xx_hal_dma.c ****   }
  92              		.loc 1 873 5 is_stmt 1 view .LVU23
 873:Drivers/STM32F1xx_HAL_Driver/Src/stm32f1xx_hal_dma.c ****   }
  93              		.loc 1 873 9 is_stmt 0 view .LVU24
  94 0026 0368     		ldr	r3, [r0]
 873:Drivers/STM32F1xx_HAL_Driver/Src/stm32f1xx_hal_dma.c ****   }
  95              		.loc 1 873 26 view .LVU25
  96 0028 D960     		str	r1, [r3, #12]
  97 002a F8E7     		b	.L1
  98              		.cfi_endproc
  99              	.LFE77:
 101              		.section	.text.HAL_DMA_Init,"ax",%progbits
 102              		.align	1
 103              		.global	HAL_DMA_Init
 104              		.syntax unified
 105              		.thumb
 106              		.thumb_func
 107              		.fpu softvfp
 109              	HAL_DMA_Init:
 110              	.LVL5:
 111              	.LFB65:
 144:Drivers/STM32F1xx_HAL_Driver/Src/stm32f1xx_hal_dma.c ****   uint32_t tmp = 0U;
 112              		.loc 1 144 1 is_stmt 1 view -0
 113              		.cfi_startproc
 114              		@ args = 0, pretend = 0, frame = 0
 115              		@ frame_needed = 0, uses_anonymous_args = 0
 116              		@ link register save eliminated.
 145:Drivers/STM32F1xx_HAL_Driver/Src/stm32f1xx_hal_dma.c **** 
 117              		.loc 1 145 3 view .LVU27
 148:Drivers/STM32F1xx_HAL_Driver/Src/stm32f1xx_hal_dma.c ****   {
 118              		.loc 1 148 3 view .LVU28
 148:Drivers/STM32F1xx_HAL_Driver/Src/stm32f1xx_hal_dma.c ****   {
 119              		.loc 1 148 5 is_stmt 0 view .LVU29
 120 0000 0028     		cmp	r0, #0
 121 0002 3AD0     		beq	.L10
 144:Drivers/STM32F1xx_HAL_Driver/Src/stm32f1xx_hal_dma.c ****   uint32_t tmp = 0U;
 122              		.loc 1 144 1 view .LVU30
 123 0004 10B4     		push	{r4}
 124              	.LCFI3:
 125              		.cfi_def_cfa_offset 4
 126              		.cfi_offset 4, -4
 127 0006 0246     		mov	r2, r0
 154:Drivers/STM32F1xx_HAL_Driver/Src/stm32f1xx_hal_dma.c ****   assert_param(IS_DMA_DIRECTION(hdma->Init.Direction));
 128              		.loc 1 154 3 is_stmt 1 view .LVU31
 155:Drivers/STM32F1xx_HAL_Driver/Src/stm32f1xx_hal_dma.c ****   assert_param(IS_DMA_PERIPHERAL_INC_STATE(hdma->Init.PeriphInc));
 129              		.loc 1 155 3 view .LVU32
 156:Drivers/STM32F1xx_HAL_Driver/Src/stm32f1xx_hal_dma.c ****   assert_param(IS_DMA_MEMORY_INC_STATE(hdma->Init.MemInc));
 130              		.loc 1 156 3 view .LVU33
 157:Drivers/STM32F1xx_HAL_Driver/Src/stm32f1xx_hal_dma.c ****   assert_param(IS_DMA_PERIPHERAL_DATA_SIZE(hdma->Init.PeriphDataAlignment));
ARM GAS  C:\Users\GKQ\AppData\Local\Temp\cccAG2jo.s 			page 19


 131              		.loc 1 157 3 view .LVU34
 158:Drivers/STM32F1xx_HAL_Driver/Src/stm32f1xx_hal_dma.c ****   assert_param(IS_DMA_MEMORY_DATA_SIZE(hdma->Init.MemDataAlignment));
 132              		.loc 1 158 3 view .LVU35
 159:Drivers/STM32F1xx_HAL_Driver/Src/stm32f1xx_hal_dma.c ****   assert_param(IS_DMA_MODE(hdma->Init.Mode));
 133              		.loc 1 159 3 view .LVU36
 160:Drivers/STM32F1xx_HAL_Driver/Src/stm32f1xx_hal_dma.c ****   assert_param(IS_DMA_PRIORITY(hdma->Init.Priority));
 134              		.loc 1 160 3 view .LVU37
 161:Drivers/STM32F1xx_HAL_Driver/Src/stm32f1xx_hal_dma.c **** 
 135              		.loc 1 161 3 view .LVU38
 165:Drivers/STM32F1xx_HAL_Driver/Src/stm32f1xx_hal_dma.c ****   {
 136              		.loc 1 165 3 view .LVU39
 165:Drivers/STM32F1xx_HAL_Driver/Src/stm32f1xx_hal_dma.c ****   {
 137              		.loc 1 165 22 is_stmt 0 view .LVU40
 138 0008 0068     		ldr	r0, [r0]
 139              	.LVL6:
 165:Drivers/STM32F1xx_HAL_Driver/Src/stm32f1xx_hal_dma.c ****   {
 140              		.loc 1 165 6 view .LVU41
 141 000a 1D4B     		ldr	r3, .L15
 142 000c 9842     		cmp	r0, r3
 143 000e 29D8     		bhi	.L8
 168:Drivers/STM32F1xx_HAL_Driver/Src/stm32f1xx_hal_dma.c ****     hdma->DmaBaseAddress = DMA1;
 144              		.loc 1 168 5 is_stmt 1 view .LVU42
 168:Drivers/STM32F1xx_HAL_Driver/Src/stm32f1xx_hal_dma.c ****     hdma->DmaBaseAddress = DMA1;
 145              		.loc 1 168 53 is_stmt 0 view .LVU43
 146 0010 1C4B     		ldr	r3, .L15+4
 147 0012 0344     		add	r3, r3, r0
 168:Drivers/STM32F1xx_HAL_Driver/Src/stm32f1xx_hal_dma.c ****     hdma->DmaBaseAddress = DMA1;
 148              		.loc 1 168 80 view .LVU44
 149 0014 1C49     		ldr	r1, .L15+8
 150 0016 A1FB0313 		umull	r1, r3, r1, r3
 151 001a 1B09     		lsrs	r3, r3, #4
 168:Drivers/STM32F1xx_HAL_Driver/Src/stm32f1xx_hal_dma.c ****     hdma->DmaBaseAddress = DMA1;
 152              		.loc 1 168 135 view .LVU45
 153 001c 9B00     		lsls	r3, r3, #2
 168:Drivers/STM32F1xx_HAL_Driver/Src/stm32f1xx_hal_dma.c ****     hdma->DmaBaseAddress = DMA1;
 154              		.loc 1 168 24 view .LVU46
 155 001e 1364     		str	r3, [r2, #64]
 169:Drivers/STM32F1xx_HAL_Driver/Src/stm32f1xx_hal_dma.c ****   }
 156              		.loc 1 169 5 is_stmt 1 view .LVU47
 169:Drivers/STM32F1xx_HAL_Driver/Src/stm32f1xx_hal_dma.c ****   }
 157              		.loc 1 169 26 is_stmt 0 view .LVU48
 158 0020 1A4B     		ldr	r3, .L15+12
 159 0022 D363     		str	r3, [r2, #60]
 160              	.L9:
 184:Drivers/STM32F1xx_HAL_Driver/Src/stm32f1xx_hal_dma.c **** 
 161              		.loc 1 184 3 is_stmt 1 view .LVU49
 184:Drivers/STM32F1xx_HAL_Driver/Src/stm32f1xx_hal_dma.c **** 
 162              		.loc 1 184 15 is_stmt 0 view .LVU50
 163 0024 0223     		movs	r3, #2
 164 0026 82F82130 		strb	r3, [r2, #33]
 187:Drivers/STM32F1xx_HAL_Driver/Src/stm32f1xx_hal_dma.c **** 
 165              		.loc 1 187 3 is_stmt 1 view .LVU51
 187:Drivers/STM32F1xx_HAL_Driver/Src/stm32f1xx_hal_dma.c **** 
 166              		.loc 1 187 7 is_stmt 0 view .LVU52
 167 002a 0168     		ldr	r1, [r0]
 168              	.LVL7:
 190:Drivers/STM32F1xx_HAL_Driver/Src/stm32f1xx_hal_dma.c ****                       DMA_CCR_MINC  | DMA_CCR_PINC   | DMA_CCR_CIRC   | \
ARM GAS  C:\Users\GKQ\AppData\Local\Temp\cccAG2jo.s 			page 20


 169              		.loc 1 190 3 is_stmt 1 view .LVU53
 190:Drivers/STM32F1xx_HAL_Driver/Src/stm32f1xx_hal_dma.c ****                       DMA_CCR_MINC  | DMA_CCR_PINC   | DMA_CCR_CIRC   | \
 170              		.loc 1 190 7 is_stmt 0 view .LVU54
 171 002c 21F47F51 		bic	r1, r1, #16320
 172              	.LVL8:
 190:Drivers/STM32F1xx_HAL_Driver/Src/stm32f1xx_hal_dma.c ****                       DMA_CCR_MINC  | DMA_CCR_PINC   | DMA_CCR_CIRC   | \
 173              		.loc 1 190 7 view .LVU55
 174 0030 21F03001 		bic	r1, r1, #48
 175              	.LVL9:
 195:Drivers/STM32F1xx_HAL_Driver/Src/stm32f1xx_hal_dma.c ****           hdma->Init.PeriphInc           | hdma->Init.MemInc           |
 176              		.loc 1 195 3 is_stmt 1 view .LVU56
 195:Drivers/STM32F1xx_HAL_Driver/Src/stm32f1xx_hal_dma.c ****           hdma->Init.PeriphInc           | hdma->Init.MemInc           |
 177              		.loc 1 195 21 is_stmt 0 view .LVU57
 178 0034 5368     		ldr	r3, [r2, #4]
 196:Drivers/STM32F1xx_HAL_Driver/Src/stm32f1xx_hal_dma.c ****           hdma->Init.PeriphDataAlignment | hdma->Init.MemDataAlignment |
 179              		.loc 1 196 21 view .LVU58
 180 0036 9468     		ldr	r4, [r2, #8]
 195:Drivers/STM32F1xx_HAL_Driver/Src/stm32f1xx_hal_dma.c ****           hdma->Init.PeriphInc           | hdma->Init.MemInc           |
 181              		.loc 1 195 39 view .LVU59
 182 0038 2343     		orrs	r3, r3, r4
 196:Drivers/STM32F1xx_HAL_Driver/Src/stm32f1xx_hal_dma.c ****           hdma->Init.PeriphDataAlignment | hdma->Init.MemDataAlignment |
 183              		.loc 1 196 54 view .LVU60
 184 003a D468     		ldr	r4, [r2, #12]
 196:Drivers/STM32F1xx_HAL_Driver/Src/stm32f1xx_hal_dma.c ****           hdma->Init.PeriphDataAlignment | hdma->Init.MemDataAlignment |
 185              		.loc 1 196 42 view .LVU61
 186 003c 2343     		orrs	r3, r3, r4
 197:Drivers/STM32F1xx_HAL_Driver/Src/stm32f1xx_hal_dma.c ****           hdma->Init.Mode                | hdma->Init.Priority;
 187              		.loc 1 197 21 view .LVU62
 188 003e 1469     		ldr	r4, [r2, #16]
 196:Drivers/STM32F1xx_HAL_Driver/Src/stm32f1xx_hal_dma.c ****           hdma->Init.PeriphDataAlignment | hdma->Init.MemDataAlignment |
 189              		.loc 1 196 72 view .LVU63
 190 0040 2343     		orrs	r3, r3, r4
 197:Drivers/STM32F1xx_HAL_Driver/Src/stm32f1xx_hal_dma.c ****           hdma->Init.Mode                | hdma->Init.Priority;
 191              		.loc 1 197 54 view .LVU64
 192 0042 5469     		ldr	r4, [r2, #20]
 197:Drivers/STM32F1xx_HAL_Driver/Src/stm32f1xx_hal_dma.c ****           hdma->Init.Mode                | hdma->Init.Priority;
 193              		.loc 1 197 42 view .LVU65
 194 0044 2343     		orrs	r3, r3, r4
 198:Drivers/STM32F1xx_HAL_Driver/Src/stm32f1xx_hal_dma.c **** 
 195              		.loc 1 198 21 view .LVU66
 196 0046 9469     		ldr	r4, [r2, #24]
 197:Drivers/STM32F1xx_HAL_Driver/Src/stm32f1xx_hal_dma.c ****           hdma->Init.Mode                | hdma->Init.Priority;
 197              		.loc 1 197 72 view .LVU67
 198 0048 2343     		orrs	r3, r3, r4
 198:Drivers/STM32F1xx_HAL_Driver/Src/stm32f1xx_hal_dma.c **** 
 199              		.loc 1 198 54 view .LVU68
 200 004a D469     		ldr	r4, [r2, #28]
 198:Drivers/STM32F1xx_HAL_Driver/Src/stm32f1xx_hal_dma.c **** 
 201              		.loc 1 198 42 view .LVU69
 202 004c 2343     		orrs	r3, r3, r4
 195:Drivers/STM32F1xx_HAL_Driver/Src/stm32f1xx_hal_dma.c ****           hdma->Init.PeriphInc           | hdma->Init.MemInc           |
 203              		.loc 1 195 7 view .LVU70
 204 004e 0B43     		orrs	r3, r3, r1
 205              	.LVL10:
 201:Drivers/STM32F1xx_HAL_Driver/Src/stm32f1xx_hal_dma.c **** 
 206              		.loc 1 201 3 is_stmt 1 view .LVU71
 201:Drivers/STM32F1xx_HAL_Driver/Src/stm32f1xx_hal_dma.c **** 
ARM GAS  C:\Users\GKQ\AppData\Local\Temp\cccAG2jo.s 			page 21


 207              		.loc 1 201 23 is_stmt 0 view .LVU72
 208 0050 0360     		str	r3, [r0]
 204:Drivers/STM32F1xx_HAL_Driver/Src/stm32f1xx_hal_dma.c **** 
 209              		.loc 1 204 3 is_stmt 1 view .LVU73
 204:Drivers/STM32F1xx_HAL_Driver/Src/stm32f1xx_hal_dma.c **** 
 210              		.loc 1 204 19 is_stmt 0 view .LVU74
 211 0052 0020     		movs	r0, #0
 212 0054 9063     		str	r0, [r2, #56]
 207:Drivers/STM32F1xx_HAL_Driver/Src/stm32f1xx_hal_dma.c ****   /* Allocate lock resource and initialize it */
 213              		.loc 1 207 3 is_stmt 1 view .LVU75
 207:Drivers/STM32F1xx_HAL_Driver/Src/stm32f1xx_hal_dma.c ****   /* Allocate lock resource and initialize it */
 214              		.loc 1 207 15 is_stmt 0 view .LVU76
 215 0056 0123     		movs	r3, #1
 216              	.LVL11:
 207:Drivers/STM32F1xx_HAL_Driver/Src/stm32f1xx_hal_dma.c ****   /* Allocate lock resource and initialize it */
 217              		.loc 1 207 15 view .LVU77
 218 0058 82F82130 		strb	r3, [r2, #33]
 209:Drivers/STM32F1xx_HAL_Driver/Src/stm32f1xx_hal_dma.c **** 
 219              		.loc 1 209 3 is_stmt 1 view .LVU78
 209:Drivers/STM32F1xx_HAL_Driver/Src/stm32f1xx_hal_dma.c **** 
 220              		.loc 1 209 14 is_stmt 0 view .LVU79
 221 005c 82F82000 		strb	r0, [r2, #32]
 211:Drivers/STM32F1xx_HAL_Driver/Src/stm32f1xx_hal_dma.c **** }
 222              		.loc 1 211 3 is_stmt 1 view .LVU80
 212:Drivers/STM32F1xx_HAL_Driver/Src/stm32f1xx_hal_dma.c **** 
 223              		.loc 1 212 1 is_stmt 0 view .LVU81
 224 0060 10BC     		pop	{r4}
 225              	.LCFI4:
 226              		.cfi_remember_state
 227              		.cfi_restore 4
 228              		.cfi_def_cfa_offset 0
 229 0062 7047     		bx	lr
 230              	.LVL12:
 231              	.L8:
 232              	.LCFI5:
 233              		.cfi_restore_state
 174:Drivers/STM32F1xx_HAL_Driver/Src/stm32f1xx_hal_dma.c ****     hdma->DmaBaseAddress = DMA2;
 234              		.loc 1 174 5 is_stmt 1 view .LVU82
 174:Drivers/STM32F1xx_HAL_Driver/Src/stm32f1xx_hal_dma.c ****     hdma->DmaBaseAddress = DMA2;
 235              		.loc 1 174 53 is_stmt 0 view .LVU83
 236 0064 0A4B     		ldr	r3, .L15+16
 237 0066 0344     		add	r3, r3, r0
 174:Drivers/STM32F1xx_HAL_Driver/Src/stm32f1xx_hal_dma.c ****     hdma->DmaBaseAddress = DMA2;
 238              		.loc 1 174 80 view .LVU84
 239 0068 0749     		ldr	r1, .L15+8
 240 006a A1FB0313 		umull	r1, r3, r1, r3
 241 006e 1B09     		lsrs	r3, r3, #4
 174:Drivers/STM32F1xx_HAL_Driver/Src/stm32f1xx_hal_dma.c ****     hdma->DmaBaseAddress = DMA2;
 242              		.loc 1 174 135 view .LVU85
 243 0070 9B00     		lsls	r3, r3, #2
 174:Drivers/STM32F1xx_HAL_Driver/Src/stm32f1xx_hal_dma.c ****     hdma->DmaBaseAddress = DMA2;
 244              		.loc 1 174 24 view .LVU86
 245 0072 1364     		str	r3, [r2, #64]
 175:Drivers/STM32F1xx_HAL_Driver/Src/stm32f1xx_hal_dma.c ****   }
 246              		.loc 1 175 5 is_stmt 1 view .LVU87
 175:Drivers/STM32F1xx_HAL_Driver/Src/stm32f1xx_hal_dma.c ****   }
 247              		.loc 1 175 26 is_stmt 0 view .LVU88
ARM GAS  C:\Users\GKQ\AppData\Local\Temp\cccAG2jo.s 			page 22


 248 0074 074B     		ldr	r3, .L15+20
 249 0076 D363     		str	r3, [r2, #60]
 250 0078 D4E7     		b	.L9
 251              	.LVL13:
 252              	.L10:
 253              	.LCFI6:
 254              		.cfi_def_cfa_offset 0
 255              		.cfi_restore 4
 150:Drivers/STM32F1xx_HAL_Driver/Src/stm32f1xx_hal_dma.c ****   }
 256              		.loc 1 150 12 view .LVU89
 257 007a 0120     		movs	r0, #1
 258              	.LVL14:
 212:Drivers/STM32F1xx_HAL_Driver/Src/stm32f1xx_hal_dma.c **** 
 259              		.loc 1 212 1 view .LVU90
 260 007c 7047     		bx	lr
 261              	.L16:
 262 007e 00BF     		.align	2
 263              	.L15:
 264 0080 07040240 		.word	1073873927
 265 0084 F8FFFDBF 		.word	-1073872904
 266 0088 CDCCCCCC 		.word	-858993459
 267 008c 00000240 		.word	1073872896
 268 0090 F8FBFDBF 		.word	-1073873928
 269 0094 00040240 		.word	1073873920
 270              		.cfi_endproc
 271              	.LFE65:
 273              		.section	.text.HAL_DMA_DeInit,"ax",%progbits
 274              		.align	1
 275              		.global	HAL_DMA_DeInit
 276              		.syntax unified
 277              		.thumb
 278              		.thumb_func
 279              		.fpu softvfp
 281              	HAL_DMA_DeInit:
 282              	.LVL15:
 283              	.LFB66:
 221:Drivers/STM32F1xx_HAL_Driver/Src/stm32f1xx_hal_dma.c ****   /* Check the DMA handle allocation */
 284              		.loc 1 221 1 is_stmt 1 view -0
 285              		.cfi_startproc
 286              		@ args = 0, pretend = 0, frame = 0
 287              		@ frame_needed = 0, uses_anonymous_args = 0
 288              		@ link register save eliminated.
 223:Drivers/STM32F1xx_HAL_Driver/Src/stm32f1xx_hal_dma.c ****   {
 289              		.loc 1 223 3 view .LVU92
 223:Drivers/STM32F1xx_HAL_Driver/Src/stm32f1xx_hal_dma.c ****   {
 290              		.loc 1 223 5 is_stmt 0 view .LVU93
 291 0000 0346     		mov	r3, r0
 292 0002 0028     		cmp	r0, #0
 293 0004 36D0     		beq	.L21
 229:Drivers/STM32F1xx_HAL_Driver/Src/stm32f1xx_hal_dma.c **** 
 294              		.loc 1 229 3 is_stmt 1 view .LVU94
 232:Drivers/STM32F1xx_HAL_Driver/Src/stm32f1xx_hal_dma.c **** 
 295              		.loc 1 232 3 view .LVU95
 296 0006 0168     		ldr	r1, [r0]
 297 0008 0A68     		ldr	r2, [r1]
 298 000a 22F00102 		bic	r2, r2, #1
 299 000e 0A60     		str	r2, [r1]
ARM GAS  C:\Users\GKQ\AppData\Local\Temp\cccAG2jo.s 			page 23


 235:Drivers/STM32F1xx_HAL_Driver/Src/stm32f1xx_hal_dma.c **** 
 300              		.loc 1 235 3 view .LVU96
 235:Drivers/STM32F1xx_HAL_Driver/Src/stm32f1xx_hal_dma.c **** 
 301              		.loc 1 235 7 is_stmt 0 view .LVU97
 302 0010 0168     		ldr	r1, [r0]
 235:Drivers/STM32F1xx_HAL_Driver/Src/stm32f1xx_hal_dma.c **** 
 303              		.loc 1 235 24 view .LVU98
 304 0012 0022     		movs	r2, #0
 305 0014 0A60     		str	r2, [r1]
 238:Drivers/STM32F1xx_HAL_Driver/Src/stm32f1xx_hal_dma.c **** 
 306              		.loc 1 238 3 is_stmt 1 view .LVU99
 238:Drivers/STM32F1xx_HAL_Driver/Src/stm32f1xx_hal_dma.c **** 
 307              		.loc 1 238 7 is_stmt 0 view .LVU100
 308 0016 0168     		ldr	r1, [r0]
 238:Drivers/STM32F1xx_HAL_Driver/Src/stm32f1xx_hal_dma.c **** 
 309              		.loc 1 238 25 view .LVU101
 310 0018 4A60     		str	r2, [r1, #4]
 241:Drivers/STM32F1xx_HAL_Driver/Src/stm32f1xx_hal_dma.c **** 
 311              		.loc 1 241 3 is_stmt 1 view .LVU102
 241:Drivers/STM32F1xx_HAL_Driver/Src/stm32f1xx_hal_dma.c **** 
 312              		.loc 1 241 7 is_stmt 0 view .LVU103
 313 001a 0168     		ldr	r1, [r0]
 241:Drivers/STM32F1xx_HAL_Driver/Src/stm32f1xx_hal_dma.c **** 
 314              		.loc 1 241 25 view .LVU104
 315 001c 8A60     		str	r2, [r1, #8]
 244:Drivers/STM32F1xx_HAL_Driver/Src/stm32f1xx_hal_dma.c **** 
 316              		.loc 1 244 3 is_stmt 1 view .LVU105
 244:Drivers/STM32F1xx_HAL_Driver/Src/stm32f1xx_hal_dma.c **** 
 317              		.loc 1 244 7 is_stmt 0 view .LVU106
 318 001e 0168     		ldr	r1, [r0]
 244:Drivers/STM32F1xx_HAL_Driver/Src/stm32f1xx_hal_dma.c **** 
 319              		.loc 1 244 24 view .LVU107
 320 0020 CA60     		str	r2, [r1, #12]
 248:Drivers/STM32F1xx_HAL_Driver/Src/stm32f1xx_hal_dma.c ****   {
 321              		.loc 1 248 3 is_stmt 1 view .LVU108
 248:Drivers/STM32F1xx_HAL_Driver/Src/stm32f1xx_hal_dma.c ****   {
 322              		.loc 1 248 22 is_stmt 0 view .LVU109
 323 0022 0168     		ldr	r1, [r0]
 248:Drivers/STM32F1xx_HAL_Driver/Src/stm32f1xx_hal_dma.c ****   {
 324              		.loc 1 248 6 view .LVU110
 325 0024 144A     		ldr	r2, .L22
 326 0026 9142     		cmp	r1, r2
 327 0028 19D8     		bhi	.L19
 251:Drivers/STM32F1xx_HAL_Driver/Src/stm32f1xx_hal_dma.c ****     hdma->DmaBaseAddress = DMA1;
 328              		.loc 1 251 5 is_stmt 1 view .LVU111
 251:Drivers/STM32F1xx_HAL_Driver/Src/stm32f1xx_hal_dma.c ****     hdma->DmaBaseAddress = DMA1;
 329              		.loc 1 251 53 is_stmt 0 view .LVU112
 330 002a 144A     		ldr	r2, .L22+4
 331 002c 0A44     		add	r2, r2, r1
 251:Drivers/STM32F1xx_HAL_Driver/Src/stm32f1xx_hal_dma.c ****     hdma->DmaBaseAddress = DMA1;
 332              		.loc 1 251 80 view .LVU113
 333 002e 1449     		ldr	r1, .L22+8
 334 0030 A1FB0212 		umull	r1, r2, r1, r2
 335 0034 1209     		lsrs	r2, r2, #4
 251:Drivers/STM32F1xx_HAL_Driver/Src/stm32f1xx_hal_dma.c ****     hdma->DmaBaseAddress = DMA1;
 336              		.loc 1 251 135 view .LVU114
 337 0036 9200     		lsls	r2, r2, #2
ARM GAS  C:\Users\GKQ\AppData\Local\Temp\cccAG2jo.s 			page 24


 251:Drivers/STM32F1xx_HAL_Driver/Src/stm32f1xx_hal_dma.c ****     hdma->DmaBaseAddress = DMA1;
 338              		.loc 1 251 24 view .LVU115
 339 0038 0264     		str	r2, [r0, #64]
 252:Drivers/STM32F1xx_HAL_Driver/Src/stm32f1xx_hal_dma.c ****   }
 340              		.loc 1 252 5 is_stmt 1 view .LVU116
 252:Drivers/STM32F1xx_HAL_Driver/Src/stm32f1xx_hal_dma.c ****   }
 341              		.loc 1 252 26 is_stmt 0 view .LVU117
 342 003a 124A     		ldr	r2, .L22+12
 343 003c C263     		str	r2, [r0, #60]
 344              	.L20:
 267:Drivers/STM32F1xx_HAL_Driver/Src/stm32f1xx_hal_dma.c **** 
 345              		.loc 1 267 3 is_stmt 1 view .LVU118
 267:Drivers/STM32F1xx_HAL_Driver/Src/stm32f1xx_hal_dma.c **** 
 346              		.loc 1 267 54 is_stmt 0 view .LVU119
 347 003e 186C     		ldr	r0, [r3, #64]
 348              	.LVL16:
 267:Drivers/STM32F1xx_HAL_Driver/Src/stm32f1xx_hal_dma.c **** 
 349              		.loc 1 267 7 view .LVU120
 350 0040 D96B     		ldr	r1, [r3, #60]
 267:Drivers/STM32F1xx_HAL_Driver/Src/stm32f1xx_hal_dma.c **** 
 351              		.loc 1 267 46 view .LVU121
 352 0042 0122     		movs	r2, #1
 353 0044 8240     		lsls	r2, r2, r0
 267:Drivers/STM32F1xx_HAL_Driver/Src/stm32f1xx_hal_dma.c **** 
 354              		.loc 1 267 30 view .LVU122
 355 0046 4A60     		str	r2, [r1, #4]
 270:Drivers/STM32F1xx_HAL_Driver/Src/stm32f1xx_hal_dma.c ****   hdma->XferHalfCpltCallback = NULL;
 356              		.loc 1 270 3 is_stmt 1 view .LVU123
 270:Drivers/STM32F1xx_HAL_Driver/Src/stm32f1xx_hal_dma.c ****   hdma->XferHalfCpltCallback = NULL;
 357              		.loc 1 270 26 is_stmt 0 view .LVU124
 358 0048 0020     		movs	r0, #0
 359 004a 9862     		str	r0, [r3, #40]
 271:Drivers/STM32F1xx_HAL_Driver/Src/stm32f1xx_hal_dma.c ****   hdma->XferErrorCallback = NULL;
 360              		.loc 1 271 3 is_stmt 1 view .LVU125
 271:Drivers/STM32F1xx_HAL_Driver/Src/stm32f1xx_hal_dma.c ****   hdma->XferErrorCallback = NULL;
 361              		.loc 1 271 30 is_stmt 0 view .LVU126
 362 004c D862     		str	r0, [r3, #44]
 272:Drivers/STM32F1xx_HAL_Driver/Src/stm32f1xx_hal_dma.c ****   hdma->XferAbortCallback = NULL;
 363              		.loc 1 272 3 is_stmt 1 view .LVU127
 272:Drivers/STM32F1xx_HAL_Driver/Src/stm32f1xx_hal_dma.c ****   hdma->XferAbortCallback = NULL;
 364              		.loc 1 272 27 is_stmt 0 view .LVU128
 365 004e 1863     		str	r0, [r3, #48]
 273:Drivers/STM32F1xx_HAL_Driver/Src/stm32f1xx_hal_dma.c **** 
 366              		.loc 1 273 3 is_stmt 1 view .LVU129
 273:Drivers/STM32F1xx_HAL_Driver/Src/stm32f1xx_hal_dma.c **** 
 367              		.loc 1 273 27 is_stmt 0 view .LVU130
 368 0050 5863     		str	r0, [r3, #52]
 276:Drivers/STM32F1xx_HAL_Driver/Src/stm32f1xx_hal_dma.c **** 
 369              		.loc 1 276 3 is_stmt 1 view .LVU131
 276:Drivers/STM32F1xx_HAL_Driver/Src/stm32f1xx_hal_dma.c **** 
 370              		.loc 1 276 19 is_stmt 0 view .LVU132
 371 0052 9863     		str	r0, [r3, #56]
 279:Drivers/STM32F1xx_HAL_Driver/Src/stm32f1xx_hal_dma.c **** 
 372              		.loc 1 279 3 is_stmt 1 view .LVU133
 279:Drivers/STM32F1xx_HAL_Driver/Src/stm32f1xx_hal_dma.c **** 
 373              		.loc 1 279 15 is_stmt 0 view .LVU134
 374 0054 83F82100 		strb	r0, [r3, #33]
ARM GAS  C:\Users\GKQ\AppData\Local\Temp\cccAG2jo.s 			page 25


 282:Drivers/STM32F1xx_HAL_Driver/Src/stm32f1xx_hal_dma.c **** 
 375              		.loc 1 282 3 is_stmt 1 view .LVU135
 282:Drivers/STM32F1xx_HAL_Driver/Src/stm32f1xx_hal_dma.c **** 
 376              		.loc 1 282 3 view .LVU136
 377 0058 83F82000 		strb	r0, [r3, #32]
 282:Drivers/STM32F1xx_HAL_Driver/Src/stm32f1xx_hal_dma.c **** 
 378              		.loc 1 282 3 view .LVU137
 284:Drivers/STM32F1xx_HAL_Driver/Src/stm32f1xx_hal_dma.c **** }
 379              		.loc 1 284 3 view .LVU138
 284:Drivers/STM32F1xx_HAL_Driver/Src/stm32f1xx_hal_dma.c **** }
 380              		.loc 1 284 10 is_stmt 0 view .LVU139
 381 005c 7047     		bx	lr
 382              	.LVL17:
 383              	.L19:
 257:Drivers/STM32F1xx_HAL_Driver/Src/stm32f1xx_hal_dma.c ****     hdma->DmaBaseAddress = DMA2;
 384              		.loc 1 257 5 is_stmt 1 view .LVU140
 257:Drivers/STM32F1xx_HAL_Driver/Src/stm32f1xx_hal_dma.c ****     hdma->DmaBaseAddress = DMA2;
 385              		.loc 1 257 53 is_stmt 0 view .LVU141
 386 005e 0A4A     		ldr	r2, .L22+16
 387 0060 0A44     		add	r2, r2, r1
 257:Drivers/STM32F1xx_HAL_Driver/Src/stm32f1xx_hal_dma.c ****     hdma->DmaBaseAddress = DMA2;
 388              		.loc 1 257 80 view .LVU142
 389 0062 0749     		ldr	r1, .L22+8
 390 0064 A1FB0212 		umull	r1, r2, r1, r2
 391 0068 1209     		lsrs	r2, r2, #4
 257:Drivers/STM32F1xx_HAL_Driver/Src/stm32f1xx_hal_dma.c ****     hdma->DmaBaseAddress = DMA2;
 392              		.loc 1 257 135 view .LVU143
 393 006a 9200     		lsls	r2, r2, #2
 257:Drivers/STM32F1xx_HAL_Driver/Src/stm32f1xx_hal_dma.c ****     hdma->DmaBaseAddress = DMA2;
 394              		.loc 1 257 24 view .LVU144
 395 006c 0264     		str	r2, [r0, #64]
 258:Drivers/STM32F1xx_HAL_Driver/Src/stm32f1xx_hal_dma.c ****   }
 396              		.loc 1 258 5 is_stmt 1 view .LVU145
 258:Drivers/STM32F1xx_HAL_Driver/Src/stm32f1xx_hal_dma.c ****   }
 397              		.loc 1 258 26 is_stmt 0 view .LVU146
 398 006e 074A     		ldr	r2, .L22+20
 399 0070 C263     		str	r2, [r0, #60]
 400 0072 E4E7     		b	.L20
 401              	.L21:
 225:Drivers/STM32F1xx_HAL_Driver/Src/stm32f1xx_hal_dma.c ****   }
 402              		.loc 1 225 12 view .LVU147
 403 0074 0120     		movs	r0, #1
 404              	.LVL18:
 285:Drivers/STM32F1xx_HAL_Driver/Src/stm32f1xx_hal_dma.c **** 
 405              		.loc 1 285 1 view .LVU148
 406 0076 7047     		bx	lr
 407              	.L23:
 408              		.align	2
 409              	.L22:
 410 0078 07040240 		.word	1073873927
 411 007c F8FFFDBF 		.word	-1073872904
 412 0080 CDCCCCCC 		.word	-858993459
 413 0084 00000240 		.word	1073872896
 414 0088 F8FBFDBF 		.word	-1073873928
 415 008c 00040240 		.word	1073873920
 416              		.cfi_endproc
 417              	.LFE66:
ARM GAS  C:\Users\GKQ\AppData\Local\Temp\cccAG2jo.s 			page 26


 419              		.section	.text.HAL_DMA_Start,"ax",%progbits
 420              		.align	1
 421              		.global	HAL_DMA_Start
 422              		.syntax unified
 423              		.thumb
 424              		.thumb_func
 425              		.fpu softvfp
 427              	HAL_DMA_Start:
 428              	.LVL19:
 429              	.LFB67:
 320:Drivers/STM32F1xx_HAL_Driver/Src/stm32f1xx_hal_dma.c ****   HAL_StatusTypeDef status = HAL_OK;
 430              		.loc 1 320 1 is_stmt 1 view -0
 431              		.cfi_startproc
 432              		@ args = 0, pretend = 0, frame = 0
 433              		@ frame_needed = 0, uses_anonymous_args = 0
 320:Drivers/STM32F1xx_HAL_Driver/Src/stm32f1xx_hal_dma.c ****   HAL_StatusTypeDef status = HAL_OK;
 434              		.loc 1 320 1 is_stmt 0 view .LVU150
 435 0000 70B5     		push	{r4, r5, r6, lr}
 436              	.LCFI7:
 437              		.cfi_def_cfa_offset 16
 438              		.cfi_offset 4, -16
 439              		.cfi_offset 5, -12
 440              		.cfi_offset 6, -8
 441              		.cfi_offset 14, -4
 442 0002 0446     		mov	r4, r0
 321:Drivers/STM32F1xx_HAL_Driver/Src/stm32f1xx_hal_dma.c **** 
 443              		.loc 1 321 3 is_stmt 1 view .LVU151
 444              	.LVL20:
 324:Drivers/STM32F1xx_HAL_Driver/Src/stm32f1xx_hal_dma.c **** 
 445              		.loc 1 324 3 view .LVU152
 327:Drivers/STM32F1xx_HAL_Driver/Src/stm32f1xx_hal_dma.c **** 
 446              		.loc 1 327 3 view .LVU153
 327:Drivers/STM32F1xx_HAL_Driver/Src/stm32f1xx_hal_dma.c **** 
 447              		.loc 1 327 3 view .LVU154
 448 0004 90F82000 		ldrb	r0, [r0, #32]	@ zero_extendqisi2
 449              	.LVL21:
 327:Drivers/STM32F1xx_HAL_Driver/Src/stm32f1xx_hal_dma.c **** 
 450              		.loc 1 327 3 is_stmt 0 view .LVU155
 451 0008 0128     		cmp	r0, #1
 452 000a 1FD0     		beq	.L27
 327:Drivers/STM32F1xx_HAL_Driver/Src/stm32f1xx_hal_dma.c **** 
 453              		.loc 1 327 3 is_stmt 1 discriminator 2 view .LVU156
 454 000c 0120     		movs	r0, #1
 455 000e 84F82000 		strb	r0, [r4, #32]
 327:Drivers/STM32F1xx_HAL_Driver/Src/stm32f1xx_hal_dma.c **** 
 456              		.loc 1 327 3 discriminator 2 view .LVU157
 329:Drivers/STM32F1xx_HAL_Driver/Src/stm32f1xx_hal_dma.c ****   {
 457              		.loc 1 329 3 discriminator 2 view .LVU158
 329:Drivers/STM32F1xx_HAL_Driver/Src/stm32f1xx_hal_dma.c ****   {
 458              		.loc 1 329 33 is_stmt 0 discriminator 2 view .LVU159
 459 0012 94F82100 		ldrb	r0, [r4, #33]	@ zero_extendqisi2
 329:Drivers/STM32F1xx_HAL_Driver/Src/stm32f1xx_hal_dma.c ****   {
 460              		.loc 1 329 5 discriminator 2 view .LVU160
 461 0016 0128     		cmp	r0, #1
 462 0018 04D0     		beq	.L29
 347:Drivers/STM32F1xx_HAL_Driver/Src/stm32f1xx_hal_dma.c ****    status = HAL_BUSY;
 463              		.loc 1 347 4 is_stmt 1 view .LVU161
ARM GAS  C:\Users\GKQ\AppData\Local\Temp\cccAG2jo.s 			page 27


 347:Drivers/STM32F1xx_HAL_Driver/Src/stm32f1xx_hal_dma.c ****    status = HAL_BUSY;
 464              		.loc 1 347 4 view .LVU162
 465 001a 0023     		movs	r3, #0
 466              	.LVL22:
 347:Drivers/STM32F1xx_HAL_Driver/Src/stm32f1xx_hal_dma.c ****    status = HAL_BUSY;
 467              		.loc 1 347 4 is_stmt 0 view .LVU163
 468 001c 84F82030 		strb	r3, [r4, #32]
 347:Drivers/STM32F1xx_HAL_Driver/Src/stm32f1xx_hal_dma.c ****    status = HAL_BUSY;
 469              		.loc 1 347 4 is_stmt 1 view .LVU164
 348:Drivers/STM32F1xx_HAL_Driver/Src/stm32f1xx_hal_dma.c ****   }  
 470              		.loc 1 348 4 view .LVU165
 471              	.LVL23:
 348:Drivers/STM32F1xx_HAL_Driver/Src/stm32f1xx_hal_dma.c ****   }  
 472              		.loc 1 348 11 is_stmt 0 view .LVU166
 473 0020 0220     		movs	r0, #2
 474              	.LVL24:
 475              	.L25:
 351:Drivers/STM32F1xx_HAL_Driver/Src/stm32f1xx_hal_dma.c **** 
 476              		.loc 1 351 1 view .LVU167
 477 0022 70BD     		pop	{r4, r5, r6, pc}
 478              	.LVL25:
 479              	.L29:
 332:Drivers/STM32F1xx_HAL_Driver/Src/stm32f1xx_hal_dma.c ****     hdma->ErrorCode = HAL_DMA_ERROR_NONE;
 480              		.loc 1 332 5 is_stmt 1 view .LVU168
 332:Drivers/STM32F1xx_HAL_Driver/Src/stm32f1xx_hal_dma.c ****     hdma->ErrorCode = HAL_DMA_ERROR_NONE;
 481              		.loc 1 332 17 is_stmt 0 view .LVU169
 482 0024 0220     		movs	r0, #2
 483 0026 84F82100 		strb	r0, [r4, #33]
 333:Drivers/STM32F1xx_HAL_Driver/Src/stm32f1xx_hal_dma.c ****             
 484              		.loc 1 333 5 is_stmt 1 view .LVU170
 333:Drivers/STM32F1xx_HAL_Driver/Src/stm32f1xx_hal_dma.c ****             
 485              		.loc 1 333 21 is_stmt 0 view .LVU171
 486 002a 0025     		movs	r5, #0
 487 002c A563     		str	r5, [r4, #56]
 336:Drivers/STM32F1xx_HAL_Driver/Src/stm32f1xx_hal_dma.c ****     
 488              		.loc 1 336 5 is_stmt 1 view .LVU172
 489 002e 2668     		ldr	r6, [r4]
 490 0030 3068     		ldr	r0, [r6]
 491 0032 20F00100 		bic	r0, r0, #1
 492 0036 3060     		str	r0, [r6]
 339:Drivers/STM32F1xx_HAL_Driver/Src/stm32f1xx_hal_dma.c ****     
 493              		.loc 1 339 5 view .LVU173
 494 0038 2046     		mov	r0, r4
 495 003a FFF7FEFF 		bl	DMA_SetConfig
 496              	.LVL26:
 342:Drivers/STM32F1xx_HAL_Driver/Src/stm32f1xx_hal_dma.c ****   }
 497              		.loc 1 342 5 view .LVU174
 498 003e 2268     		ldr	r2, [r4]
 499 0040 1368     		ldr	r3, [r2]
 500 0042 43F00103 		orr	r3, r3, #1
 501 0046 1360     		str	r3, [r2]
 321:Drivers/STM32F1xx_HAL_Driver/Src/stm32f1xx_hal_dma.c **** 
 502              		.loc 1 321 21 is_stmt 0 view .LVU175
 503 0048 2846     		mov	r0, r5
 504 004a EAE7     		b	.L25
 505              	.LVL27:
 506              	.L27:
ARM GAS  C:\Users\GKQ\AppData\Local\Temp\cccAG2jo.s 			page 28


 327:Drivers/STM32F1xx_HAL_Driver/Src/stm32f1xx_hal_dma.c **** 
 507              		.loc 1 327 3 view .LVU176
 508 004c 0220     		movs	r0, #2
 509 004e E8E7     		b	.L25
 510              		.cfi_endproc
 511              	.LFE67:
 513              		.section	.text.HAL_DMA_Start_IT,"ax",%progbits
 514              		.align	1
 515              		.global	HAL_DMA_Start_IT
 516              		.syntax unified
 517              		.thumb
 518              		.thumb_func
 519              		.fpu softvfp
 521              	HAL_DMA_Start_IT:
 522              	.LVL28:
 523              	.LFB68:
 363:Drivers/STM32F1xx_HAL_Driver/Src/stm32f1xx_hal_dma.c ****   HAL_StatusTypeDef status = HAL_OK;
 524              		.loc 1 363 1 is_stmt 1 view -0
 525              		.cfi_startproc
 526              		@ args = 0, pretend = 0, frame = 0
 527              		@ frame_needed = 0, uses_anonymous_args = 0
 363:Drivers/STM32F1xx_HAL_Driver/Src/stm32f1xx_hal_dma.c ****   HAL_StatusTypeDef status = HAL_OK;
 528              		.loc 1 363 1 is_stmt 0 view .LVU178
 529 0000 38B5     		push	{r3, r4, r5, lr}
 530              	.LCFI8:
 531              		.cfi_def_cfa_offset 16
 532              		.cfi_offset 3, -16
 533              		.cfi_offset 4, -12
 534              		.cfi_offset 5, -8
 535              		.cfi_offset 14, -4
 536 0002 0446     		mov	r4, r0
 364:Drivers/STM32F1xx_HAL_Driver/Src/stm32f1xx_hal_dma.c **** 
 537              		.loc 1 364 3 is_stmt 1 view .LVU179
 538              	.LVL29:
 367:Drivers/STM32F1xx_HAL_Driver/Src/stm32f1xx_hal_dma.c **** 
 539              		.loc 1 367 3 view .LVU180
 370:Drivers/STM32F1xx_HAL_Driver/Src/stm32f1xx_hal_dma.c ****   
 540              		.loc 1 370 3 view .LVU181
 370:Drivers/STM32F1xx_HAL_Driver/Src/stm32f1xx_hal_dma.c ****   
 541              		.loc 1 370 3 view .LVU182
 542 0004 90F82000 		ldrb	r0, [r0, #32]	@ zero_extendqisi2
 543              	.LVL30:
 370:Drivers/STM32F1xx_HAL_Driver/Src/stm32f1xx_hal_dma.c ****   
 544              		.loc 1 370 3 is_stmt 0 view .LVU183
 545 0008 0128     		cmp	r0, #1
 546 000a 31D0     		beq	.L35
 370:Drivers/STM32F1xx_HAL_Driver/Src/stm32f1xx_hal_dma.c ****   
 547              		.loc 1 370 3 is_stmt 1 discriminator 2 view .LVU184
 548 000c 0120     		movs	r0, #1
 549 000e 84F82000 		strb	r0, [r4, #32]
 370:Drivers/STM32F1xx_HAL_Driver/Src/stm32f1xx_hal_dma.c ****   
 550              		.loc 1 370 3 discriminator 2 view .LVU185
 372:Drivers/STM32F1xx_HAL_Driver/Src/stm32f1xx_hal_dma.c ****   {
 551              		.loc 1 372 3 discriminator 2 view .LVU186
 372:Drivers/STM32F1xx_HAL_Driver/Src/stm32f1xx_hal_dma.c ****   {
 552              		.loc 1 372 33 is_stmt 0 discriminator 2 view .LVU187
 553 0012 94F82100 		ldrb	r0, [r4, #33]	@ zero_extendqisi2
ARM GAS  C:\Users\GKQ\AppData\Local\Temp\cccAG2jo.s 			page 29


 372:Drivers/STM32F1xx_HAL_Driver/Src/stm32f1xx_hal_dma.c ****   {
 554              		.loc 1 372 5 discriminator 2 view .LVU188
 555 0016 0128     		cmp	r0, #1
 556 0018 04D0     		beq	.L37
 402:Drivers/STM32F1xx_HAL_Driver/Src/stm32f1xx_hal_dma.c **** 
 557              		.loc 1 402 5 is_stmt 1 view .LVU189
 402:Drivers/STM32F1xx_HAL_Driver/Src/stm32f1xx_hal_dma.c **** 
 558              		.loc 1 402 5 view .LVU190
 559 001a 0023     		movs	r3, #0
 560              	.LVL31:
 402:Drivers/STM32F1xx_HAL_Driver/Src/stm32f1xx_hal_dma.c **** 
 561              		.loc 1 402 5 is_stmt 0 view .LVU191
 562 001c 84F82030 		strb	r3, [r4, #32]
 402:Drivers/STM32F1xx_HAL_Driver/Src/stm32f1xx_hal_dma.c **** 
 563              		.loc 1 402 5 is_stmt 1 view .LVU192
 405:Drivers/STM32F1xx_HAL_Driver/Src/stm32f1xx_hal_dma.c ****   }    
 564              		.loc 1 405 5 view .LVU193
 565              	.LVL32:
 405:Drivers/STM32F1xx_HAL_Driver/Src/stm32f1xx_hal_dma.c ****   }    
 566              		.loc 1 405 12 is_stmt 0 view .LVU194
 567 0020 0220     		movs	r0, #2
 568              	.LVL33:
 569              	.L31:
 408:Drivers/STM32F1xx_HAL_Driver/Src/stm32f1xx_hal_dma.c **** 
 570              		.loc 1 408 1 view .LVU195
 571 0022 38BD     		pop	{r3, r4, r5, pc}
 572              	.LVL34:
 573              	.L37:
 375:Drivers/STM32F1xx_HAL_Driver/Src/stm32f1xx_hal_dma.c ****     hdma->ErrorCode = HAL_DMA_ERROR_NONE;
 574              		.loc 1 375 5 is_stmt 1 view .LVU196
 375:Drivers/STM32F1xx_HAL_Driver/Src/stm32f1xx_hal_dma.c ****     hdma->ErrorCode = HAL_DMA_ERROR_NONE;
 575              		.loc 1 375 17 is_stmt 0 view .LVU197
 576 0024 0220     		movs	r0, #2
 577 0026 84F82100 		strb	r0, [r4, #33]
 376:Drivers/STM32F1xx_HAL_Driver/Src/stm32f1xx_hal_dma.c ****     
 578              		.loc 1 376 5 is_stmt 1 view .LVU198
 376:Drivers/STM32F1xx_HAL_Driver/Src/stm32f1xx_hal_dma.c ****     
 579              		.loc 1 376 21 is_stmt 0 view .LVU199
 580 002a 0020     		movs	r0, #0
 581 002c A063     		str	r0, [r4, #56]
 379:Drivers/STM32F1xx_HAL_Driver/Src/stm32f1xx_hal_dma.c ****     
 582              		.loc 1 379 5 is_stmt 1 view .LVU200
 583 002e 2568     		ldr	r5, [r4]
 584 0030 2868     		ldr	r0, [r5]
 585 0032 20F00100 		bic	r0, r0, #1
 586 0036 2860     		str	r0, [r5]
 382:Drivers/STM32F1xx_HAL_Driver/Src/stm32f1xx_hal_dma.c ****     
 587              		.loc 1 382 5 view .LVU201
 588 0038 2046     		mov	r0, r4
 589 003a FFF7FEFF 		bl	DMA_SetConfig
 590              	.LVL35:
 386:Drivers/STM32F1xx_HAL_Driver/Src/stm32f1xx_hal_dma.c ****     {
 591              		.loc 1 386 5 view .LVU202
 386:Drivers/STM32F1xx_HAL_Driver/Src/stm32f1xx_hal_dma.c ****     {
 592              		.loc 1 386 20 is_stmt 0 view .LVU203
 593 003e E36A     		ldr	r3, [r4, #44]
 386:Drivers/STM32F1xx_HAL_Driver/Src/stm32f1xx_hal_dma.c ****     {
ARM GAS  C:\Users\GKQ\AppData\Local\Temp\cccAG2jo.s 			page 30


 594              		.loc 1 386 7 view .LVU204
 595 0040 5BB1     		cbz	r3, .L33
 389:Drivers/STM32F1xx_HAL_Driver/Src/stm32f1xx_hal_dma.c ****     }
 596              		.loc 1 389 7 is_stmt 1 view .LVU205
 597 0042 2268     		ldr	r2, [r4]
 598 0044 1368     		ldr	r3, [r2]
 599 0046 43F00E03 		orr	r3, r3, #14
 600 004a 1360     		str	r3, [r2]
 601              	.L34:
 397:Drivers/STM32F1xx_HAL_Driver/Src/stm32f1xx_hal_dma.c ****   }
 602              		.loc 1 397 5 view .LVU206
 603 004c 2268     		ldr	r2, [r4]
 604 004e 1368     		ldr	r3, [r2]
 605 0050 43F00103 		orr	r3, r3, #1
 606 0054 1360     		str	r3, [r2]
 364:Drivers/STM32F1xx_HAL_Driver/Src/stm32f1xx_hal_dma.c **** 
 607              		.loc 1 364 21 is_stmt 0 view .LVU207
 608 0056 0020     		movs	r0, #0
 609 0058 E3E7     		b	.L31
 610              	.L33:
 393:Drivers/STM32F1xx_HAL_Driver/Src/stm32f1xx_hal_dma.c ****       __HAL_DMA_ENABLE_IT(hdma, (DMA_IT_TC | DMA_IT_TE));
 611              		.loc 1 393 7 is_stmt 1 view .LVU208
 612 005a 2268     		ldr	r2, [r4]
 613 005c 1368     		ldr	r3, [r2]
 614 005e 23F00403 		bic	r3, r3, #4
 615 0062 1360     		str	r3, [r2]
 394:Drivers/STM32F1xx_HAL_Driver/Src/stm32f1xx_hal_dma.c ****     }
 616              		.loc 1 394 7 view .LVU209
 617 0064 2268     		ldr	r2, [r4]
 618 0066 1368     		ldr	r3, [r2]
 619 0068 43F00A03 		orr	r3, r3, #10
 620 006c 1360     		str	r3, [r2]
 621 006e EDE7     		b	.L34
 622              	.LVL36:
 623              	.L35:
 370:Drivers/STM32F1xx_HAL_Driver/Src/stm32f1xx_hal_dma.c ****   
 624              		.loc 1 370 3 is_stmt 0 view .LVU210
 625 0070 0220     		movs	r0, #2
 626 0072 D6E7     		b	.L31
 627              		.cfi_endproc
 628              	.LFE68:
 630              		.section	.text.HAL_DMA_Abort,"ax",%progbits
 631              		.align	1
 632              		.global	HAL_DMA_Abort
 633              		.syntax unified
 634              		.thumb
 635              		.thumb_func
 636              		.fpu softvfp
 638              	HAL_DMA_Abort:
 639              	.LVL37:
 640              	.LFB69:
 417:Drivers/STM32F1xx_HAL_Driver/Src/stm32f1xx_hal_dma.c ****   HAL_StatusTypeDef status = HAL_OK;
 641              		.loc 1 417 1 is_stmt 1 view -0
 642              		.cfi_startproc
 643              		@ args = 0, pretend = 0, frame = 0
 644              		@ frame_needed = 0, uses_anonymous_args = 0
 645              		@ link register save eliminated.
ARM GAS  C:\Users\GKQ\AppData\Local\Temp\cccAG2jo.s 			page 31


 418:Drivers/STM32F1xx_HAL_Driver/Src/stm32f1xx_hal_dma.c ****   
 646              		.loc 1 418 3 view .LVU212
 420:Drivers/STM32F1xx_HAL_Driver/Src/stm32f1xx_hal_dma.c ****   {
 647              		.loc 1 420 3 view .LVU213
 420:Drivers/STM32F1xx_HAL_Driver/Src/stm32f1xx_hal_dma.c ****   {
 648              		.loc 1 420 10 is_stmt 0 view .LVU214
 649 0000 90F82130 		ldrb	r3, [r0, #33]	@ zero_extendqisi2
 420:Drivers/STM32F1xx_HAL_Driver/Src/stm32f1xx_hal_dma.c ****   {
 650              		.loc 1 420 5 view .LVU215
 651 0004 022B     		cmp	r3, #2
 652 0006 06D0     		beq	.L39
 423:Drivers/STM32F1xx_HAL_Driver/Src/stm32f1xx_hal_dma.c ****     
 653              		.loc 1 423 5 is_stmt 1 view .LVU216
 423:Drivers/STM32F1xx_HAL_Driver/Src/stm32f1xx_hal_dma.c ****     
 654              		.loc 1 423 21 is_stmt 0 view .LVU217
 655 0008 0423     		movs	r3, #4
 656 000a 8363     		str	r3, [r0, #56]
 426:Drivers/STM32F1xx_HAL_Driver/Src/stm32f1xx_hal_dma.c ****     
 657              		.loc 1 426 5 is_stmt 1 view .LVU218
 426:Drivers/STM32F1xx_HAL_Driver/Src/stm32f1xx_hal_dma.c ****     
 658              		.loc 1 426 5 view .LVU219
 659 000c 0023     		movs	r3, #0
 660 000e 80F82030 		strb	r3, [r0, #32]
 426:Drivers/STM32F1xx_HAL_Driver/Src/stm32f1xx_hal_dma.c ****     
 661              		.loc 1 426 5 view .LVU220
 428:Drivers/STM32F1xx_HAL_Driver/Src/stm32f1xx_hal_dma.c ****   }
 662              		.loc 1 428 5 view .LVU221
 428:Drivers/STM32F1xx_HAL_Driver/Src/stm32f1xx_hal_dma.c ****   }
 663              		.loc 1 428 12 is_stmt 0 view .LVU222
 664 0012 0120     		movs	r0, #1
 665              	.LVL38:
 428:Drivers/STM32F1xx_HAL_Driver/Src/stm32f1xx_hal_dma.c ****   }
 666              		.loc 1 428 12 view .LVU223
 667 0014 7047     		bx	lr
 668              	.LVL39:
 669              	.L39:
 434:Drivers/STM32F1xx_HAL_Driver/Src/stm32f1xx_hal_dma.c ****       
 670              		.loc 1 434 5 is_stmt 1 view .LVU224
 671 0016 0268     		ldr	r2, [r0]
 672 0018 1368     		ldr	r3, [r2]
 673 001a 23F00E03 		bic	r3, r3, #14
 674 001e 1360     		str	r3, [r2]
 437:Drivers/STM32F1xx_HAL_Driver/Src/stm32f1xx_hal_dma.c ****       
 675              		.loc 1 437 5 view .LVU225
 676 0020 0268     		ldr	r2, [r0]
 677 0022 1368     		ldr	r3, [r2]
 678 0024 23F00103 		bic	r3, r3, #1
 679 0028 1360     		str	r3, [r2]
 440:Drivers/STM32F1xx_HAL_Driver/Src/stm32f1xx_hal_dma.c ****   }
 680              		.loc 1 440 5 view .LVU226
 440:Drivers/STM32F1xx_HAL_Driver/Src/stm32f1xx_hal_dma.c ****   }
 681              		.loc 1 440 55 is_stmt 0 view .LVU227
 682 002a 036C     		ldr	r3, [r0, #64]
 440:Drivers/STM32F1xx_HAL_Driver/Src/stm32f1xx_hal_dma.c ****   }
 683              		.loc 1 440 9 view .LVU228
 684 002c C16B     		ldr	r1, [r0, #60]
 440:Drivers/STM32F1xx_HAL_Driver/Src/stm32f1xx_hal_dma.c ****   }
ARM GAS  C:\Users\GKQ\AppData\Local\Temp\cccAG2jo.s 			page 32


 685              		.loc 1 440 48 view .LVU229
 686 002e 0122     		movs	r2, #1
 687 0030 02FA03F3 		lsl	r3, r2, r3
 440:Drivers/STM32F1xx_HAL_Driver/Src/stm32f1xx_hal_dma.c ****   }
 688              		.loc 1 440 32 view .LVU230
 689 0034 4B60     		str	r3, [r1, #4]
 443:Drivers/STM32F1xx_HAL_Driver/Src/stm32f1xx_hal_dma.c **** 
 690              		.loc 1 443 3 is_stmt 1 view .LVU231
 443:Drivers/STM32F1xx_HAL_Driver/Src/stm32f1xx_hal_dma.c **** 
 691              		.loc 1 443 15 is_stmt 0 view .LVU232
 692 0036 80F82120 		strb	r2, [r0, #33]
 446:Drivers/STM32F1xx_HAL_Driver/Src/stm32f1xx_hal_dma.c ****   
 693              		.loc 1 446 3 is_stmt 1 view .LVU233
 446:Drivers/STM32F1xx_HAL_Driver/Src/stm32f1xx_hal_dma.c ****   
 694              		.loc 1 446 3 view .LVU234
 695 003a 0023     		movs	r3, #0
 696 003c 80F82030 		strb	r3, [r0, #32]
 446:Drivers/STM32F1xx_HAL_Driver/Src/stm32f1xx_hal_dma.c ****   
 697              		.loc 1 446 3 view .LVU235
 448:Drivers/STM32F1xx_HAL_Driver/Src/stm32f1xx_hal_dma.c **** }
 698              		.loc 1 448 3 view .LVU236
 448:Drivers/STM32F1xx_HAL_Driver/Src/stm32f1xx_hal_dma.c **** }
 699              		.loc 1 448 10 is_stmt 0 view .LVU237
 700 0040 1846     		mov	r0, r3
 701              	.LVL40:
 449:Drivers/STM32F1xx_HAL_Driver/Src/stm32f1xx_hal_dma.c **** 
 702              		.loc 1 449 1 view .LVU238
 703 0042 7047     		bx	lr
 704              		.cfi_endproc
 705              	.LFE69:
 707              		.section	.text.HAL_DMA_Abort_IT,"ax",%progbits
 708              		.align	1
 709              		.global	HAL_DMA_Abort_IT
 710              		.syntax unified
 711              		.thumb
 712              		.thumb_func
 713              		.fpu softvfp
 715              	HAL_DMA_Abort_IT:
 716              	.LVL41:
 717              	.LFB70:
 458:Drivers/STM32F1xx_HAL_Driver/Src/stm32f1xx_hal_dma.c ****   HAL_StatusTypeDef status = HAL_OK;
 718              		.loc 1 458 1 is_stmt 1 view -0
 719              		.cfi_startproc
 720              		@ args = 0, pretend = 0, frame = 0
 721              		@ frame_needed = 0, uses_anonymous_args = 0
 458:Drivers/STM32F1xx_HAL_Driver/Src/stm32f1xx_hal_dma.c ****   HAL_StatusTypeDef status = HAL_OK;
 722              		.loc 1 458 1 is_stmt 0 view .LVU240
 723 0000 08B5     		push	{r3, lr}
 724              	.LCFI9:
 725              		.cfi_def_cfa_offset 8
 726              		.cfi_offset 3, -8
 727              		.cfi_offset 14, -4
 459:Drivers/STM32F1xx_HAL_Driver/Src/stm32f1xx_hal_dma.c ****   
 728              		.loc 1 459 3 is_stmt 1 view .LVU241
 729              	.LVL42:
 461:Drivers/STM32F1xx_HAL_Driver/Src/stm32f1xx_hal_dma.c ****   {
 730              		.loc 1 461 3 view .LVU242
ARM GAS  C:\Users\GKQ\AppData\Local\Temp\cccAG2jo.s 			page 33


 461:Drivers/STM32F1xx_HAL_Driver/Src/stm32f1xx_hal_dma.c ****   {
 731              		.loc 1 461 32 is_stmt 0 view .LVU243
 732 0002 90F82130 		ldrb	r3, [r0, #33]	@ zero_extendqisi2
 461:Drivers/STM32F1xx_HAL_Driver/Src/stm32f1xx_hal_dma.c ****   {
 733              		.loc 1 461 5 view .LVU244
 734 0006 022B     		cmp	r3, #2
 735 0008 03D0     		beq	.L42
 464:Drivers/STM32F1xx_HAL_Driver/Src/stm32f1xx_hal_dma.c ****         
 736              		.loc 1 464 5 is_stmt 1 view .LVU245
 464:Drivers/STM32F1xx_HAL_Driver/Src/stm32f1xx_hal_dma.c ****         
 737              		.loc 1 464 21 is_stmt 0 view .LVU246
 738 000a 0423     		movs	r3, #4
 739 000c 8363     		str	r3, [r0, #56]
 466:Drivers/STM32F1xx_HAL_Driver/Src/stm32f1xx_hal_dma.c ****   }
 740              		.loc 1 466 5 is_stmt 1 view .LVU247
 741              	.LVL43:
 466:Drivers/STM32F1xx_HAL_Driver/Src/stm32f1xx_hal_dma.c ****   }
 742              		.loc 1 466 12 is_stmt 0 view .LVU248
 743 000e 0120     		movs	r0, #1
 744              	.LVL44:
 745              	.L43:
 491:Drivers/STM32F1xx_HAL_Driver/Src/stm32f1xx_hal_dma.c **** }
 746              		.loc 1 491 3 is_stmt 1 view .LVU249
 492:Drivers/STM32F1xx_HAL_Driver/Src/stm32f1xx_hal_dma.c **** 
 747              		.loc 1 492 1 is_stmt 0 view .LVU250
 748 0010 08BD     		pop	{r3, pc}
 749              	.LVL45:
 750              	.L42:
 471:Drivers/STM32F1xx_HAL_Driver/Src/stm32f1xx_hal_dma.c **** 
 751              		.loc 1 471 5 is_stmt 1 view .LVU251
 752 0012 0268     		ldr	r2, [r0]
 753 0014 1368     		ldr	r3, [r2]
 754 0016 23F00E03 		bic	r3, r3, #14
 755 001a 1360     		str	r3, [r2]
 474:Drivers/STM32F1xx_HAL_Driver/Src/stm32f1xx_hal_dma.c **** 
 756              		.loc 1 474 5 view .LVU252
 757 001c 0268     		ldr	r2, [r0]
 758 001e 1368     		ldr	r3, [r2]
 759 0020 23F00103 		bic	r3, r3, #1
 760 0024 1360     		str	r3, [r2]
 477:Drivers/STM32F1xx_HAL_Driver/Src/stm32f1xx_hal_dma.c **** 
 761              		.loc 1 477 5 view .LVU253
 762 0026 0368     		ldr	r3, [r0]
 763 0028 4B4A     		ldr	r2, .L74
 764 002a 9342     		cmp	r3, r2
 765 002c 4ED9     		bls	.L44
 477:Drivers/STM32F1xx_HAL_Driver/Src/stm32f1xx_hal_dma.c **** 
 766              		.loc 1 477 5 is_stmt 0 discriminator 1 view .LVU254
 767 002e 783A     		subs	r2, r2, #120
 768 0030 9342     		cmp	r3, r2
 769 0032 24D0     		beq	.L48
 477:Drivers/STM32F1xx_HAL_Driver/Src/stm32f1xx_hal_dma.c **** 
 770              		.loc 1 477 5 discriminator 3 view .LVU255
 771 0034 1432     		adds	r2, r2, #20
 772 0036 9342     		cmp	r3, r2
 773 0038 30D0     		beq	.L49
 477:Drivers/STM32F1xx_HAL_Driver/Src/stm32f1xx_hal_dma.c **** 
ARM GAS  C:\Users\GKQ\AppData\Local\Temp\cccAG2jo.s 			page 34


 774              		.loc 1 477 5 discriminator 5 view .LVU256
 775 003a 1432     		adds	r2, r2, #20
 776 003c 9342     		cmp	r3, r2
 777 003e 2FD0     		beq	.L50
 477:Drivers/STM32F1xx_HAL_Driver/Src/stm32f1xx_hal_dma.c **** 
 778              		.loc 1 477 5 discriminator 7 view .LVU257
 779 0040 1432     		adds	r2, r2, #20
 780 0042 9342     		cmp	r3, r2
 781 0044 2FD0     		beq	.L51
 477:Drivers/STM32F1xx_HAL_Driver/Src/stm32f1xx_hal_dma.c **** 
 782              		.loc 1 477 5 discriminator 9 view .LVU258
 783 0046 1432     		adds	r2, r2, #20
 784 0048 9342     		cmp	r3, r2
 785 004a 2FD0     		beq	.L52
 477:Drivers/STM32F1xx_HAL_Driver/Src/stm32f1xx_hal_dma.c **** 
 786              		.loc 1 477 5 discriminator 11 view .LVU259
 787 004c 1432     		adds	r2, r2, #20
 788 004e 9342     		cmp	r3, r2
 789 0050 2FD0     		beq	.L53
 477:Drivers/STM32F1xx_HAL_Driver/Src/stm32f1xx_hal_dma.c **** 
 790              		.loc 1 477 5 discriminator 13 view .LVU260
 791 0052 1432     		adds	r2, r2, #20
 792 0054 9342     		cmp	r3, r2
 793 0056 2FD0     		beq	.L54
 477:Drivers/STM32F1xx_HAL_Driver/Src/stm32f1xx_hal_dma.c **** 
 794              		.loc 1 477 5 discriminator 15 view .LVU261
 795 0058 02F56272 		add	r2, r2, #904
 796 005c 9342     		cmp	r3, r2
 797 005e 2ED0     		beq	.L55
 477:Drivers/STM32F1xx_HAL_Driver/Src/stm32f1xx_hal_dma.c **** 
 798              		.loc 1 477 5 discriminator 17 view .LVU262
 799 0060 1432     		adds	r2, r2, #20
 800 0062 9342     		cmp	r3, r2
 801 0064 2DD0     		beq	.L56
 477:Drivers/STM32F1xx_HAL_Driver/Src/stm32f1xx_hal_dma.c **** 
 802              		.loc 1 477 5 discriminator 19 view .LVU263
 803 0066 1432     		adds	r2, r2, #20
 804 0068 9342     		cmp	r3, r2
 805 006a 2CD0     		beq	.L57
 477:Drivers/STM32F1xx_HAL_Driver/Src/stm32f1xx_hal_dma.c **** 
 806              		.loc 1 477 5 discriminator 21 view .LVU264
 807 006c 1432     		adds	r2, r2, #20
 808 006e 9342     		cmp	r3, r2
 809 0070 02D0     		beq	.L72
 477:Drivers/STM32F1xx_HAL_Driver/Src/stm32f1xx_hal_dma.c **** 
 810              		.loc 1 477 5 view .LVU265
 811 0072 4FF48032 		mov	r2, #65536
 812 0076 03E0     		b	.L45
 813              	.L72:
 814 0078 4FF48052 		mov	r2, #4096
 815 007c 00E0     		b	.L45
 816              	.L48:
 817 007e 0122     		movs	r2, #1
 818              	.L45:
 477:Drivers/STM32F1xx_HAL_Driver/Src/stm32f1xx_hal_dma.c **** 
 819              		.loc 1 477 5 discriminator 46 view .LVU266
 820 0080 364B     		ldr	r3, .L74+4
ARM GAS  C:\Users\GKQ\AppData\Local\Temp\cccAG2jo.s 			page 35


 821 0082 5A60     		str	r2, [r3, #4]
 822              	.L46:
 480:Drivers/STM32F1xx_HAL_Driver/Src/stm32f1xx_hal_dma.c **** 
 823              		.loc 1 480 5 is_stmt 1 view .LVU267
 480:Drivers/STM32F1xx_HAL_Driver/Src/stm32f1xx_hal_dma.c **** 
 824              		.loc 1 480 17 is_stmt 0 view .LVU268
 825 0084 0123     		movs	r3, #1
 826 0086 80F82130 		strb	r3, [r0, #33]
 483:Drivers/STM32F1xx_HAL_Driver/Src/stm32f1xx_hal_dma.c **** 
 827              		.loc 1 483 5 is_stmt 1 view .LVU269
 483:Drivers/STM32F1xx_HAL_Driver/Src/stm32f1xx_hal_dma.c **** 
 828              		.loc 1 483 5 view .LVU270
 829 008a 0023     		movs	r3, #0
 830 008c 80F82030 		strb	r3, [r0, #32]
 483:Drivers/STM32F1xx_HAL_Driver/Src/stm32f1xx_hal_dma.c **** 
 831              		.loc 1 483 5 view .LVU271
 486:Drivers/STM32F1xx_HAL_Driver/Src/stm32f1xx_hal_dma.c ****     {
 832              		.loc 1 486 5 view .LVU272
 486:Drivers/STM32F1xx_HAL_Driver/Src/stm32f1xx_hal_dma.c ****     {
 833              		.loc 1 486 12 is_stmt 0 view .LVU273
 834 0090 436B     		ldr	r3, [r0, #52]
 486:Drivers/STM32F1xx_HAL_Driver/Src/stm32f1xx_hal_dma.c ****     {
 835              		.loc 1 486 7 view .LVU274
 836 0092 002B     		cmp	r3, #0
 837 0094 5ED0     		beq	.L70
 488:Drivers/STM32F1xx_HAL_Driver/Src/stm32f1xx_hal_dma.c ****     } 
 838              		.loc 1 488 7 is_stmt 1 view .LVU275
 839 0096 9847     		blx	r3
 840              	.LVL46:
 459:Drivers/STM32F1xx_HAL_Driver/Src/stm32f1xx_hal_dma.c ****   
 841              		.loc 1 459 21 is_stmt 0 view .LVU276
 842 0098 0020     		movs	r0, #0
 843 009a B9E7     		b	.L43
 844              	.LVL47:
 845              	.L49:
 477:Drivers/STM32F1xx_HAL_Driver/Src/stm32f1xx_hal_dma.c **** 
 846              		.loc 1 477 5 view .LVU277
 847 009c 1022     		movs	r2, #16
 848 009e EFE7     		b	.L45
 849              	.L50:
 850 00a0 4FF48072 		mov	r2, #256
 851 00a4 ECE7     		b	.L45
 852              	.L51:
 853 00a6 4FF48052 		mov	r2, #4096
 854 00aa E9E7     		b	.L45
 855              	.L52:
 856 00ac 4FF48032 		mov	r2, #65536
 857 00b0 E6E7     		b	.L45
 858              	.L53:
 859 00b2 4FF48012 		mov	r2, #1048576
 860 00b6 E3E7     		b	.L45
 861              	.L54:
 862 00b8 4FF08072 		mov	r2, #16777216
 863 00bc E0E7     		b	.L45
 864              	.L55:
 865 00be 0122     		movs	r2, #1
 866 00c0 DEE7     		b	.L45
ARM GAS  C:\Users\GKQ\AppData\Local\Temp\cccAG2jo.s 			page 36


 867              	.L56:
 868 00c2 1022     		movs	r2, #16
 869 00c4 DCE7     		b	.L45
 870              	.L57:
 871 00c6 4FF48072 		mov	r2, #256
 872 00ca D9E7     		b	.L45
 873              	.L44:
 477:Drivers/STM32F1xx_HAL_Driver/Src/stm32f1xx_hal_dma.c **** 
 874              		.loc 1 477 5 discriminator 2 view .LVU278
 875 00cc 244A     		ldr	r2, .L74+8
 876 00ce 9342     		cmp	r3, r2
 877 00d0 24D0     		beq	.L59
 477:Drivers/STM32F1xx_HAL_Driver/Src/stm32f1xx_hal_dma.c **** 
 878              		.loc 1 477 5 discriminator 47 view .LVU279
 879 00d2 1432     		adds	r2, r2, #20
 880 00d4 9342     		cmp	r3, r2
 881 00d6 25D0     		beq	.L60
 477:Drivers/STM32F1xx_HAL_Driver/Src/stm32f1xx_hal_dma.c **** 
 882              		.loc 1 477 5 discriminator 49 view .LVU280
 883 00d8 1432     		adds	r2, r2, #20
 884 00da 9342     		cmp	r3, r2
 885 00dc 24D0     		beq	.L61
 477:Drivers/STM32F1xx_HAL_Driver/Src/stm32f1xx_hal_dma.c **** 
 886              		.loc 1 477 5 discriminator 51 view .LVU281
 887 00de 1432     		adds	r2, r2, #20
 888 00e0 9342     		cmp	r3, r2
 889 00e2 24D0     		beq	.L62
 477:Drivers/STM32F1xx_HAL_Driver/Src/stm32f1xx_hal_dma.c **** 
 890              		.loc 1 477 5 discriminator 53 view .LVU282
 891 00e4 1432     		adds	r2, r2, #20
 892 00e6 9342     		cmp	r3, r2
 893 00e8 24D0     		beq	.L63
 477:Drivers/STM32F1xx_HAL_Driver/Src/stm32f1xx_hal_dma.c **** 
 894              		.loc 1 477 5 discriminator 55 view .LVU283
 895 00ea 1432     		adds	r2, r2, #20
 896 00ec 9342     		cmp	r3, r2
 897 00ee 24D0     		beq	.L64
 477:Drivers/STM32F1xx_HAL_Driver/Src/stm32f1xx_hal_dma.c **** 
 898              		.loc 1 477 5 discriminator 57 view .LVU284
 899 00f0 1432     		adds	r2, r2, #20
 900 00f2 9342     		cmp	r3, r2
 901 00f4 24D0     		beq	.L65
 477:Drivers/STM32F1xx_HAL_Driver/Src/stm32f1xx_hal_dma.c **** 
 902              		.loc 1 477 5 discriminator 59 view .LVU285
 903 00f6 02F56272 		add	r2, r2, #904
 904 00fa 9342     		cmp	r3, r2
 905 00fc 23D0     		beq	.L66
 477:Drivers/STM32F1xx_HAL_Driver/Src/stm32f1xx_hal_dma.c **** 
 906              		.loc 1 477 5 discriminator 61 view .LVU286
 907 00fe 1432     		adds	r2, r2, #20
 908 0100 9342     		cmp	r3, r2
 909 0102 22D0     		beq	.L67
 477:Drivers/STM32F1xx_HAL_Driver/Src/stm32f1xx_hal_dma.c **** 
 910              		.loc 1 477 5 discriminator 63 view .LVU287
 911 0104 1432     		adds	r2, r2, #20
 912 0106 9342     		cmp	r3, r2
 913 0108 21D0     		beq	.L68
ARM GAS  C:\Users\GKQ\AppData\Local\Temp\cccAG2jo.s 			page 37


 477:Drivers/STM32F1xx_HAL_Driver/Src/stm32f1xx_hal_dma.c **** 
 914              		.loc 1 477 5 discriminator 65 view .LVU288
 915 010a 1432     		adds	r2, r2, #20
 916 010c 9342     		cmp	r3, r2
 917 010e 02D0     		beq	.L73
 477:Drivers/STM32F1xx_HAL_Driver/Src/stm32f1xx_hal_dma.c **** 
 918              		.loc 1 477 5 view .LVU289
 919 0110 4FF48032 		mov	r2, #65536
 920 0114 03E0     		b	.L47
 921              	.L73:
 922 0116 4FF48052 		mov	r2, #4096
 923 011a 00E0     		b	.L47
 924              	.L59:
 925 011c 0122     		movs	r2, #1
 926              	.L47:
 477:Drivers/STM32F1xx_HAL_Driver/Src/stm32f1xx_hal_dma.c **** 
 927              		.loc 1 477 5 discriminator 90 view .LVU290
 928 011e 114B     		ldr	r3, .L74+12
 929 0120 5A60     		str	r2, [r3, #4]
 930 0122 AFE7     		b	.L46
 931              	.L60:
 477:Drivers/STM32F1xx_HAL_Driver/Src/stm32f1xx_hal_dma.c **** 
 932              		.loc 1 477 5 view .LVU291
 933 0124 1022     		movs	r2, #16
 934 0126 FAE7     		b	.L47
 935              	.L61:
 936 0128 4FF48072 		mov	r2, #256
 937 012c F7E7     		b	.L47
 938              	.L62:
 939 012e 4FF48052 		mov	r2, #4096
 940 0132 F4E7     		b	.L47
 941              	.L63:
 942 0134 4FF48032 		mov	r2, #65536
 943 0138 F1E7     		b	.L47
 944              	.L64:
 945 013a 4FF48012 		mov	r2, #1048576
 946 013e EEE7     		b	.L47
 947              	.L65:
 948 0140 4FF08072 		mov	r2, #16777216
 949 0144 EBE7     		b	.L47
 950              	.L66:
 951 0146 0122     		movs	r2, #1
 952 0148 E9E7     		b	.L47
 953              	.L67:
 954 014a 1022     		movs	r2, #16
 955 014c E7E7     		b	.L47
 956              	.L68:
 957 014e 4FF48072 		mov	r2, #256
 958 0152 E4E7     		b	.L47
 959              	.L70:
 459:Drivers/STM32F1xx_HAL_Driver/Src/stm32f1xx_hal_dma.c ****   
 960              		.loc 1 459 21 view .LVU292
 961 0154 0020     		movs	r0, #0
 962              	.LVL48:
 459:Drivers/STM32F1xx_HAL_Driver/Src/stm32f1xx_hal_dma.c ****   
 963              		.loc 1 459 21 view .LVU293
 964 0156 5BE7     		b	.L43
ARM GAS  C:\Users\GKQ\AppData\Local\Temp\cccAG2jo.s 			page 38


 965              	.L75:
 966              		.align	2
 967              	.L74:
 968 0158 80000240 		.word	1073873024
 969 015c 00040240 		.word	1073873920
 970 0160 08000240 		.word	1073872904
 971 0164 00000240 		.word	1073872896
 972              		.cfi_endproc
 973              	.LFE70:
 975              		.section	.text.HAL_DMA_PollForTransfer,"ax",%progbits
 976              		.align	1
 977              		.global	HAL_DMA_PollForTransfer
 978              		.syntax unified
 979              		.thumb
 980              		.thumb_func
 981              		.fpu softvfp
 983              	HAL_DMA_PollForTransfer:
 984              	.LVL49:
 985              	.LFB71:
 503:Drivers/STM32F1xx_HAL_Driver/Src/stm32f1xx_hal_dma.c ****   uint32_t temp;
 986              		.loc 1 503 1 is_stmt 1 view -0
 987              		.cfi_startproc
 988              		@ args = 0, pretend = 0, frame = 0
 989              		@ frame_needed = 0, uses_anonymous_args = 0
 503:Drivers/STM32F1xx_HAL_Driver/Src/stm32f1xx_hal_dma.c ****   uint32_t temp;
 990              		.loc 1 503 1 is_stmt 0 view .LVU295
 991 0000 2DE9F843 		push	{r3, r4, r5, r6, r7, r8, r9, lr}
 992              	.LCFI10:
 993              		.cfi_def_cfa_offset 32
 994              		.cfi_offset 3, -32
 995              		.cfi_offset 4, -28
 996              		.cfi_offset 5, -24
 997              		.cfi_offset 6, -20
 998              		.cfi_offset 7, -16
 999              		.cfi_offset 8, -12
 1000              		.cfi_offset 9, -8
 1001              		.cfi_offset 14, -4
 1002 0004 0446     		mov	r4, r0
 504:Drivers/STM32F1xx_HAL_Driver/Src/stm32f1xx_hal_dma.c ****   uint32_t tickstart = 0U;
 1003              		.loc 1 504 3 is_stmt 1 view .LVU296
 505:Drivers/STM32F1xx_HAL_Driver/Src/stm32f1xx_hal_dma.c **** 
 1004              		.loc 1 505 3 view .LVU297
 1005              	.LVL50:
 507:Drivers/STM32F1xx_HAL_Driver/Src/stm32f1xx_hal_dma.c ****   {
 1006              		.loc 1 507 3 view .LVU298
 507:Drivers/STM32F1xx_HAL_Driver/Src/stm32f1xx_hal_dma.c ****   {
 1007              		.loc 1 507 32 is_stmt 0 view .LVU299
 1008 0006 90F82130 		ldrb	r3, [r0, #33]	@ zero_extendqisi2
 507:Drivers/STM32F1xx_HAL_Driver/Src/stm32f1xx_hal_dma.c ****   {
 1009              		.loc 1 507 5 view .LVU300
 1010 000a 022B     		cmp	r3, #2
 1011 000c 07D0     		beq	.L77
 510:Drivers/STM32F1xx_HAL_Driver/Src/stm32f1xx_hal_dma.c ****     __HAL_UNLOCK(hdma);
 1012              		.loc 1 510 5 is_stmt 1 view .LVU301
 510:Drivers/STM32F1xx_HAL_Driver/Src/stm32f1xx_hal_dma.c ****     __HAL_UNLOCK(hdma);
 1013              		.loc 1 510 21 is_stmt 0 view .LVU302
 1014 000e 0423     		movs	r3, #4
ARM GAS  C:\Users\GKQ\AppData\Local\Temp\cccAG2jo.s 			page 39


 1015 0010 8363     		str	r3, [r0, #56]
 511:Drivers/STM32F1xx_HAL_Driver/Src/stm32f1xx_hal_dma.c ****     return HAL_ERROR;
 1016              		.loc 1 511 5 is_stmt 1 view .LVU303
 511:Drivers/STM32F1xx_HAL_Driver/Src/stm32f1xx_hal_dma.c ****     return HAL_ERROR;
 1017              		.loc 1 511 5 view .LVU304
 1018 0012 0023     		movs	r3, #0
 1019 0014 80F82030 		strb	r3, [r0, #32]
 511:Drivers/STM32F1xx_HAL_Driver/Src/stm32f1xx_hal_dma.c ****     return HAL_ERROR;
 1020              		.loc 1 511 5 view .LVU305
 512:Drivers/STM32F1xx_HAL_Driver/Src/stm32f1xx_hal_dma.c ****   }
 1021              		.loc 1 512 5 view .LVU306
 512:Drivers/STM32F1xx_HAL_Driver/Src/stm32f1xx_hal_dma.c ****   }
 1022              		.loc 1 512 12 is_stmt 0 view .LVU307
 1023 0018 0120     		movs	r0, #1
 1024              	.LVL51:
 1025              	.L78:
 595:Drivers/STM32F1xx_HAL_Driver/Src/stm32f1xx_hal_dma.c **** 
 1026              		.loc 1 595 1 view .LVU308
 1027 001a BDE8F883 		pop	{r3, r4, r5, r6, r7, r8, r9, pc}
 1028              	.LVL52:
 1029              	.L77:
 595:Drivers/STM32F1xx_HAL_Driver/Src/stm32f1xx_hal_dma.c **** 
 1030              		.loc 1 595 1 view .LVU309
 1031 001e 8846     		mov	r8, r1
 1032 0020 1646     		mov	r6, r2
 516:Drivers/STM32F1xx_HAL_Driver/Src/stm32f1xx_hal_dma.c ****   {
 1033              		.loc 1 516 3 is_stmt 1 view .LVU310
 516:Drivers/STM32F1xx_HAL_Driver/Src/stm32f1xx_hal_dma.c ****   {
 1034              		.loc 1 516 21 is_stmt 0 view .LVU311
 1035 0022 0368     		ldr	r3, [r0]
 516:Drivers/STM32F1xx_HAL_Driver/Src/stm32f1xx_hal_dma.c ****   {
 1036              		.loc 1 516 31 view .LVU312
 1037 0024 1A68     		ldr	r2, [r3]
 1038              	.LVL53:
 516:Drivers/STM32F1xx_HAL_Driver/Src/stm32f1xx_hal_dma.c ****   {
 1039              		.loc 1 516 6 view .LVU313
 1040 0026 12F0200F 		tst	r2, #32
 1041 002a 25D1     		bne	.L191
 523:Drivers/STM32F1xx_HAL_Driver/Src/stm32f1xx_hal_dma.c ****   {
 1042              		.loc 1 523 3 is_stmt 1 view .LVU314
 523:Drivers/STM32F1xx_HAL_Driver/Src/stm32f1xx_hal_dma.c ****   {
 1043              		.loc 1 523 5 is_stmt 0 view .LVU315
 1044 002c 61BB     		cbnz	r1, .L80
 526:Drivers/STM32F1xx_HAL_Driver/Src/stm32f1xx_hal_dma.c ****   }
 1045              		.loc 1 526 5 is_stmt 1 view .LVU316
 526:Drivers/STM32F1xx_HAL_Driver/Src/stm32f1xx_hal_dma.c ****   }
 1046              		.loc 1 526 12 is_stmt 0 view .LVU317
 1047 002e AF4A     		ldr	r2, .L203
 1048 0030 9342     		cmp	r3, r2
 1049 0032 51D0     		beq	.L102
 526:Drivers/STM32F1xx_HAL_Driver/Src/stm32f1xx_hal_dma.c ****   }
 1050              		.loc 1 526 12 discriminator 1 view .LVU318
 1051 0034 1432     		adds	r2, r2, #20
 1052 0036 9342     		cmp	r3, r2
 1053 0038 53D0     		beq	.L103
 526:Drivers/STM32F1xx_HAL_Driver/Src/stm32f1xx_hal_dma.c ****   }
 1054              		.loc 1 526 12 discriminator 3 view .LVU319
ARM GAS  C:\Users\GKQ\AppData\Local\Temp\cccAG2jo.s 			page 40


 1055 003a 1432     		adds	r2, r2, #20
 1056 003c 9342     		cmp	r3, r2
 1057 003e 52D0     		beq	.L104
 526:Drivers/STM32F1xx_HAL_Driver/Src/stm32f1xx_hal_dma.c ****   }
 1058              		.loc 1 526 12 discriminator 5 view .LVU320
 1059 0040 1432     		adds	r2, r2, #20
 1060 0042 9342     		cmp	r3, r2
 1061 0044 52D0     		beq	.L105
 526:Drivers/STM32F1xx_HAL_Driver/Src/stm32f1xx_hal_dma.c ****   }
 1062              		.loc 1 526 12 discriminator 7 view .LVU321
 1063 0046 1432     		adds	r2, r2, #20
 1064 0048 9342     		cmp	r3, r2
 1065 004a 52D0     		beq	.L106
 526:Drivers/STM32F1xx_HAL_Driver/Src/stm32f1xx_hal_dma.c ****   }
 1066              		.loc 1 526 12 discriminator 9 view .LVU322
 1067 004c 1432     		adds	r2, r2, #20
 1068 004e 9342     		cmp	r3, r2
 1069 0050 52D0     		beq	.L107
 526:Drivers/STM32F1xx_HAL_Driver/Src/stm32f1xx_hal_dma.c ****   }
 1070              		.loc 1 526 12 discriminator 11 view .LVU323
 1071 0052 1432     		adds	r2, r2, #20
 1072 0054 9342     		cmp	r3, r2
 1073 0056 52D0     		beq	.L108
 526:Drivers/STM32F1xx_HAL_Driver/Src/stm32f1xx_hal_dma.c ****   }
 1074              		.loc 1 526 12 discriminator 13 view .LVU324
 1075 0058 02F56272 		add	r2, r2, #904
 1076 005c 9342     		cmp	r3, r2
 1077 005e 51D0     		beq	.L109
 526:Drivers/STM32F1xx_HAL_Driver/Src/stm32f1xx_hal_dma.c ****   }
 1078              		.loc 1 526 12 discriminator 15 view .LVU325
 1079 0060 1432     		adds	r2, r2, #20
 1080 0062 9342     		cmp	r3, r2
 1081 0064 50D0     		beq	.L110
 526:Drivers/STM32F1xx_HAL_Driver/Src/stm32f1xx_hal_dma.c ****   }
 1082              		.loc 1 526 12 discriminator 17 view .LVU326
 1083 0066 1432     		adds	r2, r2, #20
 1084 0068 9342     		cmp	r3, r2
 1085 006a 4FD0     		beq	.L111
 526:Drivers/STM32F1xx_HAL_Driver/Src/stm32f1xx_hal_dma.c ****   }
 1086              		.loc 1 526 12 discriminator 19 view .LVU327
 1087 006c 1432     		adds	r2, r2, #20
 1088 006e 9342     		cmp	r3, r2
 1089 0070 07D0     		beq	.L192
 526:Drivers/STM32F1xx_HAL_Driver/Src/stm32f1xx_hal_dma.c ****   }
 1090              		.loc 1 526 12 view .LVU328
 1091 0072 4FF40037 		mov	r7, #131072
 1092 0076 30E0     		b	.L81
 1093              	.L191:
 518:Drivers/STM32F1xx_HAL_Driver/Src/stm32f1xx_hal_dma.c ****     return HAL_ERROR;
 1094              		.loc 1 518 5 is_stmt 1 view .LVU329
 518:Drivers/STM32F1xx_HAL_Driver/Src/stm32f1xx_hal_dma.c ****     return HAL_ERROR;
 1095              		.loc 1 518 21 is_stmt 0 view .LVU330
 1096 0078 4FF48073 		mov	r3, #256
 1097 007c 8363     		str	r3, [r0, #56]
 519:Drivers/STM32F1xx_HAL_Driver/Src/stm32f1xx_hal_dma.c ****   }
 1098              		.loc 1 519 5 is_stmt 1 view .LVU331
 519:Drivers/STM32F1xx_HAL_Driver/Src/stm32f1xx_hal_dma.c ****   }
ARM GAS  C:\Users\GKQ\AppData\Local\Temp\cccAG2jo.s 			page 41


 1099              		.loc 1 519 12 is_stmt 0 view .LVU332
 1100 007e 0120     		movs	r0, #1
 1101              	.LVL54:
 519:Drivers/STM32F1xx_HAL_Driver/Src/stm32f1xx_hal_dma.c ****   }
 1102              		.loc 1 519 12 view .LVU333
 1103 0080 CBE7     		b	.L78
 1104              	.LVL55:
 1105              	.L192:
 526:Drivers/STM32F1xx_HAL_Driver/Src/stm32f1xx_hal_dma.c ****   }
 1106              		.loc 1 526 12 view .LVU334
 1107 0082 4FF40057 		mov	r7, #8192
 1108 0086 28E0     		b	.L81
 1109              	.L80:
 531:Drivers/STM32F1xx_HAL_Driver/Src/stm32f1xx_hal_dma.c ****   }
 1110              		.loc 1 531 5 is_stmt 1 view .LVU335
 531:Drivers/STM32F1xx_HAL_Driver/Src/stm32f1xx_hal_dma.c ****   }
 1111              		.loc 1 531 12 is_stmt 0 view .LVU336
 1112 0088 984A     		ldr	r2, .L203
 1113 008a 9342     		cmp	r3, r2
 1114 008c 41D0     		beq	.L113
 531:Drivers/STM32F1xx_HAL_Driver/Src/stm32f1xx_hal_dma.c ****   }
 1115              		.loc 1 531 12 discriminator 1 view .LVU337
 1116 008e 1432     		adds	r2, r2, #20
 1117 0090 9342     		cmp	r3, r2
 1118 0092 40D0     		beq	.L114
 531:Drivers/STM32F1xx_HAL_Driver/Src/stm32f1xx_hal_dma.c ****   }
 1119              		.loc 1 531 12 discriminator 3 view .LVU338
 1120 0094 1432     		adds	r2, r2, #20
 1121 0096 9342     		cmp	r3, r2
 1122 0098 3FD0     		beq	.L115
 531:Drivers/STM32F1xx_HAL_Driver/Src/stm32f1xx_hal_dma.c ****   }
 1123              		.loc 1 531 12 discriminator 5 view .LVU339
 1124 009a 1432     		adds	r2, r2, #20
 1125 009c 9342     		cmp	r3, r2
 1126 009e 3FD0     		beq	.L116
 531:Drivers/STM32F1xx_HAL_Driver/Src/stm32f1xx_hal_dma.c ****   }
 1127              		.loc 1 531 12 discriminator 7 view .LVU340
 1128 00a0 1432     		adds	r2, r2, #20
 1129 00a2 9342     		cmp	r3, r2
 1130 00a4 3FD0     		beq	.L117
 531:Drivers/STM32F1xx_HAL_Driver/Src/stm32f1xx_hal_dma.c ****   }
 1131              		.loc 1 531 12 discriminator 9 view .LVU341
 1132 00a6 1432     		adds	r2, r2, #20
 1133 00a8 9342     		cmp	r3, r2
 1134 00aa 3FD0     		beq	.L118
 531:Drivers/STM32F1xx_HAL_Driver/Src/stm32f1xx_hal_dma.c ****   }
 1135              		.loc 1 531 12 discriminator 11 view .LVU342
 1136 00ac 1432     		adds	r2, r2, #20
 1137 00ae 9342     		cmp	r3, r2
 1138 00b0 3FD0     		beq	.L119
 531:Drivers/STM32F1xx_HAL_Driver/Src/stm32f1xx_hal_dma.c ****   }
 1139              		.loc 1 531 12 discriminator 13 view .LVU343
 1140 00b2 02F56272 		add	r2, r2, #904
 1141 00b6 9342     		cmp	r3, r2
 1142 00b8 3ED0     		beq	.L120
 531:Drivers/STM32F1xx_HAL_Driver/Src/stm32f1xx_hal_dma.c ****   }
 1143              		.loc 1 531 12 discriminator 15 view .LVU344
ARM GAS  C:\Users\GKQ\AppData\Local\Temp\cccAG2jo.s 			page 42


 1144 00ba 1432     		adds	r2, r2, #20
 1145 00bc 9342     		cmp	r3, r2
 1146 00be 3DD0     		beq	.L121
 531:Drivers/STM32F1xx_HAL_Driver/Src/stm32f1xx_hal_dma.c ****   }
 1147              		.loc 1 531 12 discriminator 17 view .LVU345
 1148 00c0 1432     		adds	r2, r2, #20
 1149 00c2 9342     		cmp	r3, r2
 1150 00c4 3CD0     		beq	.L122
 531:Drivers/STM32F1xx_HAL_Driver/Src/stm32f1xx_hal_dma.c ****   }
 1151              		.loc 1 531 12 discriminator 19 view .LVU346
 1152 00c6 1432     		adds	r2, r2, #20
 1153 00c8 9342     		cmp	r3, r2
 1154 00ca 02D0     		beq	.L193
 531:Drivers/STM32F1xx_HAL_Driver/Src/stm32f1xx_hal_dma.c ****   }
 1155              		.loc 1 531 12 view .LVU347
 1156 00cc 4FF48027 		mov	r7, #262144
 1157 00d0 03E0     		b	.L81
 1158              	.L193:
 1159 00d2 4FF48047 		mov	r7, #16384
 1160 00d6 00E0     		b	.L81
 1161              	.L102:
 526:Drivers/STM32F1xx_HAL_Driver/Src/stm32f1xx_hal_dma.c ****   }
 1162              		.loc 1 526 12 view .LVU348
 1163 00d8 0227     		movs	r7, #2
 1164              	.L81:
 1165              	.LVL56:
 535:Drivers/STM32F1xx_HAL_Driver/Src/stm32f1xx_hal_dma.c **** 
 1166              		.loc 1 535 3 is_stmt 1 view .LVU349
 535:Drivers/STM32F1xx_HAL_Driver/Src/stm32f1xx_hal_dma.c **** 
 1167              		.loc 1 535 15 is_stmt 0 view .LVU350
 1168 00da FFF7FEFF 		bl	HAL_GetTick
 1169              	.LVL57:
 535:Drivers/STM32F1xx_HAL_Driver/Src/stm32f1xx_hal_dma.c **** 
 1170              		.loc 1 535 15 view .LVU351
 1171 00de 8146     		mov	r9, r0
 1172              	.LVL58:
 537:Drivers/STM32F1xx_HAL_Driver/Src/stm32f1xx_hal_dma.c ****   {
 1173              		.loc 1 537 3 is_stmt 1 view .LVU352
 537:Drivers/STM32F1xx_HAL_Driver/Src/stm32f1xx_hal_dma.c ****   {
 1174              		.loc 1 537 8 is_stmt 0 view .LVU353
 1175 00e0 40E0     		b	.L88
 1176              	.LVL59:
 1177              	.L103:
 526:Drivers/STM32F1xx_HAL_Driver/Src/stm32f1xx_hal_dma.c ****   }
 1178              		.loc 1 526 12 view .LVU354
 1179 00e2 2027     		movs	r7, #32
 1180 00e4 F9E7     		b	.L81
 1181              	.L104:
 1182 00e6 4FF40077 		mov	r7, #512
 1183 00ea F6E7     		b	.L81
 1184              	.L105:
 1185 00ec 4FF40057 		mov	r7, #8192
 1186 00f0 F3E7     		b	.L81
 1187              	.L106:
 1188 00f2 4FF40037 		mov	r7, #131072
 1189 00f6 F0E7     		b	.L81
 1190              	.L107:
ARM GAS  C:\Users\GKQ\AppData\Local\Temp\cccAG2jo.s 			page 43


 1191 00f8 4FF40017 		mov	r7, #2097152
 1192 00fc EDE7     		b	.L81
 1193              	.L108:
 1194 00fe 4FF00077 		mov	r7, #33554432
 1195 0102 EAE7     		b	.L81
 1196              	.L109:
 1197 0104 0227     		movs	r7, #2
 1198 0106 E8E7     		b	.L81
 1199              	.L110:
 1200 0108 2027     		movs	r7, #32
 1201 010a E6E7     		b	.L81
 1202              	.L111:
 1203 010c 4FF40077 		mov	r7, #512
 1204 0110 E3E7     		b	.L81
 1205              	.L113:
 531:Drivers/STM32F1xx_HAL_Driver/Src/stm32f1xx_hal_dma.c ****   }
 1206              		.loc 1 531 12 view .LVU355
 1207 0112 0427     		movs	r7, #4
 1208 0114 E1E7     		b	.L81
 1209              	.L114:
 1210 0116 4027     		movs	r7, #64
 1211 0118 DFE7     		b	.L81
 1212              	.L115:
 1213 011a 4FF48067 		mov	r7, #1024
 1214 011e DCE7     		b	.L81
 1215              	.L116:
 1216 0120 4FF48047 		mov	r7, #16384
 1217 0124 D9E7     		b	.L81
 1218              	.L117:
 1219 0126 4FF48027 		mov	r7, #262144
 1220 012a D6E7     		b	.L81
 1221              	.L118:
 1222 012c 4FF48007 		mov	r7, #4194304
 1223 0130 D3E7     		b	.L81
 1224              	.L119:
 1225 0132 4FF08067 		mov	r7, #67108864
 1226 0136 D0E7     		b	.L81
 1227              	.L120:
 1228 0138 0427     		movs	r7, #4
 1229 013a CEE7     		b	.L81
 1230              	.L121:
 1231 013c 4027     		movs	r7, #64
 1232 013e CCE7     		b	.L81
 1233              	.L122:
 1234 0140 4FF48067 		mov	r7, #1024
 1235 0144 C9E7     		b	.L81
 1236              	.LVL60:
 1237              	.L197:
 539:Drivers/STM32F1xx_HAL_Driver/Src/stm32f1xx_hal_dma.c ****     {
 1238              		.loc 1 539 9 view .LVU356
 1239 0146 4FF40043 		mov	r3, #32768
 1240 014a 00E0     		b	.L84
 1241              	.L124:
 1242 014c 0823     		movs	r3, #8
 1243              	.L84:
 539:Drivers/STM32F1xx_HAL_Driver/Src/stm32f1xx_hal_dma.c ****     {
 1244              		.loc 1 539 69 discriminator 46 view .LVU357
ARM GAS  C:\Users\GKQ\AppData\Local\Temp\cccAG2jo.s 			page 44


 1245 014e 1A42     		tst	r2, r3
 1246 0150 14BF     		ite	ne
 1247 0152 0123     		movne	r3, #1
 1248 0154 0023     		moveq	r3, #0
 1249              	.L85:
 539:Drivers/STM32F1xx_HAL_Driver/Src/stm32f1xx_hal_dma.c ****     {
 1250              		.loc 1 539 7 discriminator 92 view .LVU358
 1251 0156 002B     		cmp	r3, #0
 1252 0158 40F09E80 		bne	.L194
 558:Drivers/STM32F1xx_HAL_Driver/Src/stm32f1xx_hal_dma.c ****     {
 1253              		.loc 1 558 5 is_stmt 1 view .LVU359
 558:Drivers/STM32F1xx_HAL_Driver/Src/stm32f1xx_hal_dma.c ****     {
 1254              		.loc 1 558 7 is_stmt 0 view .LVU360
 1255 015c B6F1FF3F 		cmp	r6, #-1
 1256 0160 40F0A980 		bne	.L195
 1257              	.L88:
 537:Drivers/STM32F1xx_HAL_Driver/Src/stm32f1xx_hal_dma.c ****   {
 1258              		.loc 1 537 8 is_stmt 1 view .LVU361
 537:Drivers/STM32F1xx_HAL_Driver/Src/stm32f1xx_hal_dma.c ****   {
 1259              		.loc 1 537 9 is_stmt 0 view .LVU362
 1260 0164 2368     		ldr	r3, [r4]
 1261 0166 1A46     		mov	r2, r3
 537:Drivers/STM32F1xx_HAL_Driver/Src/stm32f1xx_hal_dma.c ****   {
 1262              		.loc 1 537 40 view .LVU363
 1263 0168 614D     		ldr	r5, .L203+4
 1264 016a AB42     		cmp	r3, r5
 1265 016c 40F2B680 		bls	.L90
 537:Drivers/STM32F1xx_HAL_Driver/Src/stm32f1xx_hal_dma.c ****   {
 1266              		.loc 1 537 9 discriminator 1 view .LVU364
 1267 0170 6049     		ldr	r1, .L203+8
 1268 0172 0968     		ldr	r1, [r1]
 537:Drivers/STM32F1xx_HAL_Driver/Src/stm32f1xx_hal_dma.c ****   {
 1269              		.loc 1 537 40 discriminator 1 view .LVU365
 1270 0174 3942     		tst	r1, r7
 1271 0176 0CBF     		ite	eq
 1272 0178 0125     		moveq	r5, #1
 1273 017a 0025     		movne	r5, #0
 1274              	.L91:
 537:Drivers/STM32F1xx_HAL_Driver/Src/stm32f1xx_hal_dma.c ****   {
 1275              		.loc 1 537 8 discriminator 4 view .LVU366
 1276 017c 002D     		cmp	r5, #0
 1277 017e 00F0BD80 		beq	.L196
 539:Drivers/STM32F1xx_HAL_Driver/Src/stm32f1xx_hal_dma.c ****     {
 1278              		.loc 1 539 5 is_stmt 1 view .LVU367
 539:Drivers/STM32F1xx_HAL_Driver/Src/stm32f1xx_hal_dma.c ****     {
 1279              		.loc 1 539 69 is_stmt 0 view .LVU368
 1280 0182 5B4A     		ldr	r2, .L203+4
 1281 0184 9342     		cmp	r3, r2
 1282 0186 3FD9     		bls	.L83
 539:Drivers/STM32F1xx_HAL_Driver/Src/stm32f1xx_hal_dma.c ****     {
 1283              		.loc 1 539 9 discriminator 1 view .LVU369
 1284 0188 02F56072 		add	r2, r2, #896
 1285 018c 1268     		ldr	r2, [r2]
 1286 018e 5749     		ldr	r1, .L203
 1287 0190 8B42     		cmp	r3, r1
 1288 0192 DBD0     		beq	.L124
 539:Drivers/STM32F1xx_HAL_Driver/Src/stm32f1xx_hal_dma.c ****     {
ARM GAS  C:\Users\GKQ\AppData\Local\Temp\cccAG2jo.s 			page 45


 1289              		.loc 1 539 9 discriminator 3 view .LVU370
 1290 0194 1431     		adds	r1, r1, #20
 1291 0196 8B42     		cmp	r3, r1
 1292 0198 1ED0     		beq	.L125
 539:Drivers/STM32F1xx_HAL_Driver/Src/stm32f1xx_hal_dma.c ****     {
 1293              		.loc 1 539 9 discriminator 5 view .LVU371
 1294 019a 1431     		adds	r1, r1, #20
 1295 019c 8B42     		cmp	r3, r1
 1296 019e 1DD0     		beq	.L126
 539:Drivers/STM32F1xx_HAL_Driver/Src/stm32f1xx_hal_dma.c ****     {
 1297              		.loc 1 539 9 discriminator 7 view .LVU372
 1298 01a0 1431     		adds	r1, r1, #20
 1299 01a2 8B42     		cmp	r3, r1
 1300 01a4 1DD0     		beq	.L127
 539:Drivers/STM32F1xx_HAL_Driver/Src/stm32f1xx_hal_dma.c ****     {
 1301              		.loc 1 539 9 discriminator 9 view .LVU373
 1302 01a6 1431     		adds	r1, r1, #20
 1303 01a8 8B42     		cmp	r3, r1
 1304 01aa 1DD0     		beq	.L128
 539:Drivers/STM32F1xx_HAL_Driver/Src/stm32f1xx_hal_dma.c ****     {
 1305              		.loc 1 539 9 discriminator 11 view .LVU374
 1306 01ac 1431     		adds	r1, r1, #20
 1307 01ae 8B42     		cmp	r3, r1
 1308 01b0 1DD0     		beq	.L129
 539:Drivers/STM32F1xx_HAL_Driver/Src/stm32f1xx_hal_dma.c ****     {
 1309              		.loc 1 539 9 discriminator 13 view .LVU375
 1310 01b2 1431     		adds	r1, r1, #20
 1311 01b4 8B42     		cmp	r3, r1
 1312 01b6 1DD0     		beq	.L130
 539:Drivers/STM32F1xx_HAL_Driver/Src/stm32f1xx_hal_dma.c ****     {
 1313              		.loc 1 539 9 discriminator 15 view .LVU376
 1314 01b8 01F56271 		add	r1, r1, #904
 1315 01bc 8B42     		cmp	r3, r1
 1316 01be 1CD0     		beq	.L131
 539:Drivers/STM32F1xx_HAL_Driver/Src/stm32f1xx_hal_dma.c ****     {
 1317              		.loc 1 539 9 discriminator 17 view .LVU377
 1318 01c0 1431     		adds	r1, r1, #20
 1319 01c2 8B42     		cmp	r3, r1
 1320 01c4 1BD0     		beq	.L132
 539:Drivers/STM32F1xx_HAL_Driver/Src/stm32f1xx_hal_dma.c ****     {
 1321              		.loc 1 539 9 discriminator 19 view .LVU378
 1322 01c6 1431     		adds	r1, r1, #20
 1323 01c8 8B42     		cmp	r3, r1
 1324 01ca 1AD0     		beq	.L133
 539:Drivers/STM32F1xx_HAL_Driver/Src/stm32f1xx_hal_dma.c ****     {
 1325              		.loc 1 539 9 discriminator 21 view .LVU379
 1326 01cc 1431     		adds	r1, r1, #20
 1327 01ce 8B42     		cmp	r3, r1
 1328 01d0 B9D0     		beq	.L197
 539:Drivers/STM32F1xx_HAL_Driver/Src/stm32f1xx_hal_dma.c ****     {
 1329              		.loc 1 539 9 view .LVU380
 1330 01d2 4FF40023 		mov	r3, #524288
 1331 01d6 BAE7     		b	.L84
 1332              	.L125:
 1333 01d8 8023     		movs	r3, #128
 1334 01da B8E7     		b	.L84
 1335              	.L126:
ARM GAS  C:\Users\GKQ\AppData\Local\Temp\cccAG2jo.s 			page 46


 1336 01dc 4FF40063 		mov	r3, #2048
 1337 01e0 B5E7     		b	.L84
 1338              	.L127:
 1339 01e2 4FF40043 		mov	r3, #32768
 1340 01e6 B2E7     		b	.L84
 1341              	.L128:
 1342 01e8 4FF40023 		mov	r3, #524288
 1343 01ec AFE7     		b	.L84
 1344              	.L129:
 1345 01ee 4FF40003 		mov	r3, #8388608
 1346 01f2 ACE7     		b	.L84
 1347              	.L130:
 1348 01f4 4FF00063 		mov	r3, #134217728
 1349 01f8 A9E7     		b	.L84
 1350              	.L131:
 1351 01fa 0823     		movs	r3, #8
 1352 01fc A7E7     		b	.L84
 1353              	.L132:
 1354 01fe 8023     		movs	r3, #128
 1355 0200 A5E7     		b	.L84
 1356              	.L133:
 1357 0202 4FF40063 		mov	r3, #2048
 1358 0206 A2E7     		b	.L84
 1359              	.L83:
 539:Drivers/STM32F1xx_HAL_Driver/Src/stm32f1xx_hal_dma.c ****     {
 1360              		.loc 1 539 9 discriminator 2 view .LVU381
 1361 0208 3B4A     		ldr	r2, .L203+12
 1362 020a 1268     		ldr	r2, [r2]
 1363 020c 3749     		ldr	r1, .L203
 1364 020e 8B42     		cmp	r3, r1
 1365 0210 24D0     		beq	.L135
 539:Drivers/STM32F1xx_HAL_Driver/Src/stm32f1xx_hal_dma.c ****     {
 1366              		.loc 1 539 9 discriminator 48 view .LVU382
 1367 0212 1431     		adds	r1, r1, #20
 1368 0214 8B42     		cmp	r3, r1
 1369 0216 27D0     		beq	.L136
 539:Drivers/STM32F1xx_HAL_Driver/Src/stm32f1xx_hal_dma.c ****     {
 1370              		.loc 1 539 9 discriminator 50 view .LVU383
 1371 0218 1431     		adds	r1, r1, #20
 1372 021a 8B42     		cmp	r3, r1
 1373 021c 26D0     		beq	.L137
 539:Drivers/STM32F1xx_HAL_Driver/Src/stm32f1xx_hal_dma.c ****     {
 1374              		.loc 1 539 9 discriminator 52 view .LVU384
 1375 021e 1431     		adds	r1, r1, #20
 1376 0220 8B42     		cmp	r3, r1
 1377 0222 26D0     		beq	.L138
 539:Drivers/STM32F1xx_HAL_Driver/Src/stm32f1xx_hal_dma.c ****     {
 1378              		.loc 1 539 9 discriminator 54 view .LVU385
 1379 0224 1431     		adds	r1, r1, #20
 1380 0226 8B42     		cmp	r3, r1
 1381 0228 26D0     		beq	.L139
 539:Drivers/STM32F1xx_HAL_Driver/Src/stm32f1xx_hal_dma.c ****     {
 1382              		.loc 1 539 9 discriminator 56 view .LVU386
 1383 022a 1431     		adds	r1, r1, #20
 1384 022c 8B42     		cmp	r3, r1
 1385 022e 26D0     		beq	.L140
 539:Drivers/STM32F1xx_HAL_Driver/Src/stm32f1xx_hal_dma.c ****     {
ARM GAS  C:\Users\GKQ\AppData\Local\Temp\cccAG2jo.s 			page 47


 1386              		.loc 1 539 9 discriminator 58 view .LVU387
 1387 0230 1431     		adds	r1, r1, #20
 1388 0232 8B42     		cmp	r3, r1
 1389 0234 26D0     		beq	.L141
 539:Drivers/STM32F1xx_HAL_Driver/Src/stm32f1xx_hal_dma.c ****     {
 1390              		.loc 1 539 9 discriminator 60 view .LVU388
 1391 0236 01F56271 		add	r1, r1, #904
 1392 023a 8B42     		cmp	r3, r1
 1393 023c 25D0     		beq	.L142
 539:Drivers/STM32F1xx_HAL_Driver/Src/stm32f1xx_hal_dma.c ****     {
 1394              		.loc 1 539 9 discriminator 62 view .LVU389
 1395 023e 1431     		adds	r1, r1, #20
 1396 0240 8B42     		cmp	r3, r1
 1397 0242 24D0     		beq	.L143
 539:Drivers/STM32F1xx_HAL_Driver/Src/stm32f1xx_hal_dma.c ****     {
 1398              		.loc 1 539 9 discriminator 64 view .LVU390
 1399 0244 1431     		adds	r1, r1, #20
 1400 0246 8B42     		cmp	r3, r1
 1401 0248 23D0     		beq	.L144
 539:Drivers/STM32F1xx_HAL_Driver/Src/stm32f1xx_hal_dma.c ****     {
 1402              		.loc 1 539 9 discriminator 66 view .LVU391
 1403 024a 1431     		adds	r1, r1, #20
 1404 024c 8B42     		cmp	r3, r1
 1405 024e 02D0     		beq	.L198
 539:Drivers/STM32F1xx_HAL_Driver/Src/stm32f1xx_hal_dma.c ****     {
 1406              		.loc 1 539 9 view .LVU392
 1407 0250 4FF40023 		mov	r3, #524288
 1408 0254 03E0     		b	.L86
 1409              	.L198:
 1410 0256 4FF40043 		mov	r3, #32768
 1411 025a 00E0     		b	.L86
 1412              	.L135:
 1413 025c 0823     		movs	r3, #8
 1414              	.L86:
 539:Drivers/STM32F1xx_HAL_Driver/Src/stm32f1xx_hal_dma.c ****     {
 1415              		.loc 1 539 69 discriminator 91 view .LVU393
 1416 025e 1A42     		tst	r2, r3
 1417 0260 14BF     		ite	ne
 1418 0262 0123     		movne	r3, #1
 1419 0264 0023     		moveq	r3, #0
 1420 0266 76E7     		b	.L85
 1421              	.L136:
 539:Drivers/STM32F1xx_HAL_Driver/Src/stm32f1xx_hal_dma.c ****     {
 1422              		.loc 1 539 9 view .LVU394
 1423 0268 8023     		movs	r3, #128
 1424 026a F8E7     		b	.L86
 1425              	.L137:
 1426 026c 4FF40063 		mov	r3, #2048
 1427 0270 F5E7     		b	.L86
 1428              	.L138:
 1429 0272 4FF40043 		mov	r3, #32768
 1430 0276 F2E7     		b	.L86
 1431              	.L139:
 1432 0278 4FF40023 		mov	r3, #524288
 1433 027c EFE7     		b	.L86
 1434              	.L140:
 1435 027e 4FF40003 		mov	r3, #8388608
ARM GAS  C:\Users\GKQ\AppData\Local\Temp\cccAG2jo.s 			page 48


 1436 0282 ECE7     		b	.L86
 1437              	.L141:
 1438 0284 4FF00063 		mov	r3, #134217728
 1439 0288 E9E7     		b	.L86
 1440              	.L142:
 1441 028a 0823     		movs	r3, #8
 1442 028c E7E7     		b	.L86
 1443              	.L143:
 1444 028e 8023     		movs	r3, #128
 1445 0290 E5E7     		b	.L86
 1446              	.L144:
 1447 0292 4FF40063 		mov	r3, #2048
 1448 0296 E2E7     		b	.L86
 1449              	.L194:
 544:Drivers/STM32F1xx_HAL_Driver/Src/stm32f1xx_hal_dma.c **** 
 1450              		.loc 1 544 7 is_stmt 1 view .LVU395
 544:Drivers/STM32F1xx_HAL_Driver/Src/stm32f1xx_hal_dma.c **** 
 1451              		.loc 1 544 57 is_stmt 0 view .LVU396
 1452 0298 236C     		ldr	r3, [r4, #64]
 544:Drivers/STM32F1xx_HAL_Driver/Src/stm32f1xx_hal_dma.c **** 
 1453              		.loc 1 544 11 view .LVU397
 1454 029a E26B     		ldr	r2, [r4, #60]
 544:Drivers/STM32F1xx_HAL_Driver/Src/stm32f1xx_hal_dma.c **** 
 1455              		.loc 1 544 50 view .LVU398
 1456 029c 0120     		movs	r0, #1
 1457 029e 00FA03F3 		lsl	r3, r0, r3
 544:Drivers/STM32F1xx_HAL_Driver/Src/stm32f1xx_hal_dma.c **** 
 1458              		.loc 1 544 34 view .LVU399
 1459 02a2 5360     		str	r3, [r2, #4]
 547:Drivers/STM32F1xx_HAL_Driver/Src/stm32f1xx_hal_dma.c **** 
 1460              		.loc 1 547 7 is_stmt 1 view .LVU400
 1461 02a4 A36B     		ldr	r3, [r4, #56]
 1462 02a6 0343     		orrs	r3, r3, r0
 1463 02a8 A363     		str	r3, [r4, #56]
 550:Drivers/STM32F1xx_HAL_Driver/Src/stm32f1xx_hal_dma.c **** 
 1464              		.loc 1 550 7 view .LVU401
 550:Drivers/STM32F1xx_HAL_Driver/Src/stm32f1xx_hal_dma.c **** 
 1465              		.loc 1 550 18 is_stmt 0 view .LVU402
 1466 02aa 84F82100 		strb	r0, [r4, #33]
 553:Drivers/STM32F1xx_HAL_Driver/Src/stm32f1xx_hal_dma.c **** 
 1467              		.loc 1 553 7 is_stmt 1 view .LVU403
 553:Drivers/STM32F1xx_HAL_Driver/Src/stm32f1xx_hal_dma.c **** 
 1468              		.loc 1 553 7 view .LVU404
 1469 02ae 0023     		movs	r3, #0
 1470 02b0 84F82030 		strb	r3, [r4, #32]
 553:Drivers/STM32F1xx_HAL_Driver/Src/stm32f1xx_hal_dma.c **** 
 1471              		.loc 1 553 7 view .LVU405
 555:Drivers/STM32F1xx_HAL_Driver/Src/stm32f1xx_hal_dma.c ****     }
 1472              		.loc 1 555 7 view .LVU406
 555:Drivers/STM32F1xx_HAL_Driver/Src/stm32f1xx_hal_dma.c ****     }
 1473              		.loc 1 555 14 is_stmt 0 view .LVU407
 1474 02b4 B1E6     		b	.L78
 1475              	.L195:
 560:Drivers/STM32F1xx_HAL_Driver/Src/stm32f1xx_hal_dma.c ****       {
 1476              		.loc 1 560 7 is_stmt 1 view .LVU408
 560:Drivers/STM32F1xx_HAL_Driver/Src/stm32f1xx_hal_dma.c ****       {
 1477              		.loc 1 560 9 is_stmt 0 view .LVU409
ARM GAS  C:\Users\GKQ\AppData\Local\Temp\cccAG2jo.s 			page 49


 1478 02b6 36B1     		cbz	r6, .L89
 560:Drivers/STM32F1xx_HAL_Driver/Src/stm32f1xx_hal_dma.c ****       {
 1479              		.loc 1 560 31 discriminator 1 view .LVU410
 1480 02b8 FFF7FEFF 		bl	HAL_GetTick
 1481              	.LVL61:
 560:Drivers/STM32F1xx_HAL_Driver/Src/stm32f1xx_hal_dma.c ****       {
 1482              		.loc 1 560 45 discriminator 1 view .LVU411
 1483 02bc A0EB0900 		sub	r0, r0, r9
 560:Drivers/STM32F1xx_HAL_Driver/Src/stm32f1xx_hal_dma.c ****       {
 1484              		.loc 1 560 26 discriminator 1 view .LVU412
 1485 02c0 B042     		cmp	r0, r6
 1486 02c2 7FF64FAF 		bls	.L88
 1487              	.L89:
 563:Drivers/STM32F1xx_HAL_Driver/Src/stm32f1xx_hal_dma.c **** 
 1488              		.loc 1 563 9 is_stmt 1 view .LVU413
 1489 02c6 A36B     		ldr	r3, [r4, #56]
 1490 02c8 43F02003 		orr	r3, r3, #32
 1491 02cc A363     		str	r3, [r4, #56]
 566:Drivers/STM32F1xx_HAL_Driver/Src/stm32f1xx_hal_dma.c **** 
 1492              		.loc 1 566 9 view .LVU414
 566:Drivers/STM32F1xx_HAL_Driver/Src/stm32f1xx_hal_dma.c **** 
 1493              		.loc 1 566 21 is_stmt 0 view .LVU415
 1494 02ce 0120     		movs	r0, #1
 1495 02d0 84F82100 		strb	r0, [r4, #33]
 569:Drivers/STM32F1xx_HAL_Driver/Src/stm32f1xx_hal_dma.c **** 
 1496              		.loc 1 569 9 is_stmt 1 view .LVU416
 569:Drivers/STM32F1xx_HAL_Driver/Src/stm32f1xx_hal_dma.c **** 
 1497              		.loc 1 569 9 view .LVU417
 1498 02d4 0023     		movs	r3, #0
 1499 02d6 84F82030 		strb	r3, [r4, #32]
 569:Drivers/STM32F1xx_HAL_Driver/Src/stm32f1xx_hal_dma.c **** 
 1500              		.loc 1 569 9 view .LVU418
 571:Drivers/STM32F1xx_HAL_Driver/Src/stm32f1xx_hal_dma.c ****       }
 1501              		.loc 1 571 9 view .LVU419
 571:Drivers/STM32F1xx_HAL_Driver/Src/stm32f1xx_hal_dma.c ****       }
 1502              		.loc 1 571 16 is_stmt 0 view .LVU420
 1503 02da 9EE6     		b	.L78
 1504              	.L90:
 537:Drivers/STM32F1xx_HAL_Driver/Src/stm32f1xx_hal_dma.c ****   {
 1505              		.loc 1 537 9 discriminator 2 view .LVU421
 1506 02dc 0649     		ldr	r1, .L203+12
 1507 02de 0968     		ldr	r1, [r1]
 537:Drivers/STM32F1xx_HAL_Driver/Src/stm32f1xx_hal_dma.c ****   {
 1508              		.loc 1 537 40 discriminator 2 view .LVU422
 1509 02e0 3942     		tst	r1, r7
 1510 02e2 0CBF     		ite	eq
 1511 02e4 0125     		moveq	r5, #1
 1512 02e6 0025     		movne	r5, #0
 1513 02e8 48E7     		b	.L91
 1514              	.L204:
 1515 02ea 00BF     		.align	2
 1516              	.L203:
 1517 02ec 08000240 		.word	1073872904
 1518 02f0 80000240 		.word	1073873024
 1519 02f4 00040240 		.word	1073873920
 1520 02f8 00000240 		.word	1073872896
 1521              	.L196:
ARM GAS  C:\Users\GKQ\AppData\Local\Temp\cccAG2jo.s 			page 50


 576:Drivers/STM32F1xx_HAL_Driver/Src/stm32f1xx_hal_dma.c ****   {
 1522              		.loc 1 576 3 is_stmt 1 view .LVU423
 576:Drivers/STM32F1xx_HAL_Driver/Src/stm32f1xx_hal_dma.c ****   {
 1523              		.loc 1 576 5 is_stmt 0 view .LVU424
 1524 02fc B8F1000F 		cmp	r8, #0
 1525 0300 40F09080 		bne	.L93
 579:Drivers/STM32F1xx_HAL_Driver/Src/stm32f1xx_hal_dma.c **** 
 1526              		.loc 1 579 5 is_stmt 1 view .LVU425
 1527 0304 8C49     		ldr	r1, .L205
 1528 0306 8A42     		cmp	r2, r1
 1529 0308 48D9     		bls	.L94
 579:Drivers/STM32F1xx_HAL_Driver/Src/stm32f1xx_hal_dma.c **** 
 1530              		.loc 1 579 5 is_stmt 0 discriminator 1 view .LVU426
 1531 030a 8C4A     		ldr	r2, .L205+4
 1532 030c 9342     		cmp	r3, r2
 1533 030e 23D0     		beq	.L146
 579:Drivers/STM32F1xx_HAL_Driver/Src/stm32f1xx_hal_dma.c **** 
 1534              		.loc 1 579 5 discriminator 3 view .LVU427
 1535 0310 1432     		adds	r2, r2, #20
 1536 0312 9342     		cmp	r3, r2
 1537 0314 2AD0     		beq	.L147
 579:Drivers/STM32F1xx_HAL_Driver/Src/stm32f1xx_hal_dma.c **** 
 1538              		.loc 1 579 5 discriminator 5 view .LVU428
 1539 0316 1432     		adds	r2, r2, #20
 1540 0318 9342     		cmp	r3, r2
 1541 031a 29D0     		beq	.L148
 579:Drivers/STM32F1xx_HAL_Driver/Src/stm32f1xx_hal_dma.c **** 
 1542              		.loc 1 579 5 discriminator 7 view .LVU429
 1543 031c 1432     		adds	r2, r2, #20
 1544 031e 9342     		cmp	r3, r2
 1545 0320 29D0     		beq	.L149
 579:Drivers/STM32F1xx_HAL_Driver/Src/stm32f1xx_hal_dma.c **** 
 1546              		.loc 1 579 5 discriminator 9 view .LVU430
 1547 0322 1432     		adds	r2, r2, #20
 1548 0324 9342     		cmp	r3, r2
 1549 0326 29D0     		beq	.L150
 579:Drivers/STM32F1xx_HAL_Driver/Src/stm32f1xx_hal_dma.c **** 
 1550              		.loc 1 579 5 discriminator 11 view .LVU431
 1551 0328 1432     		adds	r2, r2, #20
 1552 032a 9342     		cmp	r3, r2
 1553 032c 29D0     		beq	.L151
 579:Drivers/STM32F1xx_HAL_Driver/Src/stm32f1xx_hal_dma.c **** 
 1554              		.loc 1 579 5 discriminator 13 view .LVU432
 1555 032e 8B42     		cmp	r3, r1
 1556 0330 2AD0     		beq	.L152
 579:Drivers/STM32F1xx_HAL_Driver/Src/stm32f1xx_hal_dma.c **** 
 1557              		.loc 1 579 5 discriminator 15 view .LVU433
 1558 0332 01F56272 		add	r2, r1, #904
 1559 0336 9342     		cmp	r3, r2
 1560 0338 29D0     		beq	.L153
 579:Drivers/STM32F1xx_HAL_Driver/Src/stm32f1xx_hal_dma.c **** 
 1561              		.loc 1 579 5 discriminator 17 view .LVU434
 1562 033a 1432     		adds	r2, r2, #20
 1563 033c 9342     		cmp	r3, r2
 1564 033e 28D0     		beq	.L154
 579:Drivers/STM32F1xx_HAL_Driver/Src/stm32f1xx_hal_dma.c **** 
 1565              		.loc 1 579 5 discriminator 19 view .LVU435
ARM GAS  C:\Users\GKQ\AppData\Local\Temp\cccAG2jo.s 			page 51


 1566 0340 1432     		adds	r2, r2, #20
 1567 0342 9342     		cmp	r3, r2
 1568 0344 27D0     		beq	.L155
 579:Drivers/STM32F1xx_HAL_Driver/Src/stm32f1xx_hal_dma.c **** 
 1569              		.loc 1 579 5 discriminator 21 view .LVU436
 1570 0346 1432     		adds	r2, r2, #20
 1571 0348 9342     		cmp	r3, r2
 1572 034a 02D0     		beq	.L199
 579:Drivers/STM32F1xx_HAL_Driver/Src/stm32f1xx_hal_dma.c **** 
 1573              		.loc 1 579 5 view .LVU437
 1574 034c 4FF40033 		mov	r3, #131072
 1575 0350 03E0     		b	.L95
 1576              	.L199:
 1577 0352 4FF40053 		mov	r3, #8192
 1578 0356 00E0     		b	.L95
 1579              	.L146:
 1580 0358 0223     		movs	r3, #2
 1581              	.L95:
 579:Drivers/STM32F1xx_HAL_Driver/Src/stm32f1xx_hal_dma.c **** 
 1582              		.loc 1 579 5 discriminator 46 view .LVU438
 1583 035a 794A     		ldr	r2, .L205+8
 1584 035c 5360     		str	r3, [r2, #4]
 1585              	.L96:
 583:Drivers/STM32F1xx_HAL_Driver/Src/stm32f1xx_hal_dma.c ****   }
 1586              		.loc 1 583 5 is_stmt 1 view .LVU439
 583:Drivers/STM32F1xx_HAL_Driver/Src/stm32f1xx_hal_dma.c ****   }
 1587              		.loc 1 583 17 is_stmt 0 view .LVU440
 1588 035e 0123     		movs	r3, #1
 1589 0360 84F82130 		strb	r3, [r4, #33]
 1590              	.L98:
 592:Drivers/STM32F1xx_HAL_Driver/Src/stm32f1xx_hal_dma.c **** 
 1591              		.loc 1 592 3 is_stmt 1 view .LVU441
 592:Drivers/STM32F1xx_HAL_Driver/Src/stm32f1xx_hal_dma.c **** 
 1592              		.loc 1 592 3 view .LVU442
 1593 0364 0020     		movs	r0, #0
 1594 0366 84F82000 		strb	r0, [r4, #32]
 592:Drivers/STM32F1xx_HAL_Driver/Src/stm32f1xx_hal_dma.c **** 
 1595              		.loc 1 592 3 view .LVU443
 594:Drivers/STM32F1xx_HAL_Driver/Src/stm32f1xx_hal_dma.c **** }
 1596              		.loc 1 594 3 view .LVU444
 594:Drivers/STM32F1xx_HAL_Driver/Src/stm32f1xx_hal_dma.c **** }
 1597              		.loc 1 594 10 is_stmt 0 view .LVU445
 1598 036a 56E6     		b	.L78
 1599              	.L147:
 579:Drivers/STM32F1xx_HAL_Driver/Src/stm32f1xx_hal_dma.c **** 
 1600              		.loc 1 579 5 view .LVU446
 1601 036c 2023     		movs	r3, #32
 1602 036e F4E7     		b	.L95
 1603              	.L148:
 1604 0370 4FF40073 		mov	r3, #512
 1605 0374 F1E7     		b	.L95
 1606              	.L149:
 1607 0376 4FF40053 		mov	r3, #8192
 1608 037a EEE7     		b	.L95
 1609              	.L150:
 1610 037c 4FF40033 		mov	r3, #131072
 1611 0380 EBE7     		b	.L95
ARM GAS  C:\Users\GKQ\AppData\Local\Temp\cccAG2jo.s 			page 52


 1612              	.L151:
 1613 0382 4FF40013 		mov	r3, #2097152
 1614 0386 E8E7     		b	.L95
 1615              	.L152:
 1616 0388 4FF00073 		mov	r3, #33554432
 1617 038c E5E7     		b	.L95
 1618              	.L153:
 1619 038e 0223     		movs	r3, #2
 1620 0390 E3E7     		b	.L95
 1621              	.L154:
 1622 0392 2023     		movs	r3, #32
 1623 0394 E1E7     		b	.L95
 1624              	.L155:
 1625 0396 4FF40073 		mov	r3, #512
 1626 039a DEE7     		b	.L95
 1627              	.L94:
 579:Drivers/STM32F1xx_HAL_Driver/Src/stm32f1xx_hal_dma.c **** 
 1628              		.loc 1 579 5 discriminator 2 view .LVU447
 1629 039c 674A     		ldr	r2, .L205+4
 1630 039e 9342     		cmp	r3, r2
 1631 03a0 24D0     		beq	.L157
 579:Drivers/STM32F1xx_HAL_Driver/Src/stm32f1xx_hal_dma.c **** 
 1632              		.loc 1 579 5 discriminator 47 view .LVU448
 1633 03a2 1432     		adds	r2, r2, #20
 1634 03a4 9342     		cmp	r3, r2
 1635 03a6 25D0     		beq	.L158
 579:Drivers/STM32F1xx_HAL_Driver/Src/stm32f1xx_hal_dma.c **** 
 1636              		.loc 1 579 5 discriminator 49 view .LVU449
 1637 03a8 1432     		adds	r2, r2, #20
 1638 03aa 9342     		cmp	r3, r2
 1639 03ac 24D0     		beq	.L159
 579:Drivers/STM32F1xx_HAL_Driver/Src/stm32f1xx_hal_dma.c **** 
 1640              		.loc 1 579 5 discriminator 51 view .LVU450
 1641 03ae 1432     		adds	r2, r2, #20
 1642 03b0 9342     		cmp	r3, r2
 1643 03b2 24D0     		beq	.L160
 579:Drivers/STM32F1xx_HAL_Driver/Src/stm32f1xx_hal_dma.c **** 
 1644              		.loc 1 579 5 discriminator 53 view .LVU451
 1645 03b4 1432     		adds	r2, r2, #20
 1646 03b6 9342     		cmp	r3, r2
 1647 03b8 24D0     		beq	.L161
 579:Drivers/STM32F1xx_HAL_Driver/Src/stm32f1xx_hal_dma.c **** 
 1648              		.loc 1 579 5 discriminator 55 view .LVU452
 1649 03ba 1432     		adds	r2, r2, #20
 1650 03bc 9342     		cmp	r3, r2
 1651 03be 24D0     		beq	.L162
 579:Drivers/STM32F1xx_HAL_Driver/Src/stm32f1xx_hal_dma.c **** 
 1652              		.loc 1 579 5 discriminator 57 view .LVU453
 1653 03c0 1432     		adds	r2, r2, #20
 1654 03c2 9342     		cmp	r3, r2
 1655 03c4 24D0     		beq	.L163
 579:Drivers/STM32F1xx_HAL_Driver/Src/stm32f1xx_hal_dma.c **** 
 1656              		.loc 1 579 5 discriminator 59 view .LVU454
 1657 03c6 02F56272 		add	r2, r2, #904
 1658 03ca 9342     		cmp	r3, r2
 1659 03cc 23D0     		beq	.L164
 579:Drivers/STM32F1xx_HAL_Driver/Src/stm32f1xx_hal_dma.c **** 
ARM GAS  C:\Users\GKQ\AppData\Local\Temp\cccAG2jo.s 			page 53


 1660              		.loc 1 579 5 discriminator 61 view .LVU455
 1661 03ce 1432     		adds	r2, r2, #20
 1662 03d0 9342     		cmp	r3, r2
 1663 03d2 22D0     		beq	.L165
 579:Drivers/STM32F1xx_HAL_Driver/Src/stm32f1xx_hal_dma.c **** 
 1664              		.loc 1 579 5 discriminator 63 view .LVU456
 1665 03d4 1432     		adds	r2, r2, #20
 1666 03d6 9342     		cmp	r3, r2
 1667 03d8 21D0     		beq	.L166
 579:Drivers/STM32F1xx_HAL_Driver/Src/stm32f1xx_hal_dma.c **** 
 1668              		.loc 1 579 5 discriminator 65 view .LVU457
 1669 03da 1432     		adds	r2, r2, #20
 1670 03dc 9342     		cmp	r3, r2
 1671 03de 02D0     		beq	.L200
 579:Drivers/STM32F1xx_HAL_Driver/Src/stm32f1xx_hal_dma.c **** 
 1672              		.loc 1 579 5 view .LVU458
 1673 03e0 4FF40033 		mov	r3, #131072
 1674 03e4 03E0     		b	.L97
 1675              	.L200:
 1676 03e6 4FF40053 		mov	r3, #8192
 1677 03ea 00E0     		b	.L97
 1678              	.L157:
 1679 03ec 0223     		movs	r3, #2
 1680              	.L97:
 579:Drivers/STM32F1xx_HAL_Driver/Src/stm32f1xx_hal_dma.c **** 
 1681              		.loc 1 579 5 discriminator 90 view .LVU459
 1682 03ee 554A     		ldr	r2, .L205+12
 1683 03f0 5360     		str	r3, [r2, #4]
 1684 03f2 B4E7     		b	.L96
 1685              	.L158:
 579:Drivers/STM32F1xx_HAL_Driver/Src/stm32f1xx_hal_dma.c **** 
 1686              		.loc 1 579 5 view .LVU460
 1687 03f4 2023     		movs	r3, #32
 1688 03f6 FAE7     		b	.L97
 1689              	.L159:
 1690 03f8 4FF40073 		mov	r3, #512
 1691 03fc F7E7     		b	.L97
 1692              	.L160:
 1693 03fe 4FF40053 		mov	r3, #8192
 1694 0402 F4E7     		b	.L97
 1695              	.L161:
 1696 0404 4FF40033 		mov	r3, #131072
 1697 0408 F1E7     		b	.L97
 1698              	.L162:
 1699 040a 4FF40013 		mov	r3, #2097152
 1700 040e EEE7     		b	.L97
 1701              	.L163:
 1702 0410 4FF00073 		mov	r3, #33554432
 1703 0414 EBE7     		b	.L97
 1704              	.L164:
 1705 0416 0223     		movs	r3, #2
 1706 0418 E9E7     		b	.L97
 1707              	.L165:
 1708 041a 2023     		movs	r3, #32
 1709 041c E7E7     		b	.L97
 1710              	.L166:
 1711 041e 4FF40073 		mov	r3, #512
ARM GAS  C:\Users\GKQ\AppData\Local\Temp\cccAG2jo.s 			page 54


 1712 0422 E4E7     		b	.L97
 1713              	.L93:
 588:Drivers/STM32F1xx_HAL_Driver/Src/stm32f1xx_hal_dma.c ****   }
 1714              		.loc 1 588 5 is_stmt 1 view .LVU461
 1715 0424 4449     		ldr	r1, .L205
 1716 0426 8A42     		cmp	r2, r1
 1717 0428 42D9     		bls	.L99
 588:Drivers/STM32F1xx_HAL_Driver/Src/stm32f1xx_hal_dma.c ****   }
 1718              		.loc 1 588 5 is_stmt 0 discriminator 1 view .LVU462
 1719 042a 444A     		ldr	r2, .L205+4
 1720 042c 9342     		cmp	r3, r2
 1721 042e 23D0     		beq	.L168
 588:Drivers/STM32F1xx_HAL_Driver/Src/stm32f1xx_hal_dma.c ****   }
 1722              		.loc 1 588 5 discriminator 3 view .LVU463
 1723 0430 1432     		adds	r2, r2, #20
 1724 0432 9342     		cmp	r3, r2
 1725 0434 24D0     		beq	.L169
 588:Drivers/STM32F1xx_HAL_Driver/Src/stm32f1xx_hal_dma.c ****   }
 1726              		.loc 1 588 5 discriminator 5 view .LVU464
 1727 0436 1432     		adds	r2, r2, #20
 1728 0438 9342     		cmp	r3, r2
 1729 043a 23D0     		beq	.L170
 588:Drivers/STM32F1xx_HAL_Driver/Src/stm32f1xx_hal_dma.c ****   }
 1730              		.loc 1 588 5 discriminator 7 view .LVU465
 1731 043c 1432     		adds	r2, r2, #20
 1732 043e 9342     		cmp	r3, r2
 1733 0440 23D0     		beq	.L171
 588:Drivers/STM32F1xx_HAL_Driver/Src/stm32f1xx_hal_dma.c ****   }
 1734              		.loc 1 588 5 discriminator 9 view .LVU466
 1735 0442 1432     		adds	r2, r2, #20
 1736 0444 9342     		cmp	r3, r2
 1737 0446 23D0     		beq	.L172
 588:Drivers/STM32F1xx_HAL_Driver/Src/stm32f1xx_hal_dma.c ****   }
 1738              		.loc 1 588 5 discriminator 11 view .LVU467
 1739 0448 1432     		adds	r2, r2, #20
 1740 044a 9342     		cmp	r3, r2
 1741 044c 23D0     		beq	.L173
 588:Drivers/STM32F1xx_HAL_Driver/Src/stm32f1xx_hal_dma.c ****   }
 1742              		.loc 1 588 5 discriminator 13 view .LVU468
 1743 044e 8B42     		cmp	r3, r1
 1744 0450 24D0     		beq	.L174
 588:Drivers/STM32F1xx_HAL_Driver/Src/stm32f1xx_hal_dma.c ****   }
 1745              		.loc 1 588 5 discriminator 15 view .LVU469
 1746 0452 01F56272 		add	r2, r1, #904
 1747 0456 9342     		cmp	r3, r2
 1748 0458 23D0     		beq	.L175
 588:Drivers/STM32F1xx_HAL_Driver/Src/stm32f1xx_hal_dma.c ****   }
 1749              		.loc 1 588 5 discriminator 17 view .LVU470
 1750 045a 1432     		adds	r2, r2, #20
 1751 045c 9342     		cmp	r3, r2
 1752 045e 22D0     		beq	.L176
 588:Drivers/STM32F1xx_HAL_Driver/Src/stm32f1xx_hal_dma.c ****   }
 1753              		.loc 1 588 5 discriminator 19 view .LVU471
 1754 0460 1432     		adds	r2, r2, #20
 1755 0462 9342     		cmp	r3, r2
 1756 0464 21D0     		beq	.L177
 588:Drivers/STM32F1xx_HAL_Driver/Src/stm32f1xx_hal_dma.c ****   }
ARM GAS  C:\Users\GKQ\AppData\Local\Temp\cccAG2jo.s 			page 55


 1757              		.loc 1 588 5 discriminator 21 view .LVU472
 1758 0466 1432     		adds	r2, r2, #20
 1759 0468 9342     		cmp	r3, r2
 1760 046a 02D0     		beq	.L201
 588:Drivers/STM32F1xx_HAL_Driver/Src/stm32f1xx_hal_dma.c ****   }
 1761              		.loc 1 588 5 view .LVU473
 1762 046c 4FF48023 		mov	r3, #262144
 1763 0470 03E0     		b	.L100
 1764              	.L201:
 1765 0472 4FF48043 		mov	r3, #16384
 1766 0476 00E0     		b	.L100
 1767              	.L168:
 1768 0478 0423     		movs	r3, #4
 1769              	.L100:
 588:Drivers/STM32F1xx_HAL_Driver/Src/stm32f1xx_hal_dma.c ****   }
 1770              		.loc 1 588 5 discriminator 46 view .LVU474
 1771 047a 314A     		ldr	r2, .L205+8
 1772 047c 5360     		str	r3, [r2, #4]
 1773 047e 71E7     		b	.L98
 1774              	.L169:
 588:Drivers/STM32F1xx_HAL_Driver/Src/stm32f1xx_hal_dma.c ****   }
 1775              		.loc 1 588 5 view .LVU475
 1776 0480 4023     		movs	r3, #64
 1777 0482 FAE7     		b	.L100
 1778              	.L170:
 1779 0484 4FF48063 		mov	r3, #1024
 1780 0488 F7E7     		b	.L100
 1781              	.L171:
 1782 048a 4FF48043 		mov	r3, #16384
 1783 048e F4E7     		b	.L100
 1784              	.L172:
 1785 0490 4FF48023 		mov	r3, #262144
 1786 0494 F1E7     		b	.L100
 1787              	.L173:
 1788 0496 4FF48003 		mov	r3, #4194304
 1789 049a EEE7     		b	.L100
 1790              	.L174:
 1791 049c 4FF08063 		mov	r3, #67108864
 1792 04a0 EBE7     		b	.L100
 1793              	.L175:
 1794 04a2 0423     		movs	r3, #4
 1795 04a4 E9E7     		b	.L100
 1796              	.L176:
 1797 04a6 4023     		movs	r3, #64
 1798 04a8 E7E7     		b	.L100
 1799              	.L177:
 1800 04aa 4FF48063 		mov	r3, #1024
 1801 04ae E4E7     		b	.L100
 1802              	.L99:
 588:Drivers/STM32F1xx_HAL_Driver/Src/stm32f1xx_hal_dma.c ****   }
 1803              		.loc 1 588 5 discriminator 2 view .LVU476
 1804 04b0 224A     		ldr	r2, .L205+4
 1805 04b2 9342     		cmp	r3, r2
 1806 04b4 24D0     		beq	.L179
 588:Drivers/STM32F1xx_HAL_Driver/Src/stm32f1xx_hal_dma.c ****   }
 1807              		.loc 1 588 5 discriminator 47 view .LVU477
 1808 04b6 1432     		adds	r2, r2, #20
ARM GAS  C:\Users\GKQ\AppData\Local\Temp\cccAG2jo.s 			page 56


 1809 04b8 9342     		cmp	r3, r2
 1810 04ba 25D0     		beq	.L180
 588:Drivers/STM32F1xx_HAL_Driver/Src/stm32f1xx_hal_dma.c ****   }
 1811              		.loc 1 588 5 discriminator 49 view .LVU478
 1812 04bc 1432     		adds	r2, r2, #20
 1813 04be 9342     		cmp	r3, r2
 1814 04c0 24D0     		beq	.L181
 588:Drivers/STM32F1xx_HAL_Driver/Src/stm32f1xx_hal_dma.c ****   }
 1815              		.loc 1 588 5 discriminator 51 view .LVU479
 1816 04c2 1432     		adds	r2, r2, #20
 1817 04c4 9342     		cmp	r3, r2
 1818 04c6 24D0     		beq	.L182
 588:Drivers/STM32F1xx_HAL_Driver/Src/stm32f1xx_hal_dma.c ****   }
 1819              		.loc 1 588 5 discriminator 53 view .LVU480
 1820 04c8 1432     		adds	r2, r2, #20
 1821 04ca 9342     		cmp	r3, r2
 1822 04cc 24D0     		beq	.L183
 588:Drivers/STM32F1xx_HAL_Driver/Src/stm32f1xx_hal_dma.c ****   }
 1823              		.loc 1 588 5 discriminator 55 view .LVU481
 1824 04ce 1432     		adds	r2, r2, #20
 1825 04d0 9342     		cmp	r3, r2
 1826 04d2 24D0     		beq	.L184
 588:Drivers/STM32F1xx_HAL_Driver/Src/stm32f1xx_hal_dma.c ****   }
 1827              		.loc 1 588 5 discriminator 57 view .LVU482
 1828 04d4 1432     		adds	r2, r2, #20
 1829 04d6 9342     		cmp	r3, r2
 1830 04d8 24D0     		beq	.L185
 588:Drivers/STM32F1xx_HAL_Driver/Src/stm32f1xx_hal_dma.c ****   }
 1831              		.loc 1 588 5 discriminator 59 view .LVU483
 1832 04da 02F56272 		add	r2, r2, #904
 1833 04de 9342     		cmp	r3, r2
 1834 04e0 23D0     		beq	.L186
 588:Drivers/STM32F1xx_HAL_Driver/Src/stm32f1xx_hal_dma.c ****   }
 1835              		.loc 1 588 5 discriminator 61 view .LVU484
 1836 04e2 1432     		adds	r2, r2, #20
 1837 04e4 9342     		cmp	r3, r2
 1838 04e6 22D0     		beq	.L187
 588:Drivers/STM32F1xx_HAL_Driver/Src/stm32f1xx_hal_dma.c ****   }
 1839              		.loc 1 588 5 discriminator 63 view .LVU485
 1840 04e8 1432     		adds	r2, r2, #20
 1841 04ea 9342     		cmp	r3, r2
 1842 04ec 21D0     		beq	.L188
 588:Drivers/STM32F1xx_HAL_Driver/Src/stm32f1xx_hal_dma.c ****   }
 1843              		.loc 1 588 5 discriminator 65 view .LVU486
 1844 04ee 1432     		adds	r2, r2, #20
 1845 04f0 9342     		cmp	r3, r2
 1846 04f2 02D0     		beq	.L202
 588:Drivers/STM32F1xx_HAL_Driver/Src/stm32f1xx_hal_dma.c ****   }
 1847              		.loc 1 588 5 view .LVU487
 1848 04f4 4FF48023 		mov	r3, #262144
 1849 04f8 03E0     		b	.L101
 1850              	.L202:
 1851 04fa 4FF48043 		mov	r3, #16384
 1852 04fe 00E0     		b	.L101
 1853              	.L179:
 1854 0500 0423     		movs	r3, #4
 1855              	.L101:
ARM GAS  C:\Users\GKQ\AppData\Local\Temp\cccAG2jo.s 			page 57


 588:Drivers/STM32F1xx_HAL_Driver/Src/stm32f1xx_hal_dma.c ****   }
 1856              		.loc 1 588 5 discriminator 90 view .LVU488
 1857 0502 104A     		ldr	r2, .L205+12
 1858 0504 5360     		str	r3, [r2, #4]
 1859 0506 2DE7     		b	.L98
 1860              	.L180:
 588:Drivers/STM32F1xx_HAL_Driver/Src/stm32f1xx_hal_dma.c ****   }
 1861              		.loc 1 588 5 view .LVU489
 1862 0508 4023     		movs	r3, #64
 1863 050a FAE7     		b	.L101
 1864              	.L181:
 1865 050c 4FF48063 		mov	r3, #1024
 1866 0510 F7E7     		b	.L101
 1867              	.L182:
 1868 0512 4FF48043 		mov	r3, #16384
 1869 0516 F4E7     		b	.L101
 1870              	.L183:
 1871 0518 4FF48023 		mov	r3, #262144
 1872 051c F1E7     		b	.L101
 1873              	.L184:
 1874 051e 4FF48003 		mov	r3, #4194304
 1875 0522 EEE7     		b	.L101
 1876              	.L185:
 1877 0524 4FF08063 		mov	r3, #67108864
 1878 0528 EBE7     		b	.L101
 1879              	.L186:
 1880 052a 0423     		movs	r3, #4
 1881 052c E9E7     		b	.L101
 1882              	.L187:
 1883 052e 4023     		movs	r3, #64
 1884 0530 E7E7     		b	.L101
 1885              	.L188:
 1886 0532 4FF48063 		mov	r3, #1024
 1887 0536 E4E7     		b	.L101
 1888              	.L206:
 1889              		.align	2
 1890              	.L205:
 1891 0538 80000240 		.word	1073873024
 1892 053c 08000240 		.word	1073872904
 1893 0540 00040240 		.word	1073873920
 1894 0544 00000240 		.word	1073872896
 1895              		.cfi_endproc
 1896              	.LFE71:
 1898              		.section	.text.HAL_DMA_IRQHandler,"ax",%progbits
 1899              		.align	1
 1900              		.global	HAL_DMA_IRQHandler
 1901              		.syntax unified
 1902              		.thumb
 1903              		.thumb_func
 1904              		.fpu softvfp
 1906              	HAL_DMA_IRQHandler:
 1907              	.LVL62:
 1908              	.LFB72:
 604:Drivers/STM32F1xx_HAL_Driver/Src/stm32f1xx_hal_dma.c ****   uint32_t flag_it = hdma->DmaBaseAddress->ISR;
 1909              		.loc 1 604 1 is_stmt 1 view -0
 1910              		.cfi_startproc
 1911              		@ args = 0, pretend = 0, frame = 0
ARM GAS  C:\Users\GKQ\AppData\Local\Temp\cccAG2jo.s 			page 58


 1912              		@ frame_needed = 0, uses_anonymous_args = 0
 604:Drivers/STM32F1xx_HAL_Driver/Src/stm32f1xx_hal_dma.c ****   uint32_t flag_it = hdma->DmaBaseAddress->ISR;
 1913              		.loc 1 604 1 is_stmt 0 view .LVU491
 1914 0000 38B5     		push	{r3, r4, r5, lr}
 1915              	.LCFI11:
 1916              		.cfi_def_cfa_offset 16
 1917              		.cfi_offset 3, -16
 1918              		.cfi_offset 4, -12
 1919              		.cfi_offset 5, -8
 1920              		.cfi_offset 14, -4
 605:Drivers/STM32F1xx_HAL_Driver/Src/stm32f1xx_hal_dma.c ****   uint32_t source_it = hdma->Instance->CCR;
 1921              		.loc 1 605 3 is_stmt 1 view .LVU492
 605:Drivers/STM32F1xx_HAL_Driver/Src/stm32f1xx_hal_dma.c ****   uint32_t source_it = hdma->Instance->CCR;
 1922              		.loc 1 605 26 is_stmt 0 view .LVU493
 1923 0002 C36B     		ldr	r3, [r0, #60]
 605:Drivers/STM32F1xx_HAL_Driver/Src/stm32f1xx_hal_dma.c ****   uint32_t source_it = hdma->Instance->CCR;
 1924              		.loc 1 605 12 view .LVU494
 1925 0004 1A68     		ldr	r2, [r3]
 1926              	.LVL63:
 606:Drivers/STM32F1xx_HAL_Driver/Src/stm32f1xx_hal_dma.c ****   
 1927              		.loc 1 606 3 is_stmt 1 view .LVU495
 606:Drivers/STM32F1xx_HAL_Driver/Src/stm32f1xx_hal_dma.c ****   
 1928              		.loc 1 606 28 is_stmt 0 view .LVU496
 1929 0006 0468     		ldr	r4, [r0]
 606:Drivers/STM32F1xx_HAL_Driver/Src/stm32f1xx_hal_dma.c ****   
 1930              		.loc 1 606 12 view .LVU497
 1931 0008 2568     		ldr	r5, [r4]
 1932              	.LVL64:
 609:Drivers/STM32F1xx_HAL_Driver/Src/stm32f1xx_hal_dma.c ****   {
 1933              		.loc 1 609 3 is_stmt 1 view .LVU498
 609:Drivers/STM32F1xx_HAL_Driver/Src/stm32f1xx_hal_dma.c ****   {
 1934              		.loc 1 609 40 is_stmt 0 view .LVU499
 1935 000a 016C     		ldr	r1, [r0, #64]
 609:Drivers/STM32F1xx_HAL_Driver/Src/stm32f1xx_hal_dma.c ****   {
 1936              		.loc 1 609 33 view .LVU500
 1937 000c 0423     		movs	r3, #4
 1938 000e 8B40     		lsls	r3, r3, r1
 609:Drivers/STM32F1xx_HAL_Driver/Src/stm32f1xx_hal_dma.c ****   {
 1939              		.loc 1 609 6 view .LVU501
 1940 0010 1342     		tst	r3, r2
 1941 0012 00F09B80 		beq	.L208
 609:Drivers/STM32F1xx_HAL_Driver/Src/stm32f1xx_hal_dma.c ****   {
 1942              		.loc 1 609 67 discriminator 1 view .LVU502
 1943 0016 15F0040F 		tst	r5, #4
 1944 001a 00F09780 		beq	.L208
 612:Drivers/STM32F1xx_HAL_Driver/Src/stm32f1xx_hal_dma.c ****     {
 1945              		.loc 1 612 5 is_stmt 1 view .LVU503
 612:Drivers/STM32F1xx_HAL_Driver/Src/stm32f1xx_hal_dma.c ****     {
 1946              		.loc 1 612 23 is_stmt 0 view .LVU504
 1947 001e 2368     		ldr	r3, [r4]
 612:Drivers/STM32F1xx_HAL_Driver/Src/stm32f1xx_hal_dma.c ****     {
 1948              		.loc 1 612 7 view .LVU505
 1949 0020 13F0200F 		tst	r3, #32
 1950 0024 03D1     		bne	.L209
 615:Drivers/STM32F1xx_HAL_Driver/Src/stm32f1xx_hal_dma.c ****     }
 1951              		.loc 1 615 7 is_stmt 1 view .LVU506
 1952 0026 2368     		ldr	r3, [r4]
ARM GAS  C:\Users\GKQ\AppData\Local\Temp\cccAG2jo.s 			page 59


 1953 0028 23F00403 		bic	r3, r3, #4
 1954 002c 2360     		str	r3, [r4]
 1955              	.L209:
 618:Drivers/STM32F1xx_HAL_Driver/Src/stm32f1xx_hal_dma.c **** 
 1956              		.loc 1 618 5 view .LVU507
 1957 002e 0368     		ldr	r3, [r0]
 1958 0030 AA4A     		ldr	r2, .L270
 1959              	.LVL65:
 618:Drivers/STM32F1xx_HAL_Driver/Src/stm32f1xx_hal_dma.c **** 
 1960              		.loc 1 618 5 is_stmt 0 view .LVU508
 1961 0032 9342     		cmp	r3, r2
 1962 0034 46D9     		bls	.L210
 618:Drivers/STM32F1xx_HAL_Driver/Src/stm32f1xx_hal_dma.c **** 
 1963              		.loc 1 618 5 discriminator 1 view .LVU509
 1964 0036 783A     		subs	r2, r2, #120
 1965 0038 9342     		cmp	r3, r2
 1966 003a 24D0     		beq	.L221
 618:Drivers/STM32F1xx_HAL_Driver/Src/stm32f1xx_hal_dma.c **** 
 1967              		.loc 1 618 5 discriminator 3 view .LVU510
 1968 003c 1432     		adds	r2, r2, #20
 1969 003e 9342     		cmp	r3, r2
 1970 0040 28D0     		beq	.L222
 618:Drivers/STM32F1xx_HAL_Driver/Src/stm32f1xx_hal_dma.c **** 
 1971              		.loc 1 618 5 discriminator 5 view .LVU511
 1972 0042 1432     		adds	r2, r2, #20
 1973 0044 9342     		cmp	r3, r2
 1974 0046 27D0     		beq	.L223
 618:Drivers/STM32F1xx_HAL_Driver/Src/stm32f1xx_hal_dma.c **** 
 1975              		.loc 1 618 5 discriminator 7 view .LVU512
 1976 0048 1432     		adds	r2, r2, #20
 1977 004a 9342     		cmp	r3, r2
 1978 004c 27D0     		beq	.L224
 618:Drivers/STM32F1xx_HAL_Driver/Src/stm32f1xx_hal_dma.c **** 
 1979              		.loc 1 618 5 discriminator 9 view .LVU513
 1980 004e 1432     		adds	r2, r2, #20
 1981 0050 9342     		cmp	r3, r2
 1982 0052 27D0     		beq	.L225
 618:Drivers/STM32F1xx_HAL_Driver/Src/stm32f1xx_hal_dma.c **** 
 1983              		.loc 1 618 5 discriminator 11 view .LVU514
 1984 0054 1432     		adds	r2, r2, #20
 1985 0056 9342     		cmp	r3, r2
 1986 0058 27D0     		beq	.L226
 618:Drivers/STM32F1xx_HAL_Driver/Src/stm32f1xx_hal_dma.c **** 
 1987              		.loc 1 618 5 discriminator 13 view .LVU515
 1988 005a 1432     		adds	r2, r2, #20
 1989 005c 9342     		cmp	r3, r2
 1990 005e 27D0     		beq	.L227
 618:Drivers/STM32F1xx_HAL_Driver/Src/stm32f1xx_hal_dma.c **** 
 1991              		.loc 1 618 5 discriminator 15 view .LVU516
 1992 0060 02F56272 		add	r2, r2, #904
 1993 0064 9342     		cmp	r3, r2
 1994 0066 26D0     		beq	.L228
 618:Drivers/STM32F1xx_HAL_Driver/Src/stm32f1xx_hal_dma.c **** 
 1995              		.loc 1 618 5 discriminator 17 view .LVU517
 1996 0068 1432     		adds	r2, r2, #20
 1997 006a 9342     		cmp	r3, r2
 1998 006c 25D0     		beq	.L229
ARM GAS  C:\Users\GKQ\AppData\Local\Temp\cccAG2jo.s 			page 60


 618:Drivers/STM32F1xx_HAL_Driver/Src/stm32f1xx_hal_dma.c **** 
 1999              		.loc 1 618 5 discriminator 19 view .LVU518
 2000 006e 1432     		adds	r2, r2, #20
 2001 0070 9342     		cmp	r3, r2
 2002 0072 24D0     		beq	.L230
 618:Drivers/STM32F1xx_HAL_Driver/Src/stm32f1xx_hal_dma.c **** 
 2003              		.loc 1 618 5 discriminator 21 view .LVU519
 2004 0074 1432     		adds	r2, r2, #20
 2005 0076 9342     		cmp	r3, r2
 2006 0078 02D0     		beq	.L266
 618:Drivers/STM32F1xx_HAL_Driver/Src/stm32f1xx_hal_dma.c **** 
 2007              		.loc 1 618 5 view .LVU520
 2008 007a 4FF48022 		mov	r2, #262144
 2009 007e 03E0     		b	.L211
 2010              	.L266:
 2011 0080 4FF48042 		mov	r2, #16384
 2012 0084 00E0     		b	.L211
 2013              	.L221:
 2014 0086 0422     		movs	r2, #4
 2015              	.L211:
 618:Drivers/STM32F1xx_HAL_Driver/Src/stm32f1xx_hal_dma.c **** 
 2016              		.loc 1 618 5 discriminator 46 view .LVU521
 2017 0088 954B     		ldr	r3, .L270+4
 2018 008a 5A60     		str	r2, [r3, #4]
 2019              	.L212:
 623:Drivers/STM32F1xx_HAL_Driver/Src/stm32f1xx_hal_dma.c ****     {
 2020              		.loc 1 623 5 is_stmt 1 view .LVU522
 623:Drivers/STM32F1xx_HAL_Driver/Src/stm32f1xx_hal_dma.c ****     {
 2021              		.loc 1 623 12 is_stmt 0 view .LVU523
 2022 008c C36A     		ldr	r3, [r0, #44]
 623:Drivers/STM32F1xx_HAL_Driver/Src/stm32f1xx_hal_dma.c ****     {
 2023              		.loc 1 623 7 view .LVU524
 2024 008e 03B1     		cbz	r3, .L207
 626:Drivers/STM32F1xx_HAL_Driver/Src/stm32f1xx_hal_dma.c ****     }
 2025              		.loc 1 626 7 is_stmt 1 view .LVU525
 2026 0090 9847     		blx	r3
 2027              	.LVL66:
 2028              	.L207:
 681:Drivers/STM32F1xx_HAL_Driver/Src/stm32f1xx_hal_dma.c **** 
 2029              		.loc 1 681 1 is_stmt 0 view .LVU526
 2030 0092 38BD     		pop	{r3, r4, r5, pc}
 2031              	.LVL67:
 2032              	.L222:
 618:Drivers/STM32F1xx_HAL_Driver/Src/stm32f1xx_hal_dma.c **** 
 2033              		.loc 1 618 5 view .LVU527
 2034 0094 4022     		movs	r2, #64
 2035 0096 F7E7     		b	.L211
 2036              	.L223:
 2037 0098 4FF48062 		mov	r2, #1024
 2038 009c F4E7     		b	.L211
 2039              	.L224:
 2040 009e 4FF48042 		mov	r2, #16384
 2041 00a2 F1E7     		b	.L211
 2042              	.L225:
 2043 00a4 4FF48022 		mov	r2, #262144
 2044 00a8 EEE7     		b	.L211
 2045              	.L226:
ARM GAS  C:\Users\GKQ\AppData\Local\Temp\cccAG2jo.s 			page 61


 2046 00aa 4FF48002 		mov	r2, #4194304
 2047 00ae EBE7     		b	.L211
 2048              	.L227:
 2049 00b0 4FF08062 		mov	r2, #67108864
 2050 00b4 E8E7     		b	.L211
 2051              	.L228:
 2052 00b6 0422     		movs	r2, #4
 2053 00b8 E6E7     		b	.L211
 2054              	.L229:
 2055 00ba 4022     		movs	r2, #64
 2056 00bc E4E7     		b	.L211
 2057              	.L230:
 2058 00be 4FF48062 		mov	r2, #1024
 2059 00c2 E1E7     		b	.L211
 2060              	.L210:
 618:Drivers/STM32F1xx_HAL_Driver/Src/stm32f1xx_hal_dma.c **** 
 2061              		.loc 1 618 5 discriminator 2 view .LVU528
 2062 00c4 874A     		ldr	r2, .L270+8
 2063 00c6 9342     		cmp	r3, r2
 2064 00c8 24D0     		beq	.L232
 618:Drivers/STM32F1xx_HAL_Driver/Src/stm32f1xx_hal_dma.c **** 
 2065              		.loc 1 618 5 discriminator 47 view .LVU529
 2066 00ca 1432     		adds	r2, r2, #20
 2067 00cc 9342     		cmp	r3, r2
 2068 00ce 25D0     		beq	.L233
 618:Drivers/STM32F1xx_HAL_Driver/Src/stm32f1xx_hal_dma.c **** 
 2069              		.loc 1 618 5 discriminator 49 view .LVU530
 2070 00d0 1432     		adds	r2, r2, #20
 2071 00d2 9342     		cmp	r3, r2
 2072 00d4 24D0     		beq	.L234
 618:Drivers/STM32F1xx_HAL_Driver/Src/stm32f1xx_hal_dma.c **** 
 2073              		.loc 1 618 5 discriminator 51 view .LVU531
 2074 00d6 1432     		adds	r2, r2, #20
 2075 00d8 9342     		cmp	r3, r2
 2076 00da 24D0     		beq	.L235
 618:Drivers/STM32F1xx_HAL_Driver/Src/stm32f1xx_hal_dma.c **** 
 2077              		.loc 1 618 5 discriminator 53 view .LVU532
 2078 00dc 1432     		adds	r2, r2, #20
 2079 00de 9342     		cmp	r3, r2
 2080 00e0 24D0     		beq	.L236
 618:Drivers/STM32F1xx_HAL_Driver/Src/stm32f1xx_hal_dma.c **** 
 2081              		.loc 1 618 5 discriminator 55 view .LVU533
 2082 00e2 1432     		adds	r2, r2, #20
 2083 00e4 9342     		cmp	r3, r2
 2084 00e6 24D0     		beq	.L237
 618:Drivers/STM32F1xx_HAL_Driver/Src/stm32f1xx_hal_dma.c **** 
 2085              		.loc 1 618 5 discriminator 57 view .LVU534
 2086 00e8 1432     		adds	r2, r2, #20
 2087 00ea 9342     		cmp	r3, r2
 2088 00ec 24D0     		beq	.L238
 618:Drivers/STM32F1xx_HAL_Driver/Src/stm32f1xx_hal_dma.c **** 
 2089              		.loc 1 618 5 discriminator 59 view .LVU535
 2090 00ee 02F56272 		add	r2, r2, #904
 2091 00f2 9342     		cmp	r3, r2
 2092 00f4 23D0     		beq	.L239
 618:Drivers/STM32F1xx_HAL_Driver/Src/stm32f1xx_hal_dma.c **** 
 2093              		.loc 1 618 5 discriminator 61 view .LVU536
ARM GAS  C:\Users\GKQ\AppData\Local\Temp\cccAG2jo.s 			page 62


 2094 00f6 1432     		adds	r2, r2, #20
 2095 00f8 9342     		cmp	r3, r2
 2096 00fa 22D0     		beq	.L240
 618:Drivers/STM32F1xx_HAL_Driver/Src/stm32f1xx_hal_dma.c **** 
 2097              		.loc 1 618 5 discriminator 63 view .LVU537
 2098 00fc 1432     		adds	r2, r2, #20
 2099 00fe 9342     		cmp	r3, r2
 2100 0100 21D0     		beq	.L241
 618:Drivers/STM32F1xx_HAL_Driver/Src/stm32f1xx_hal_dma.c **** 
 2101              		.loc 1 618 5 discriminator 65 view .LVU538
 2102 0102 1432     		adds	r2, r2, #20
 2103 0104 9342     		cmp	r3, r2
 2104 0106 02D0     		beq	.L267
 618:Drivers/STM32F1xx_HAL_Driver/Src/stm32f1xx_hal_dma.c **** 
 2105              		.loc 1 618 5 view .LVU539
 2106 0108 4FF48022 		mov	r2, #262144
 2107 010c 03E0     		b	.L213
 2108              	.L267:
 2109 010e 4FF48042 		mov	r2, #16384
 2110 0112 00E0     		b	.L213
 2111              	.L232:
 2112 0114 0422     		movs	r2, #4
 2113              	.L213:
 618:Drivers/STM32F1xx_HAL_Driver/Src/stm32f1xx_hal_dma.c **** 
 2114              		.loc 1 618 5 discriminator 90 view .LVU540
 2115 0116 744B     		ldr	r3, .L270+12
 2116 0118 5A60     		str	r2, [r3, #4]
 2117 011a B7E7     		b	.L212
 2118              	.L233:
 618:Drivers/STM32F1xx_HAL_Driver/Src/stm32f1xx_hal_dma.c **** 
 2119              		.loc 1 618 5 view .LVU541
 2120 011c 4022     		movs	r2, #64
 2121 011e FAE7     		b	.L213
 2122              	.L234:
 2123 0120 4FF48062 		mov	r2, #1024
 2124 0124 F7E7     		b	.L213
 2125              	.L235:
 2126 0126 4FF48042 		mov	r2, #16384
 2127 012a F4E7     		b	.L213
 2128              	.L236:
 2129 012c 4FF48022 		mov	r2, #262144
 2130 0130 F1E7     		b	.L213
 2131              	.L237:
 2132 0132 4FF48002 		mov	r2, #4194304
 2133 0136 EEE7     		b	.L213
 2134              	.L238:
 2135 0138 4FF08062 		mov	r2, #67108864
 2136 013c EBE7     		b	.L213
 2137              	.L239:
 2138 013e 0422     		movs	r2, #4
 2139 0140 E9E7     		b	.L213
 2140              	.L240:
 2141 0142 4022     		movs	r2, #64
 2142 0144 E7E7     		b	.L213
 2143              	.L241:
 2144 0146 4FF48062 		mov	r2, #1024
 2145 014a E4E7     		b	.L213
ARM GAS  C:\Users\GKQ\AppData\Local\Temp\cccAG2jo.s 			page 63


 2146              	.LVL68:
 2147              	.L208:
 631:Drivers/STM32F1xx_HAL_Driver/Src/stm32f1xx_hal_dma.c ****   {
 2148              		.loc 1 631 8 is_stmt 1 view .LVU542
 631:Drivers/STM32F1xx_HAL_Driver/Src/stm32f1xx_hal_dma.c ****   {
 2149              		.loc 1 631 38 is_stmt 0 view .LVU543
 2150 014c 0223     		movs	r3, #2
 2151 014e 8B40     		lsls	r3, r3, r1
 631:Drivers/STM32F1xx_HAL_Driver/Src/stm32f1xx_hal_dma.c ****   {
 2152              		.loc 1 631 11 view .LVU544
 2153 0150 1342     		tst	r3, r2
 2154 0152 00F0A380 		beq	.L215
 631:Drivers/STM32F1xx_HAL_Driver/Src/stm32f1xx_hal_dma.c ****   {
 2155              		.loc 1 631 72 discriminator 1 view .LVU545
 2156 0156 15F0020F 		tst	r5, #2
 2157 015a 00F09F80 		beq	.L215
 633:Drivers/STM32F1xx_HAL_Driver/Src/stm32f1xx_hal_dma.c ****     {
 2158              		.loc 1 633 5 is_stmt 1 view .LVU546
 633:Drivers/STM32F1xx_HAL_Driver/Src/stm32f1xx_hal_dma.c ****     {
 2159              		.loc 1 633 23 is_stmt 0 view .LVU547
 2160 015e 2368     		ldr	r3, [r4]
 633:Drivers/STM32F1xx_HAL_Driver/Src/stm32f1xx_hal_dma.c ****     {
 2161              		.loc 1 633 7 view .LVU548
 2162 0160 13F0200F 		tst	r3, #32
 2163 0164 06D1     		bne	.L216
 636:Drivers/STM32F1xx_HAL_Driver/Src/stm32f1xx_hal_dma.c **** 
 2164              		.loc 1 636 7 is_stmt 1 view .LVU549
 2165 0166 2368     		ldr	r3, [r4]
 2166 0168 23F00A03 		bic	r3, r3, #10
 2167 016c 2360     		str	r3, [r4]
 639:Drivers/STM32F1xx_HAL_Driver/Src/stm32f1xx_hal_dma.c ****     }
 2168              		.loc 1 639 7 view .LVU550
 639:Drivers/STM32F1xx_HAL_Driver/Src/stm32f1xx_hal_dma.c ****     }
 2169              		.loc 1 639 19 is_stmt 0 view .LVU551
 2170 016e 0123     		movs	r3, #1
 2171 0170 80F82130 		strb	r3, [r0, #33]
 2172              	.L216:
 642:Drivers/STM32F1xx_HAL_Driver/Src/stm32f1xx_hal_dma.c **** 
 2173              		.loc 1 642 7 is_stmt 1 view .LVU552
 2174 0174 0368     		ldr	r3, [r0]
 2175 0176 594A     		ldr	r2, .L270
 2176              	.LVL69:
 642:Drivers/STM32F1xx_HAL_Driver/Src/stm32f1xx_hal_dma.c **** 
 2177              		.loc 1 642 7 is_stmt 0 view .LVU553
 2178 0178 9342     		cmp	r3, r2
 2179 017a 4BD9     		bls	.L217
 642:Drivers/STM32F1xx_HAL_Driver/Src/stm32f1xx_hal_dma.c **** 
 2180              		.loc 1 642 7 discriminator 1 view .LVU554
 2181 017c 783A     		subs	r2, r2, #120
 2182 017e 9342     		cmp	r3, r2
 2183 0180 24D0     		beq	.L243
 642:Drivers/STM32F1xx_HAL_Driver/Src/stm32f1xx_hal_dma.c **** 
 2184              		.loc 1 642 7 discriminator 3 view .LVU555
 2185 0182 1432     		adds	r2, r2, #20
 2186 0184 9342     		cmp	r3, r2
 2187 0186 2DD0     		beq	.L244
 642:Drivers/STM32F1xx_HAL_Driver/Src/stm32f1xx_hal_dma.c **** 
ARM GAS  C:\Users\GKQ\AppData\Local\Temp\cccAG2jo.s 			page 64


 2188              		.loc 1 642 7 discriminator 5 view .LVU556
 2189 0188 1432     		adds	r2, r2, #20
 2190 018a 9342     		cmp	r3, r2
 2191 018c 2CD0     		beq	.L245
 642:Drivers/STM32F1xx_HAL_Driver/Src/stm32f1xx_hal_dma.c **** 
 2192              		.loc 1 642 7 discriminator 7 view .LVU557
 2193 018e 1432     		adds	r2, r2, #20
 2194 0190 9342     		cmp	r3, r2
 2195 0192 2CD0     		beq	.L246
 642:Drivers/STM32F1xx_HAL_Driver/Src/stm32f1xx_hal_dma.c **** 
 2196              		.loc 1 642 7 discriminator 9 view .LVU558
 2197 0194 1432     		adds	r2, r2, #20
 2198 0196 9342     		cmp	r3, r2
 2199 0198 2CD0     		beq	.L247
 642:Drivers/STM32F1xx_HAL_Driver/Src/stm32f1xx_hal_dma.c **** 
 2200              		.loc 1 642 7 discriminator 11 view .LVU559
 2201 019a 1432     		adds	r2, r2, #20
 2202 019c 9342     		cmp	r3, r2
 2203 019e 2CD0     		beq	.L248
 642:Drivers/STM32F1xx_HAL_Driver/Src/stm32f1xx_hal_dma.c **** 
 2204              		.loc 1 642 7 discriminator 13 view .LVU560
 2205 01a0 1432     		adds	r2, r2, #20
 2206 01a2 9342     		cmp	r3, r2
 2207 01a4 2CD0     		beq	.L249
 642:Drivers/STM32F1xx_HAL_Driver/Src/stm32f1xx_hal_dma.c **** 
 2208              		.loc 1 642 7 discriminator 15 view .LVU561
 2209 01a6 02F56272 		add	r2, r2, #904
 2210 01aa 9342     		cmp	r3, r2
 2211 01ac 2BD0     		beq	.L250
 642:Drivers/STM32F1xx_HAL_Driver/Src/stm32f1xx_hal_dma.c **** 
 2212              		.loc 1 642 7 discriminator 17 view .LVU562
 2213 01ae 1432     		adds	r2, r2, #20
 2214 01b0 9342     		cmp	r3, r2
 2215 01b2 2AD0     		beq	.L251
 642:Drivers/STM32F1xx_HAL_Driver/Src/stm32f1xx_hal_dma.c **** 
 2216              		.loc 1 642 7 discriminator 19 view .LVU563
 2217 01b4 1432     		adds	r2, r2, #20
 2218 01b6 9342     		cmp	r3, r2
 2219 01b8 29D0     		beq	.L252
 642:Drivers/STM32F1xx_HAL_Driver/Src/stm32f1xx_hal_dma.c **** 
 2220              		.loc 1 642 7 discriminator 21 view .LVU564
 2221 01ba 1432     		adds	r2, r2, #20
 2222 01bc 9342     		cmp	r3, r2
 2223 01be 02D0     		beq	.L268
 642:Drivers/STM32F1xx_HAL_Driver/Src/stm32f1xx_hal_dma.c **** 
 2224              		.loc 1 642 7 view .LVU565
 2225 01c0 4FF40032 		mov	r2, #131072
 2226 01c4 03E0     		b	.L218
 2227              	.L268:
 2228 01c6 4FF40052 		mov	r2, #8192
 2229 01ca 00E0     		b	.L218
 2230              	.L243:
 2231 01cc 0222     		movs	r2, #2
 2232              	.L218:
 642:Drivers/STM32F1xx_HAL_Driver/Src/stm32f1xx_hal_dma.c **** 
 2233              		.loc 1 642 7 discriminator 46 view .LVU566
 2234 01ce 444B     		ldr	r3, .L270+4
ARM GAS  C:\Users\GKQ\AppData\Local\Temp\cccAG2jo.s 			page 65


 2235 01d0 5A60     		str	r2, [r3, #4]
 2236              	.L219:
 645:Drivers/STM32F1xx_HAL_Driver/Src/stm32f1xx_hal_dma.c **** 
 2237              		.loc 1 645 5 is_stmt 1 view .LVU567
 645:Drivers/STM32F1xx_HAL_Driver/Src/stm32f1xx_hal_dma.c **** 
 2238              		.loc 1 645 5 view .LVU568
 2239 01d2 0023     		movs	r3, #0
 2240 01d4 80F82030 		strb	r3, [r0, #32]
 645:Drivers/STM32F1xx_HAL_Driver/Src/stm32f1xx_hal_dma.c **** 
 2241              		.loc 1 645 5 view .LVU569
 647:Drivers/STM32F1xx_HAL_Driver/Src/stm32f1xx_hal_dma.c ****     {
 2242              		.loc 1 647 5 view .LVU570
 647:Drivers/STM32F1xx_HAL_Driver/Src/stm32f1xx_hal_dma.c ****     {
 2243              		.loc 1 647 12 is_stmt 0 view .LVU571
 2244 01d8 836A     		ldr	r3, [r0, #40]
 647:Drivers/STM32F1xx_HAL_Driver/Src/stm32f1xx_hal_dma.c ****     {
 2245              		.loc 1 647 7 view .LVU572
 2246 01da 002B     		cmp	r3, #0
 2247 01dc 3FF459AF 		beq	.L207
 650:Drivers/STM32F1xx_HAL_Driver/Src/stm32f1xx_hal_dma.c ****     }
 2248              		.loc 1 650 7 is_stmt 1 view .LVU573
 2249 01e0 9847     		blx	r3
 2250              	.LVL70:
 650:Drivers/STM32F1xx_HAL_Driver/Src/stm32f1xx_hal_dma.c ****     }
 2251              		.loc 1 650 7 is_stmt 0 view .LVU574
 2252 01e2 56E7     		b	.L207
 2253              	.LVL71:
 2254              	.L244:
 642:Drivers/STM32F1xx_HAL_Driver/Src/stm32f1xx_hal_dma.c **** 
 2255              		.loc 1 642 7 view .LVU575
 2256 01e4 2022     		movs	r2, #32
 2257 01e6 F2E7     		b	.L218
 2258              	.L245:
 2259 01e8 4FF40072 		mov	r2, #512
 2260 01ec EFE7     		b	.L218
 2261              	.L246:
 2262 01ee 4FF40052 		mov	r2, #8192
 2263 01f2 ECE7     		b	.L218
 2264              	.L247:
 2265 01f4 4FF40032 		mov	r2, #131072
 2266 01f8 E9E7     		b	.L218
 2267              	.L248:
 2268 01fa 4FF40012 		mov	r2, #2097152
 2269 01fe E6E7     		b	.L218
 2270              	.L249:
 2271 0200 4FF00072 		mov	r2, #33554432
 2272 0204 E3E7     		b	.L218
 2273              	.L250:
 2274 0206 0222     		movs	r2, #2
 2275 0208 E1E7     		b	.L218
 2276              	.L251:
 2277 020a 2022     		movs	r2, #32
 2278 020c DFE7     		b	.L218
 2279              	.L252:
 2280 020e 4FF40072 		mov	r2, #512
 2281 0212 DCE7     		b	.L218
 2282              	.L217:
ARM GAS  C:\Users\GKQ\AppData\Local\Temp\cccAG2jo.s 			page 66


 642:Drivers/STM32F1xx_HAL_Driver/Src/stm32f1xx_hal_dma.c **** 
 2283              		.loc 1 642 7 discriminator 2 view .LVU576
 2284 0214 334A     		ldr	r2, .L270+8
 2285 0216 9342     		cmp	r3, r2
 2286 0218 24D0     		beq	.L254
 642:Drivers/STM32F1xx_HAL_Driver/Src/stm32f1xx_hal_dma.c **** 
 2287              		.loc 1 642 7 discriminator 47 view .LVU577
 2288 021a 1432     		adds	r2, r2, #20
 2289 021c 9342     		cmp	r3, r2
 2290 021e 25D0     		beq	.L255
 642:Drivers/STM32F1xx_HAL_Driver/Src/stm32f1xx_hal_dma.c **** 
 2291              		.loc 1 642 7 discriminator 49 view .LVU578
 2292 0220 1432     		adds	r2, r2, #20
 2293 0222 9342     		cmp	r3, r2
 2294 0224 24D0     		beq	.L256
 642:Drivers/STM32F1xx_HAL_Driver/Src/stm32f1xx_hal_dma.c **** 
 2295              		.loc 1 642 7 discriminator 51 view .LVU579
 2296 0226 1432     		adds	r2, r2, #20
 2297 0228 9342     		cmp	r3, r2
 2298 022a 24D0     		beq	.L257
 642:Drivers/STM32F1xx_HAL_Driver/Src/stm32f1xx_hal_dma.c **** 
 2299              		.loc 1 642 7 discriminator 53 view .LVU580
 2300 022c 1432     		adds	r2, r2, #20
 2301 022e 9342     		cmp	r3, r2
 2302 0230 24D0     		beq	.L258
 642:Drivers/STM32F1xx_HAL_Driver/Src/stm32f1xx_hal_dma.c **** 
 2303              		.loc 1 642 7 discriminator 55 view .LVU581
 2304 0232 1432     		adds	r2, r2, #20
 2305 0234 9342     		cmp	r3, r2
 2306 0236 24D0     		beq	.L259
 642:Drivers/STM32F1xx_HAL_Driver/Src/stm32f1xx_hal_dma.c **** 
 2307              		.loc 1 642 7 discriminator 57 view .LVU582
 2308 0238 1432     		adds	r2, r2, #20
 2309 023a 9342     		cmp	r3, r2
 2310 023c 24D0     		beq	.L260
 642:Drivers/STM32F1xx_HAL_Driver/Src/stm32f1xx_hal_dma.c **** 
 2311              		.loc 1 642 7 discriminator 59 view .LVU583
 2312 023e 02F56272 		add	r2, r2, #904
 2313 0242 9342     		cmp	r3, r2
 2314 0244 23D0     		beq	.L261
 642:Drivers/STM32F1xx_HAL_Driver/Src/stm32f1xx_hal_dma.c **** 
 2315              		.loc 1 642 7 discriminator 61 view .LVU584
 2316 0246 1432     		adds	r2, r2, #20
 2317 0248 9342     		cmp	r3, r2
 2318 024a 22D0     		beq	.L262
 642:Drivers/STM32F1xx_HAL_Driver/Src/stm32f1xx_hal_dma.c **** 
 2319              		.loc 1 642 7 discriminator 63 view .LVU585
 2320 024c 1432     		adds	r2, r2, #20
 2321 024e 9342     		cmp	r3, r2
 2322 0250 21D0     		beq	.L263
 642:Drivers/STM32F1xx_HAL_Driver/Src/stm32f1xx_hal_dma.c **** 
 2323              		.loc 1 642 7 discriminator 65 view .LVU586
 2324 0252 1432     		adds	r2, r2, #20
 2325 0254 9342     		cmp	r3, r2
 2326 0256 02D0     		beq	.L269
 642:Drivers/STM32F1xx_HAL_Driver/Src/stm32f1xx_hal_dma.c **** 
 2327              		.loc 1 642 7 view .LVU587
ARM GAS  C:\Users\GKQ\AppData\Local\Temp\cccAG2jo.s 			page 67


 2328 0258 4FF40032 		mov	r2, #131072
 2329 025c 03E0     		b	.L220
 2330              	.L269:
 2331 025e 4FF40052 		mov	r2, #8192
 2332 0262 00E0     		b	.L220
 2333              	.L254:
 2334 0264 0222     		movs	r2, #2
 2335              	.L220:
 642:Drivers/STM32F1xx_HAL_Driver/Src/stm32f1xx_hal_dma.c **** 
 2336              		.loc 1 642 7 discriminator 90 view .LVU588
 2337 0266 204B     		ldr	r3, .L270+12
 2338 0268 5A60     		str	r2, [r3, #4]
 2339 026a B2E7     		b	.L219
 2340              	.L255:
 642:Drivers/STM32F1xx_HAL_Driver/Src/stm32f1xx_hal_dma.c **** 
 2341              		.loc 1 642 7 view .LVU589
 2342 026c 2022     		movs	r2, #32
 2343 026e FAE7     		b	.L220
 2344              	.L256:
 2345 0270 4FF40072 		mov	r2, #512
 2346 0274 F7E7     		b	.L220
 2347              	.L257:
 2348 0276 4FF40052 		mov	r2, #8192
 2349 027a F4E7     		b	.L220
 2350              	.L258:
 2351 027c 4FF40032 		mov	r2, #131072
 2352 0280 F1E7     		b	.L220
 2353              	.L259:
 2354 0282 4FF40012 		mov	r2, #2097152
 2355 0286 EEE7     		b	.L220
 2356              	.L260:
 2357 0288 4FF00072 		mov	r2, #33554432
 2358 028c EBE7     		b	.L220
 2359              	.L261:
 2360 028e 0222     		movs	r2, #2
 2361 0290 E9E7     		b	.L220
 2362              	.L262:
 2363 0292 2022     		movs	r2, #32
 2364 0294 E7E7     		b	.L220
 2365              	.L263:
 2366 0296 4FF40072 		mov	r2, #512
 2367 029a E4E7     		b	.L220
 2368              	.LVL72:
 2369              	.L215:
 655:Drivers/STM32F1xx_HAL_Driver/Src/stm32f1xx_hal_dma.c ****   {
 2370              		.loc 1 655 8 is_stmt 1 view .LVU590
 655:Drivers/STM32F1xx_HAL_Driver/Src/stm32f1xx_hal_dma.c ****   {
 2371              		.loc 1 655 48 is_stmt 0 view .LVU591
 2372 029c 0823     		movs	r3, #8
 2373 029e 03FA01F1 		lsl	r1, r3, r1
 655:Drivers/STM32F1xx_HAL_Driver/Src/stm32f1xx_hal_dma.c ****   {
 2374              		.loc 1 655 11 view .LVU592
 2375 02a2 1142     		tst	r1, r2
 2376 02a4 3FF4F5AE 		beq	.L207
 655:Drivers/STM32F1xx_HAL_Driver/Src/stm32f1xx_hal_dma.c ****   {
 2377              		.loc 1 655 73 discriminator 1 view .LVU593
 2378 02a8 15F0080F 		tst	r5, #8
ARM GAS  C:\Users\GKQ\AppData\Local\Temp\cccAG2jo.s 			page 68


 2379 02ac 3FF4F1AE 		beq	.L207
 660:Drivers/STM32F1xx_HAL_Driver/Src/stm32f1xx_hal_dma.c **** 
 2380              		.loc 1 660 5 is_stmt 1 view .LVU594
 2381 02b0 2368     		ldr	r3, [r4]
 2382 02b2 23F00E03 		bic	r3, r3, #14
 2383 02b6 2360     		str	r3, [r4]
 663:Drivers/STM32F1xx_HAL_Driver/Src/stm32f1xx_hal_dma.c **** 
 2384              		.loc 1 663 5 view .LVU595
 663:Drivers/STM32F1xx_HAL_Driver/Src/stm32f1xx_hal_dma.c **** 
 2385              		.loc 1 663 55 is_stmt 0 view .LVU596
 2386 02b8 026C     		ldr	r2, [r0, #64]
 2387              	.LVL73:
 663:Drivers/STM32F1xx_HAL_Driver/Src/stm32f1xx_hal_dma.c **** 
 2388              		.loc 1 663 9 view .LVU597
 2389 02ba C16B     		ldr	r1, [r0, #60]
 663:Drivers/STM32F1xx_HAL_Driver/Src/stm32f1xx_hal_dma.c **** 
 2390              		.loc 1 663 48 view .LVU598
 2391 02bc 0123     		movs	r3, #1
 2392 02be 03FA02F2 		lsl	r2, r3, r2
 663:Drivers/STM32F1xx_HAL_Driver/Src/stm32f1xx_hal_dma.c **** 
 2393              		.loc 1 663 32 view .LVU599
 2394 02c2 4A60     		str	r2, [r1, #4]
 666:Drivers/STM32F1xx_HAL_Driver/Src/stm32f1xx_hal_dma.c **** 
 2395              		.loc 1 666 5 is_stmt 1 view .LVU600
 666:Drivers/STM32F1xx_HAL_Driver/Src/stm32f1xx_hal_dma.c **** 
 2396              		.loc 1 666 21 is_stmt 0 view .LVU601
 2397 02c4 8363     		str	r3, [r0, #56]
 669:Drivers/STM32F1xx_HAL_Driver/Src/stm32f1xx_hal_dma.c **** 
 2398              		.loc 1 669 5 is_stmt 1 view .LVU602
 669:Drivers/STM32F1xx_HAL_Driver/Src/stm32f1xx_hal_dma.c **** 
 2399              		.loc 1 669 17 is_stmt 0 view .LVU603
 2400 02c6 80F82130 		strb	r3, [r0, #33]
 672:Drivers/STM32F1xx_HAL_Driver/Src/stm32f1xx_hal_dma.c **** 
 2401              		.loc 1 672 5 is_stmt 1 view .LVU604
 672:Drivers/STM32F1xx_HAL_Driver/Src/stm32f1xx_hal_dma.c **** 
 2402              		.loc 1 672 5 view .LVU605
 2403 02ca 0023     		movs	r3, #0
 2404 02cc 80F82030 		strb	r3, [r0, #32]
 672:Drivers/STM32F1xx_HAL_Driver/Src/stm32f1xx_hal_dma.c **** 
 2405              		.loc 1 672 5 view .LVU606
 674:Drivers/STM32F1xx_HAL_Driver/Src/stm32f1xx_hal_dma.c ****     {
 2406              		.loc 1 674 5 view .LVU607
 674:Drivers/STM32F1xx_HAL_Driver/Src/stm32f1xx_hal_dma.c ****     {
 2407              		.loc 1 674 13 is_stmt 0 view .LVU608
 2408 02d0 036B     		ldr	r3, [r0, #48]
 674:Drivers/STM32F1xx_HAL_Driver/Src/stm32f1xx_hal_dma.c ****     {
 2409              		.loc 1 674 8 view .LVU609
 2410 02d2 002B     		cmp	r3, #0
 2411 02d4 3FF4DDAE 		beq	.L207
 677:Drivers/STM32F1xx_HAL_Driver/Src/stm32f1xx_hal_dma.c ****     }
 2412              		.loc 1 677 7 is_stmt 1 view .LVU610
 2413 02d8 9847     		blx	r3
 2414              	.LVL74:
 680:Drivers/STM32F1xx_HAL_Driver/Src/stm32f1xx_hal_dma.c **** }
 2415              		.loc 1 680 3 view .LVU611
 2416 02da DAE6     		b	.L207
 2417              	.L271:
ARM GAS  C:\Users\GKQ\AppData\Local\Temp\cccAG2jo.s 			page 69


 2418              		.align	2
 2419              	.L270:
 2420 02dc 80000240 		.word	1073873024
 2421 02e0 00040240 		.word	1073873920
 2422 02e4 08000240 		.word	1073872904
 2423 02e8 00000240 		.word	1073872896
 2424              		.cfi_endproc
 2425              	.LFE72:
 2427              		.section	.text.HAL_DMA_RegisterCallback,"ax",%progbits
 2428              		.align	1
 2429              		.global	HAL_DMA_RegisterCallback
 2430              		.syntax unified
 2431              		.thumb
 2432              		.thumb_func
 2433              		.fpu softvfp
 2435              	HAL_DMA_RegisterCallback:
 2436              	.LVL75:
 2437              	.LFB73:
 694:Drivers/STM32F1xx_HAL_Driver/Src/stm32f1xx_hal_dma.c ****   HAL_StatusTypeDef status = HAL_OK;
 2438              		.loc 1 694 1 view -0
 2439              		.cfi_startproc
 2440              		@ args = 0, pretend = 0, frame = 0
 2441              		@ frame_needed = 0, uses_anonymous_args = 0
 2442              		@ link register save eliminated.
 694:Drivers/STM32F1xx_HAL_Driver/Src/stm32f1xx_hal_dma.c ****   HAL_StatusTypeDef status = HAL_OK;
 2443              		.loc 1 694 1 is_stmt 0 view .LVU613
 2444 0000 0346     		mov	r3, r0
 695:Drivers/STM32F1xx_HAL_Driver/Src/stm32f1xx_hal_dma.c ****   
 2445              		.loc 1 695 3 is_stmt 1 view .LVU614
 2446              	.LVL76:
 698:Drivers/STM32F1xx_HAL_Driver/Src/stm32f1xx_hal_dma.c ****   
 2447              		.loc 1 698 3 view .LVU615
 698:Drivers/STM32F1xx_HAL_Driver/Src/stm32f1xx_hal_dma.c ****   
 2448              		.loc 1 698 3 view .LVU616
 2449 0002 90F82000 		ldrb	r0, [r0, #32]	@ zero_extendqisi2
 2450              	.LVL77:
 698:Drivers/STM32F1xx_HAL_Driver/Src/stm32f1xx_hal_dma.c ****   
 2451              		.loc 1 698 3 is_stmt 0 view .LVU617
 2452 0006 0128     		cmp	r0, #1
 2453 0008 1AD0     		beq	.L280
 698:Drivers/STM32F1xx_HAL_Driver/Src/stm32f1xx_hal_dma.c ****   
 2454              		.loc 1 698 3 is_stmt 1 discriminator 2 view .LVU618
 698:Drivers/STM32F1xx_HAL_Driver/Src/stm32f1xx_hal_dma.c ****   
 2455              		.loc 1 698 3 discriminator 2 view .LVU619
 700:Drivers/STM32F1xx_HAL_Driver/Src/stm32f1xx_hal_dma.c ****   {
 2456              		.loc 1 700 3 discriminator 2 view .LVU620
 700:Drivers/STM32F1xx_HAL_Driver/Src/stm32f1xx_hal_dma.c ****   {
 2457              		.loc 1 700 33 is_stmt 0 discriminator 2 view .LVU621
 2458 000a 93F82100 		ldrb	r0, [r3, #33]	@ zero_extendqisi2
 700:Drivers/STM32F1xx_HAL_Driver/Src/stm32f1xx_hal_dma.c ****   {
 2459              		.loc 1 700 5 discriminator 2 view .LVU622
 2460 000e 0128     		cmp	r0, #1
 2461 0010 04D0     		beq	.L282
 727:Drivers/STM32F1xx_HAL_Driver/Src/stm32f1xx_hal_dma.c ****   } 
 2462              		.loc 1 727 12 view .LVU623
 2463 0012 0120     		movs	r0, #1
 2464              	.L274:
ARM GAS  C:\Users\GKQ\AppData\Local\Temp\cccAG2jo.s 			page 70


 2465              	.LVL78:
 731:Drivers/STM32F1xx_HAL_Driver/Src/stm32f1xx_hal_dma.c ****   
 2466              		.loc 1 731 3 is_stmt 1 view .LVU624
 731:Drivers/STM32F1xx_HAL_Driver/Src/stm32f1xx_hal_dma.c ****   
 2467              		.loc 1 731 3 view .LVU625
 2468 0014 0022     		movs	r2, #0
 2469              	.LVL79:
 731:Drivers/STM32F1xx_HAL_Driver/Src/stm32f1xx_hal_dma.c ****   
 2470              		.loc 1 731 3 is_stmt 0 view .LVU626
 2471 0016 83F82020 		strb	r2, [r3, #32]
 731:Drivers/STM32F1xx_HAL_Driver/Src/stm32f1xx_hal_dma.c ****   
 2472              		.loc 1 731 3 is_stmt 1 view .LVU627
 733:Drivers/STM32F1xx_HAL_Driver/Src/stm32f1xx_hal_dma.c **** }
 2473              		.loc 1 733 3 view .LVU628
 733:Drivers/STM32F1xx_HAL_Driver/Src/stm32f1xx_hal_dma.c **** }
 2474              		.loc 1 733 10 is_stmt 0 view .LVU629
 2475 001a 7047     		bx	lr
 2476              	.LVL80:
 2477              	.L282:
 702:Drivers/STM32F1xx_HAL_Driver/Src/stm32f1xx_hal_dma.c ****     {
 2478              		.loc 1 702 5 is_stmt 1 view .LVU630
 2479 001c 0329     		cmp	r1, #3
 2480 001e F9D8     		bhi	.L274
 2481 0020 DFE801F0 		tbb	[pc, r1]
 2482              	.L276:
 2483 0024 02       		.byte	(.L279-.L276)/2
 2484 0025 05       		.byte	(.L278-.L276)/2
 2485 0026 08       		.byte	(.L277-.L276)/2
 2486 0027 0B       		.byte	(.L275-.L276)/2
 2487              		.p2align 1
 2488              	.L279:
 705:Drivers/STM32F1xx_HAL_Driver/Src/stm32f1xx_hal_dma.c ****       break;
 2489              		.loc 1 705 7 view .LVU631
 705:Drivers/STM32F1xx_HAL_Driver/Src/stm32f1xx_hal_dma.c ****       break;
 2490              		.loc 1 705 30 is_stmt 0 view .LVU632
 2491 0028 9A62     		str	r2, [r3, #40]
 706:Drivers/STM32F1xx_HAL_Driver/Src/stm32f1xx_hal_dma.c ****       
 2492              		.loc 1 706 7 is_stmt 1 view .LVU633
 695:Drivers/STM32F1xx_HAL_Driver/Src/stm32f1xx_hal_dma.c ****   
 2493              		.loc 1 695 21 is_stmt 0 view .LVU634
 2494 002a 0846     		mov	r0, r1
 706:Drivers/STM32F1xx_HAL_Driver/Src/stm32f1xx_hal_dma.c ****       
 2495              		.loc 1 706 7 view .LVU635
 2496 002c F2E7     		b	.L274
 2497              	.L278:
 709:Drivers/STM32F1xx_HAL_Driver/Src/stm32f1xx_hal_dma.c ****       break;         
 2498              		.loc 1 709 7 is_stmt 1 view .LVU636
 709:Drivers/STM32F1xx_HAL_Driver/Src/stm32f1xx_hal_dma.c ****       break;         
 2499              		.loc 1 709 34 is_stmt 0 view .LVU637
 2500 002e DA62     		str	r2, [r3, #44]
 710:Drivers/STM32F1xx_HAL_Driver/Src/stm32f1xx_hal_dma.c **** 
 2501              		.loc 1 710 7 is_stmt 1 view .LVU638
 695:Drivers/STM32F1xx_HAL_Driver/Src/stm32f1xx_hal_dma.c ****   
 2502              		.loc 1 695 21 is_stmt 0 view .LVU639
 2503 0030 0020     		movs	r0, #0
 710:Drivers/STM32F1xx_HAL_Driver/Src/stm32f1xx_hal_dma.c **** 
 2504              		.loc 1 710 7 view .LVU640
ARM GAS  C:\Users\GKQ\AppData\Local\Temp\cccAG2jo.s 			page 71


 2505 0032 EFE7     		b	.L274
 2506              	.L277:
 713:Drivers/STM32F1xx_HAL_Driver/Src/stm32f1xx_hal_dma.c ****       break;         
 2507              		.loc 1 713 7 is_stmt 1 view .LVU641
 713:Drivers/STM32F1xx_HAL_Driver/Src/stm32f1xx_hal_dma.c ****       break;         
 2508              		.loc 1 713 31 is_stmt 0 view .LVU642
 2509 0034 1A63     		str	r2, [r3, #48]
 714:Drivers/STM32F1xx_HAL_Driver/Src/stm32f1xx_hal_dma.c ****       
 2510              		.loc 1 714 7 is_stmt 1 view .LVU643
 695:Drivers/STM32F1xx_HAL_Driver/Src/stm32f1xx_hal_dma.c ****   
 2511              		.loc 1 695 21 is_stmt 0 view .LVU644
 2512 0036 0020     		movs	r0, #0
 714:Drivers/STM32F1xx_HAL_Driver/Src/stm32f1xx_hal_dma.c ****       
 2513              		.loc 1 714 7 view .LVU645
 2514 0038 ECE7     		b	.L274
 2515              	.L275:
 717:Drivers/STM32F1xx_HAL_Driver/Src/stm32f1xx_hal_dma.c ****       break; 
 2516              		.loc 1 717 7 is_stmt 1 view .LVU646
 717:Drivers/STM32F1xx_HAL_Driver/Src/stm32f1xx_hal_dma.c ****       break; 
 2517              		.loc 1 717 31 is_stmt 0 view .LVU647
 2518 003a 5A63     		str	r2, [r3, #52]
 718:Drivers/STM32F1xx_HAL_Driver/Src/stm32f1xx_hal_dma.c ****       
 2519              		.loc 1 718 7 is_stmt 1 view .LVU648
 695:Drivers/STM32F1xx_HAL_Driver/Src/stm32f1xx_hal_dma.c ****   
 2520              		.loc 1 695 21 is_stmt 0 view .LVU649
 2521 003c 0020     		movs	r0, #0
 718:Drivers/STM32F1xx_HAL_Driver/Src/stm32f1xx_hal_dma.c ****       
 2522              		.loc 1 718 7 view .LVU650
 2523 003e E9E7     		b	.L274
 2524              	.L280:
 698:Drivers/STM32F1xx_HAL_Driver/Src/stm32f1xx_hal_dma.c ****   
 2525              		.loc 1 698 3 view .LVU651
 2526 0040 0220     		movs	r0, #2
 734:Drivers/STM32F1xx_HAL_Driver/Src/stm32f1xx_hal_dma.c **** 
 2527              		.loc 1 734 1 view .LVU652
 2528 0042 7047     		bx	lr
 2529              		.cfi_endproc
 2530              	.LFE73:
 2532              		.section	.text.HAL_DMA_UnRegisterCallback,"ax",%progbits
 2533              		.align	1
 2534              		.global	HAL_DMA_UnRegisterCallback
 2535              		.syntax unified
 2536              		.thumb
 2537              		.thumb_func
 2538              		.fpu softvfp
 2540              	HAL_DMA_UnRegisterCallback:
 2541              	.LVL81:
 2542              	.LFB74:
 745:Drivers/STM32F1xx_HAL_Driver/Src/stm32f1xx_hal_dma.c ****   HAL_StatusTypeDef status = HAL_OK;
 2543              		.loc 1 745 1 is_stmt 1 view -0
 2544              		.cfi_startproc
 2545              		@ args = 0, pretend = 0, frame = 0
 2546              		@ frame_needed = 0, uses_anonymous_args = 0
 2547              		@ link register save eliminated.
 745:Drivers/STM32F1xx_HAL_Driver/Src/stm32f1xx_hal_dma.c ****   HAL_StatusTypeDef status = HAL_OK;
 2548              		.loc 1 745 1 is_stmt 0 view .LVU654
 2549 0000 0346     		mov	r3, r0
ARM GAS  C:\Users\GKQ\AppData\Local\Temp\cccAG2jo.s 			page 72


 746:Drivers/STM32F1xx_HAL_Driver/Src/stm32f1xx_hal_dma.c **** 
 2550              		.loc 1 746 3 is_stmt 1 view .LVU655
 2551              	.LVL82:
 749:Drivers/STM32F1xx_HAL_Driver/Src/stm32f1xx_hal_dma.c ****   
 2552              		.loc 1 749 3 view .LVU656
 749:Drivers/STM32F1xx_HAL_Driver/Src/stm32f1xx_hal_dma.c ****   
 2553              		.loc 1 749 3 view .LVU657
 2554 0002 90F82020 		ldrb	r2, [r0, #32]	@ zero_extendqisi2
 2555 0006 012A     		cmp	r2, #1
 2556 0008 25D0     		beq	.L292
 749:Drivers/STM32F1xx_HAL_Driver/Src/stm32f1xx_hal_dma.c ****   
 2557              		.loc 1 749 3 discriminator 2 view .LVU658
 2558 000a 0122     		movs	r2, #1
 2559 000c 80F82020 		strb	r2, [r0, #32]
 749:Drivers/STM32F1xx_HAL_Driver/Src/stm32f1xx_hal_dma.c ****   
 2560              		.loc 1 749 3 discriminator 2 view .LVU659
 751:Drivers/STM32F1xx_HAL_Driver/Src/stm32f1xx_hal_dma.c ****   {
 2561              		.loc 1 751 3 discriminator 2 view .LVU660
 751:Drivers/STM32F1xx_HAL_Driver/Src/stm32f1xx_hal_dma.c ****   {
 2562              		.loc 1 751 33 is_stmt 0 discriminator 2 view .LVU661
 2563 0010 90F82100 		ldrb	r0, [r0, #33]	@ zero_extendqisi2
 2564              	.LVL83:
 751:Drivers/STM32F1xx_HAL_Driver/Src/stm32f1xx_hal_dma.c ****   {
 2565              		.loc 1 751 5 discriminator 2 view .LVU662
 2566 0014 9042     		cmp	r0, r2
 2567 0016 04D0     		beq	.L294
 785:Drivers/STM32F1xx_HAL_Driver/Src/stm32f1xx_hal_dma.c ****   } 
 2568              		.loc 1 785 12 view .LVU663
 2569 0018 0120     		movs	r0, #1
 2570              	.L285:
 2571              	.LVL84:
 789:Drivers/STM32F1xx_HAL_Driver/Src/stm32f1xx_hal_dma.c ****   
 2572              		.loc 1 789 3 is_stmt 1 view .LVU664
 789:Drivers/STM32F1xx_HAL_Driver/Src/stm32f1xx_hal_dma.c ****   
 2573              		.loc 1 789 3 view .LVU665
 2574 001a 0022     		movs	r2, #0
 2575 001c 83F82020 		strb	r2, [r3, #32]
 789:Drivers/STM32F1xx_HAL_Driver/Src/stm32f1xx_hal_dma.c ****   
 2576              		.loc 1 789 3 view .LVU666
 791:Drivers/STM32F1xx_HAL_Driver/Src/stm32f1xx_hal_dma.c **** }
 2577              		.loc 1 791 3 view .LVU667
 791:Drivers/STM32F1xx_HAL_Driver/Src/stm32f1xx_hal_dma.c **** }
 2578              		.loc 1 791 10 is_stmt 0 view .LVU668
 2579 0020 7047     		bx	lr
 2580              	.LVL85:
 2581              	.L294:
 753:Drivers/STM32F1xx_HAL_Driver/Src/stm32f1xx_hal_dma.c ****     {
 2582              		.loc 1 753 5 is_stmt 1 view .LVU669
 2583 0022 0429     		cmp	r1, #4
 2584 0024 F9D8     		bhi	.L285
 2585 0026 DFE801F0 		tbb	[pc, r1]
 2586              	.L287:
 2587 002a 03       		.byte	(.L291-.L287)/2
 2588 002b 07       		.byte	(.L290-.L287)/2
 2589 002c 0A       		.byte	(.L289-.L287)/2
 2590 002d 0D       		.byte	(.L288-.L287)/2
 2591 002e 10       		.byte	(.L286-.L287)/2
ARM GAS  C:\Users\GKQ\AppData\Local\Temp\cccAG2jo.s 			page 73


 2592 002f 00       		.p2align 1
 2593              	.L291:
 756:Drivers/STM32F1xx_HAL_Driver/Src/stm32f1xx_hal_dma.c ****       break;
 2594              		.loc 1 756 7 view .LVU670
 756:Drivers/STM32F1xx_HAL_Driver/Src/stm32f1xx_hal_dma.c ****       break;
 2595              		.loc 1 756 30 is_stmt 0 view .LVU671
 2596 0030 0022     		movs	r2, #0
 2597 0032 9A62     		str	r2, [r3, #40]
 757:Drivers/STM32F1xx_HAL_Driver/Src/stm32f1xx_hal_dma.c **** 
 2598              		.loc 1 757 7 is_stmt 1 view .LVU672
 746:Drivers/STM32F1xx_HAL_Driver/Src/stm32f1xx_hal_dma.c **** 
 2599              		.loc 1 746 21 is_stmt 0 view .LVU673
 2600 0034 0846     		mov	r0, r1
 757:Drivers/STM32F1xx_HAL_Driver/Src/stm32f1xx_hal_dma.c **** 
 2601              		.loc 1 757 7 view .LVU674
 2602 0036 F0E7     		b	.L285
 2603              	.L290:
 760:Drivers/STM32F1xx_HAL_Driver/Src/stm32f1xx_hal_dma.c ****       break;         
 2604              		.loc 1 760 7 is_stmt 1 view .LVU675
 760:Drivers/STM32F1xx_HAL_Driver/Src/stm32f1xx_hal_dma.c ****       break;         
 2605              		.loc 1 760 34 is_stmt 0 view .LVU676
 2606 0038 0020     		movs	r0, #0
 2607 003a D862     		str	r0, [r3, #44]
 761:Drivers/STM32F1xx_HAL_Driver/Src/stm32f1xx_hal_dma.c **** 
 2608              		.loc 1 761 7 is_stmt 1 view .LVU677
 2609 003c EDE7     		b	.L285
 2610              	.L289:
 764:Drivers/STM32F1xx_HAL_Driver/Src/stm32f1xx_hal_dma.c ****       break;         
 2611              		.loc 1 764 7 view .LVU678
 764:Drivers/STM32F1xx_HAL_Driver/Src/stm32f1xx_hal_dma.c ****       break;         
 2612              		.loc 1 764 31 is_stmt 0 view .LVU679
 2613 003e 0020     		movs	r0, #0
 2614 0040 1863     		str	r0, [r3, #48]
 765:Drivers/STM32F1xx_HAL_Driver/Src/stm32f1xx_hal_dma.c **** 
 2615              		.loc 1 765 7 is_stmt 1 view .LVU680
 2616 0042 EAE7     		b	.L285
 2617              	.L288:
 768:Drivers/STM32F1xx_HAL_Driver/Src/stm32f1xx_hal_dma.c ****       break; 
 2618              		.loc 1 768 7 view .LVU681
 768:Drivers/STM32F1xx_HAL_Driver/Src/stm32f1xx_hal_dma.c ****       break; 
 2619              		.loc 1 768 31 is_stmt 0 view .LVU682
 2620 0044 0020     		movs	r0, #0
 2621 0046 5863     		str	r0, [r3, #52]
 769:Drivers/STM32F1xx_HAL_Driver/Src/stm32f1xx_hal_dma.c **** 
 2622              		.loc 1 769 7 is_stmt 1 view .LVU683
 2623 0048 E7E7     		b	.L285
 2624              	.L286:
 772:Drivers/STM32F1xx_HAL_Driver/Src/stm32f1xx_hal_dma.c ****       hdma->XferHalfCpltCallback = NULL;
 2625              		.loc 1 772 7 view .LVU684
 772:Drivers/STM32F1xx_HAL_Driver/Src/stm32f1xx_hal_dma.c ****       hdma->XferHalfCpltCallback = NULL;
 2626              		.loc 1 772 30 is_stmt 0 view .LVU685
 2627 004a 0020     		movs	r0, #0
 2628 004c 9862     		str	r0, [r3, #40]
 773:Drivers/STM32F1xx_HAL_Driver/Src/stm32f1xx_hal_dma.c ****       hdma->XferErrorCallback = NULL;
 2629              		.loc 1 773 7 is_stmt 1 view .LVU686
 773:Drivers/STM32F1xx_HAL_Driver/Src/stm32f1xx_hal_dma.c ****       hdma->XferErrorCallback = NULL;
 2630              		.loc 1 773 34 is_stmt 0 view .LVU687
ARM GAS  C:\Users\GKQ\AppData\Local\Temp\cccAG2jo.s 			page 74


 2631 004e D862     		str	r0, [r3, #44]
 774:Drivers/STM32F1xx_HAL_Driver/Src/stm32f1xx_hal_dma.c ****       hdma->XferAbortCallback = NULL;
 2632              		.loc 1 774 7 is_stmt 1 view .LVU688
 774:Drivers/STM32F1xx_HAL_Driver/Src/stm32f1xx_hal_dma.c ****       hdma->XferAbortCallback = NULL;
 2633              		.loc 1 774 31 is_stmt 0 view .LVU689
 2634 0050 1863     		str	r0, [r3, #48]
 775:Drivers/STM32F1xx_HAL_Driver/Src/stm32f1xx_hal_dma.c ****       break; 
 2635              		.loc 1 775 7 is_stmt 1 view .LVU690
 775:Drivers/STM32F1xx_HAL_Driver/Src/stm32f1xx_hal_dma.c ****       break; 
 2636              		.loc 1 775 31 is_stmt 0 view .LVU691
 2637 0052 5863     		str	r0, [r3, #52]
 776:Drivers/STM32F1xx_HAL_Driver/Src/stm32f1xx_hal_dma.c **** 
 2638              		.loc 1 776 7 is_stmt 1 view .LVU692
 2639 0054 E1E7     		b	.L285
 2640              	.LVL86:
 2641              	.L292:
 749:Drivers/STM32F1xx_HAL_Driver/Src/stm32f1xx_hal_dma.c ****   
 2642              		.loc 1 749 3 is_stmt 0 view .LVU693
 2643 0056 0220     		movs	r0, #2
 2644              	.LVL87:
 792:Drivers/STM32F1xx_HAL_Driver/Src/stm32f1xx_hal_dma.c ****   
 2645              		.loc 1 792 1 view .LVU694
 2646 0058 7047     		bx	lr
 2647              		.cfi_endproc
 2648              	.LFE74:
 2650              		.section	.text.HAL_DMA_GetState,"ax",%progbits
 2651              		.align	1
 2652              		.global	HAL_DMA_GetState
 2653              		.syntax unified
 2654              		.thumb
 2655              		.thumb_func
 2656              		.fpu softvfp
 2658              	HAL_DMA_GetState:
 2659              	.LVL88:
 2660              	.LFB75:
 821:Drivers/STM32F1xx_HAL_Driver/Src/stm32f1xx_hal_dma.c ****   /* Return DMA handle state */
 2661              		.loc 1 821 1 is_stmt 1 view -0
 2662              		.cfi_startproc
 2663              		@ args = 0, pretend = 0, frame = 0
 2664              		@ frame_needed = 0, uses_anonymous_args = 0
 2665              		@ link register save eliminated.
 823:Drivers/STM32F1xx_HAL_Driver/Src/stm32f1xx_hal_dma.c **** }
 2666              		.loc 1 823 3 view .LVU696
 824:Drivers/STM32F1xx_HAL_Driver/Src/stm32f1xx_hal_dma.c **** 
 2667              		.loc 1 824 1 is_stmt 0 view .LVU697
 2668 0000 90F82100 		ldrb	r0, [r0, #33]	@ zero_extendqisi2
 2669              	.LVL89:
 824:Drivers/STM32F1xx_HAL_Driver/Src/stm32f1xx_hal_dma.c **** 
 2670              		.loc 1 824 1 view .LVU698
 2671 0004 7047     		bx	lr
 2672              		.cfi_endproc
 2673              	.LFE75:
 2675              		.section	.text.HAL_DMA_GetError,"ax",%progbits
 2676              		.align	1
 2677              		.global	HAL_DMA_GetError
 2678              		.syntax unified
 2679              		.thumb
ARM GAS  C:\Users\GKQ\AppData\Local\Temp\cccAG2jo.s 			page 75


 2680              		.thumb_func
 2681              		.fpu softvfp
 2683              	HAL_DMA_GetError:
 2684              	.LVL90:
 2685              	.LFB76:
 833:Drivers/STM32F1xx_HAL_Driver/Src/stm32f1xx_hal_dma.c ****   return hdma->ErrorCode;
 2686              		.loc 1 833 1 is_stmt 1 view -0
 2687              		.cfi_startproc
 2688              		@ args = 0, pretend = 0, frame = 0
 2689              		@ frame_needed = 0, uses_anonymous_args = 0
 2690              		@ link register save eliminated.
 834:Drivers/STM32F1xx_HAL_Driver/Src/stm32f1xx_hal_dma.c **** }
 2691              		.loc 1 834 3 view .LVU700
 834:Drivers/STM32F1xx_HAL_Driver/Src/stm32f1xx_hal_dma.c **** }
 2692              		.loc 1 834 14 is_stmt 0 view .LVU701
 2693 0000 806B     		ldr	r0, [r0, #56]
 2694              	.LVL91:
 835:Drivers/STM32F1xx_HAL_Driver/Src/stm32f1xx_hal_dma.c **** 
 2695              		.loc 1 835 1 view .LVU702
 2696 0002 7047     		bx	lr
 2697              		.cfi_endproc
 2698              	.LFE76:
 2700              		.text
 2701              	.Letext0:
 2702              		.file 2 "d:\\work_project\\9 2019-q4-major\\arm-none-eabi\\include\\machine\\_default_types.h"
 2703              		.file 3 "d:\\work_project\\9 2019-q4-major\\arm-none-eabi\\include\\sys\\_stdint.h"
 2704              		.file 4 "Drivers/CMSIS/Include/core_cm3.h"
 2705              		.file 5 "Drivers/CMSIS/Device/ST/STM32F1xx/Include/system_stm32f1xx.h"
 2706              		.file 6 "Drivers/CMSIS/Device/ST/STM32F1xx/Include/stm32f103xe.h"
 2707              		.file 7 "Drivers/CMSIS/Device/ST/STM32F1xx/Include/stm32f1xx.h"
 2708              		.file 8 "Drivers/STM32F1xx_HAL_Driver/Inc/stm32f1xx_hal_def.h"
 2709              		.file 9 "Drivers/STM32F1xx_HAL_Driver/Inc/stm32f1xx_hal_dma.h"
 2710              		.file 10 "Drivers/STM32F1xx_HAL_Driver/Inc/stm32f1xx_hal.h"
ARM GAS  C:\Users\GKQ\AppData\Local\Temp\cccAG2jo.s 			page 76

