ARM GAS  C:\Users\GKQ\AppData\Local\Temp\ccHeMgiB.s 			page 1


   1              		.cpu cortex-m3
   2              		.eabi_attribute 20, 1
   3              		.eabi_attribute 21, 1
   4              		.eabi_attribute 23, 3
   5              		.eabi_attribute 24, 1
   6              		.eabi_attribute 25, 1
   7              		.eabi_attribute 26, 1
   8              		.eabi_attribute 30, 1
   9              		.eabi_attribute 34, 1
  10              		.eabi_attribute 18, 4
  11              		.file	"i2c.c"
  12              		.text
  13              	.Ltext0:
  14              		.cfi_sections	.debug_frame
  15              		.section	.text.MX_I2C1_Init,"ax",%progbits
  16              		.align	1
  17              		.global	MX_I2C1_Init
  18              		.arch armv7-m
  19              		.syntax unified
  20              		.thumb
  21              		.thumb_func
  22              		.fpu softvfp
  24              	MX_I2C1_Init:
  25              	.LFB65:
  26              		.file 1 "Core/Src/i2c.c"
   1:Core/Src/i2c.c **** /**
   2:Core/Src/i2c.c ****   ******************************************************************************
   3:Core/Src/i2c.c ****   * File Name          : I2C.c
   4:Core/Src/i2c.c ****   * Description        : This file provides code for the configuration
   5:Core/Src/i2c.c ****   *                      of the I2C instances.
   6:Core/Src/i2c.c ****   ******************************************************************************
   7:Core/Src/i2c.c ****   * @attention
   8:Core/Src/i2c.c ****   *
   9:Core/Src/i2c.c ****   * <h2><center>&copy; Copyright (c) 2020 STMicroelectronics.
  10:Core/Src/i2c.c ****   * All rights reserved.</center></h2>
  11:Core/Src/i2c.c ****   *
  12:Core/Src/i2c.c ****   * This software component is licensed by ST under BSD 3-Clause license,
  13:Core/Src/i2c.c ****   * the "License"; You may not use this file except in compliance with the
  14:Core/Src/i2c.c ****   * License. You may obtain a copy of the License at:
  15:Core/Src/i2c.c ****   *                        opensource.org/licenses/BSD-3-Clause
  16:Core/Src/i2c.c ****   *
  17:Core/Src/i2c.c ****   ******************************************************************************
  18:Core/Src/i2c.c ****   */
  19:Core/Src/i2c.c **** 
  20:Core/Src/i2c.c **** /* Includes ------------------------------------------------------------------*/
  21:Core/Src/i2c.c **** #include "i2c.h"
  22:Core/Src/i2c.c **** 
  23:Core/Src/i2c.c **** /* USER CODE BEGIN 0 */
  24:Core/Src/i2c.c **** 
  25:Core/Src/i2c.c **** /* USER CODE END 0 */
  26:Core/Src/i2c.c **** 
  27:Core/Src/i2c.c **** I2C_HandleTypeDef hi2c1;
  28:Core/Src/i2c.c **** 
  29:Core/Src/i2c.c **** /* I2C1 init function */
  30:Core/Src/i2c.c **** void MX_I2C1_Init(void)
  31:Core/Src/i2c.c **** {
  27              		.loc 1 31 1 view -0
ARM GAS  C:\Users\GKQ\AppData\Local\Temp\ccHeMgiB.s 			page 2


  28              		.cfi_startproc
  29              		@ args = 0, pretend = 0, frame = 0
  30              		@ frame_needed = 0, uses_anonymous_args = 0
  31 0000 08B5     		push	{r3, lr}
  32              	.LCFI0:
  33              		.cfi_def_cfa_offset 8
  34              		.cfi_offset 3, -8
  35              		.cfi_offset 14, -4
  32:Core/Src/i2c.c **** 
  33:Core/Src/i2c.c ****   hi2c1.Instance = I2C1;
  36              		.loc 1 33 3 view .LVU1
  37              		.loc 1 33 18 is_stmt 0 view .LVU2
  38 0002 0B48     		ldr	r0, .L5
  39 0004 0B4B     		ldr	r3, .L5+4
  40 0006 0360     		str	r3, [r0]
  34:Core/Src/i2c.c ****   hi2c1.Init.ClockSpeed = 100000;
  41              		.loc 1 34 3 is_stmt 1 view .LVU3
  42              		.loc 1 34 25 is_stmt 0 view .LVU4
  43 0008 0B4B     		ldr	r3, .L5+8
  44 000a 4360     		str	r3, [r0, #4]
  35:Core/Src/i2c.c ****   hi2c1.Init.DutyCycle = I2C_DUTYCYCLE_2;
  45              		.loc 1 35 3 is_stmt 1 view .LVU5
  46              		.loc 1 35 24 is_stmt 0 view .LVU6
  47 000c 0023     		movs	r3, #0
  48 000e 8360     		str	r3, [r0, #8]
  36:Core/Src/i2c.c ****   hi2c1.Init.OwnAddress1 = 0;
  49              		.loc 1 36 3 is_stmt 1 view .LVU7
  50              		.loc 1 36 26 is_stmt 0 view .LVU8
  51 0010 C360     		str	r3, [r0, #12]
  37:Core/Src/i2c.c ****   hi2c1.Init.AddressingMode = I2C_ADDRESSINGMODE_7BIT;
  52              		.loc 1 37 3 is_stmt 1 view .LVU9
  53              		.loc 1 37 29 is_stmt 0 view .LVU10
  54 0012 4FF48042 		mov	r2, #16384
  55 0016 0261     		str	r2, [r0, #16]
  38:Core/Src/i2c.c ****   hi2c1.Init.DualAddressMode = I2C_DUALADDRESS_DISABLE;
  56              		.loc 1 38 3 is_stmt 1 view .LVU11
  57              		.loc 1 38 30 is_stmt 0 view .LVU12
  58 0018 4361     		str	r3, [r0, #20]
  39:Core/Src/i2c.c ****   hi2c1.Init.OwnAddress2 = 0;
  59              		.loc 1 39 3 is_stmt 1 view .LVU13
  60              		.loc 1 39 26 is_stmt 0 view .LVU14
  61 001a 8361     		str	r3, [r0, #24]
  40:Core/Src/i2c.c ****   hi2c1.Init.GeneralCallMode = I2C_GENERALCALL_DISABLE;
  62              		.loc 1 40 3 is_stmt 1 view .LVU15
  63              		.loc 1 40 30 is_stmt 0 view .LVU16
  64 001c C361     		str	r3, [r0, #28]
  41:Core/Src/i2c.c ****   hi2c1.Init.NoStretchMode = I2C_NOSTRETCH_DISABLE;
  65              		.loc 1 41 3 is_stmt 1 view .LVU17
  66              		.loc 1 41 28 is_stmt 0 view .LVU18
  67 001e 0362     		str	r3, [r0, #32]
  42:Core/Src/i2c.c ****   if (HAL_I2C_Init(&hi2c1) != HAL_OK)
  68              		.loc 1 42 3 is_stmt 1 view .LVU19
  69              		.loc 1 42 7 is_stmt 0 view .LVU20
  70 0020 FFF7FEFF 		bl	HAL_I2C_Init
  71              	.LVL0:
  72              		.loc 1 42 6 view .LVU21
  73 0024 00B9     		cbnz	r0, .L4
ARM GAS  C:\Users\GKQ\AppData\Local\Temp\ccHeMgiB.s 			page 3


  74              	.L1:
  43:Core/Src/i2c.c ****   {
  44:Core/Src/i2c.c ****     Error_Handler();
  45:Core/Src/i2c.c ****   }
  46:Core/Src/i2c.c **** 
  47:Core/Src/i2c.c **** }
  75              		.loc 1 47 1 view .LVU22
  76 0026 08BD     		pop	{r3, pc}
  77              	.L4:
  44:Core/Src/i2c.c ****   }
  78              		.loc 1 44 5 is_stmt 1 view .LVU23
  79 0028 FFF7FEFF 		bl	Error_Handler
  80              	.LVL1:
  81              		.loc 1 47 1 is_stmt 0 view .LVU24
  82 002c FBE7     		b	.L1
  83              	.L6:
  84 002e 00BF     		.align	2
  85              	.L5:
  86 0030 00000000 		.word	hi2c1
  87 0034 00540040 		.word	1073763328
  88 0038 A0860100 		.word	100000
  89              		.cfi_endproc
  90              	.LFE65:
  92              		.section	.text.HAL_I2C_MspInit,"ax",%progbits
  93              		.align	1
  94              		.global	HAL_I2C_MspInit
  95              		.syntax unified
  96              		.thumb
  97              		.thumb_func
  98              		.fpu softvfp
 100              	HAL_I2C_MspInit:
 101              	.LVL2:
 102              	.LFB66:
  48:Core/Src/i2c.c **** 
  49:Core/Src/i2c.c **** void HAL_I2C_MspInit(I2C_HandleTypeDef* i2cHandle)
  50:Core/Src/i2c.c **** {
 103              		.loc 1 50 1 is_stmt 1 view -0
 104              		.cfi_startproc
 105              		@ args = 0, pretend = 0, frame = 24
 106              		@ frame_needed = 0, uses_anonymous_args = 0
 107              		.loc 1 50 1 is_stmt 0 view .LVU26
 108 0000 10B5     		push	{r4, lr}
 109              	.LCFI1:
 110              		.cfi_def_cfa_offset 8
 111              		.cfi_offset 4, -8
 112              		.cfi_offset 14, -4
 113 0002 86B0     		sub	sp, sp, #24
 114              	.LCFI2:
 115              		.cfi_def_cfa_offset 32
  51:Core/Src/i2c.c **** 
  52:Core/Src/i2c.c ****   GPIO_InitTypeDef GPIO_InitStruct = {0};
 116              		.loc 1 52 3 is_stmt 1 view .LVU27
 117              		.loc 1 52 20 is_stmt 0 view .LVU28
 118 0004 0023     		movs	r3, #0
 119 0006 0293     		str	r3, [sp, #8]
 120 0008 0393     		str	r3, [sp, #12]
 121 000a 0493     		str	r3, [sp, #16]
ARM GAS  C:\Users\GKQ\AppData\Local\Temp\ccHeMgiB.s 			page 4


 122 000c 0593     		str	r3, [sp, #20]
  53:Core/Src/i2c.c ****   if(i2cHandle->Instance==I2C1)
 123              		.loc 1 53 3 is_stmt 1 view .LVU29
 124              		.loc 1 53 15 is_stmt 0 view .LVU30
 125 000e 0268     		ldr	r2, [r0]
 126              		.loc 1 53 5 view .LVU31
 127 0010 114B     		ldr	r3, .L11
 128 0012 9A42     		cmp	r2, r3
 129 0014 01D0     		beq	.L10
 130              	.LVL3:
 131              	.L7:
  54:Core/Src/i2c.c ****   {
  55:Core/Src/i2c.c ****   /* USER CODE BEGIN I2C1_MspInit 0 */
  56:Core/Src/i2c.c **** 
  57:Core/Src/i2c.c ****   /* USER CODE END I2C1_MspInit 0 */
  58:Core/Src/i2c.c ****   
  59:Core/Src/i2c.c ****     __HAL_RCC_GPIOB_CLK_ENABLE();
  60:Core/Src/i2c.c ****     /**I2C1 GPIO Configuration    
  61:Core/Src/i2c.c ****     PB6     ------> I2C1_SCL
  62:Core/Src/i2c.c ****     PB7     ------> I2C1_SDA 
  63:Core/Src/i2c.c ****     */
  64:Core/Src/i2c.c ****     GPIO_InitStruct.Pin = GPIO_PIN_6|GPIO_PIN_7;
  65:Core/Src/i2c.c ****     GPIO_InitStruct.Mode = GPIO_MODE_AF_OD;
  66:Core/Src/i2c.c ****     GPIO_InitStruct.Speed = GPIO_SPEED_FREQ_HIGH;
  67:Core/Src/i2c.c ****     HAL_GPIO_Init(GPIOB, &GPIO_InitStruct);
  68:Core/Src/i2c.c **** 
  69:Core/Src/i2c.c ****     /* I2C1 clock enable */
  70:Core/Src/i2c.c ****     __HAL_RCC_I2C1_CLK_ENABLE();
  71:Core/Src/i2c.c ****   /* USER CODE BEGIN I2C1_MspInit 1 */
  72:Core/Src/i2c.c **** 
  73:Core/Src/i2c.c ****   /* USER CODE END I2C1_MspInit 1 */
  74:Core/Src/i2c.c ****   }
  75:Core/Src/i2c.c **** }
 132              		.loc 1 75 1 view .LVU32
 133 0016 06B0     		add	sp, sp, #24
 134              	.LCFI3:
 135              		.cfi_remember_state
 136              		.cfi_def_cfa_offset 8
 137              		@ sp needed
 138 0018 10BD     		pop	{r4, pc}
 139              	.LVL4:
 140              	.L10:
 141              	.LCFI4:
 142              		.cfi_restore_state
  59:Core/Src/i2c.c ****     /**I2C1 GPIO Configuration    
 143              		.loc 1 59 5 is_stmt 1 view .LVU33
 144              	.LBB2:
  59:Core/Src/i2c.c ****     /**I2C1 GPIO Configuration    
 145              		.loc 1 59 5 view .LVU34
  59:Core/Src/i2c.c ****     /**I2C1 GPIO Configuration    
 146              		.loc 1 59 5 view .LVU35
 147 001a 104C     		ldr	r4, .L11+4
 148 001c A369     		ldr	r3, [r4, #24]
 149 001e 43F00803 		orr	r3, r3, #8
 150 0022 A361     		str	r3, [r4, #24]
  59:Core/Src/i2c.c ****     /**I2C1 GPIO Configuration    
 151              		.loc 1 59 5 view .LVU36
ARM GAS  C:\Users\GKQ\AppData\Local\Temp\ccHeMgiB.s 			page 5


 152 0024 A369     		ldr	r3, [r4, #24]
 153 0026 03F00803 		and	r3, r3, #8
 154 002a 0093     		str	r3, [sp]
  59:Core/Src/i2c.c ****     /**I2C1 GPIO Configuration    
 155              		.loc 1 59 5 view .LVU37
 156 002c 009B     		ldr	r3, [sp]
 157              	.LBE2:
  59:Core/Src/i2c.c ****     /**I2C1 GPIO Configuration    
 158              		.loc 1 59 5 view .LVU38
  64:Core/Src/i2c.c ****     GPIO_InitStruct.Mode = GPIO_MODE_AF_OD;
 159              		.loc 1 64 5 view .LVU39
  64:Core/Src/i2c.c ****     GPIO_InitStruct.Mode = GPIO_MODE_AF_OD;
 160              		.loc 1 64 25 is_stmt 0 view .LVU40
 161 002e C023     		movs	r3, #192
 162 0030 0293     		str	r3, [sp, #8]
  65:Core/Src/i2c.c ****     GPIO_InitStruct.Speed = GPIO_SPEED_FREQ_HIGH;
 163              		.loc 1 65 5 is_stmt 1 view .LVU41
  65:Core/Src/i2c.c ****     GPIO_InitStruct.Speed = GPIO_SPEED_FREQ_HIGH;
 164              		.loc 1 65 26 is_stmt 0 view .LVU42
 165 0032 1223     		movs	r3, #18
 166 0034 0393     		str	r3, [sp, #12]
  66:Core/Src/i2c.c ****     HAL_GPIO_Init(GPIOB, &GPIO_InitStruct);
 167              		.loc 1 66 5 is_stmt 1 view .LVU43
  66:Core/Src/i2c.c ****     HAL_GPIO_Init(GPIOB, &GPIO_InitStruct);
 168              		.loc 1 66 27 is_stmt 0 view .LVU44
 169 0036 0323     		movs	r3, #3
 170 0038 0593     		str	r3, [sp, #20]
  67:Core/Src/i2c.c **** 
 171              		.loc 1 67 5 is_stmt 1 view .LVU45
 172 003a 02A9     		add	r1, sp, #8
 173 003c 0848     		ldr	r0, .L11+8
 174              	.LVL5:
  67:Core/Src/i2c.c **** 
 175              		.loc 1 67 5 is_stmt 0 view .LVU46
 176 003e FFF7FEFF 		bl	HAL_GPIO_Init
 177              	.LVL6:
  70:Core/Src/i2c.c ****   /* USER CODE BEGIN I2C1_MspInit 1 */
 178              		.loc 1 70 5 is_stmt 1 view .LVU47
 179              	.LBB3:
  70:Core/Src/i2c.c ****   /* USER CODE BEGIN I2C1_MspInit 1 */
 180              		.loc 1 70 5 view .LVU48
  70:Core/Src/i2c.c ****   /* USER CODE BEGIN I2C1_MspInit 1 */
 181              		.loc 1 70 5 view .LVU49
 182 0042 E369     		ldr	r3, [r4, #28]
 183 0044 43F40013 		orr	r3, r3, #2097152
 184 0048 E361     		str	r3, [r4, #28]
  70:Core/Src/i2c.c ****   /* USER CODE BEGIN I2C1_MspInit 1 */
 185              		.loc 1 70 5 view .LVU50
 186 004a E369     		ldr	r3, [r4, #28]
 187 004c 03F40013 		and	r3, r3, #2097152
 188 0050 0193     		str	r3, [sp, #4]
  70:Core/Src/i2c.c ****   /* USER CODE BEGIN I2C1_MspInit 1 */
 189              		.loc 1 70 5 view .LVU51
 190 0052 019B     		ldr	r3, [sp, #4]
 191              	.LBE3:
  70:Core/Src/i2c.c ****   /* USER CODE BEGIN I2C1_MspInit 1 */
 192              		.loc 1 70 5 view .LVU52
ARM GAS  C:\Users\GKQ\AppData\Local\Temp\ccHeMgiB.s 			page 6


 193              		.loc 1 75 1 is_stmt 0 view .LVU53
 194 0054 DFE7     		b	.L7
 195              	.L12:
 196 0056 00BF     		.align	2
 197              	.L11:
 198 0058 00540040 		.word	1073763328
 199 005c 00100240 		.word	1073876992
 200 0060 000C0140 		.word	1073810432
 201              		.cfi_endproc
 202              	.LFE66:
 204              		.section	.text.HAL_I2C_MspDeInit,"ax",%progbits
 205              		.align	1
 206              		.global	HAL_I2C_MspDeInit
 207              		.syntax unified
 208              		.thumb
 209              		.thumb_func
 210              		.fpu softvfp
 212              	HAL_I2C_MspDeInit:
 213              	.LVL7:
 214              	.LFB67:
  76:Core/Src/i2c.c **** 
  77:Core/Src/i2c.c **** void HAL_I2C_MspDeInit(I2C_HandleTypeDef* i2cHandle)
  78:Core/Src/i2c.c **** {
 215              		.loc 1 78 1 is_stmt 1 view -0
 216              		.cfi_startproc
 217              		@ args = 0, pretend = 0, frame = 0
 218              		@ frame_needed = 0, uses_anonymous_args = 0
 219              		.loc 1 78 1 is_stmt 0 view .LVU55
 220 0000 08B5     		push	{r3, lr}
 221              	.LCFI5:
 222              		.cfi_def_cfa_offset 8
 223              		.cfi_offset 3, -8
 224              		.cfi_offset 14, -4
  79:Core/Src/i2c.c **** 
  80:Core/Src/i2c.c ****   if(i2cHandle->Instance==I2C1)
 225              		.loc 1 80 3 is_stmt 1 view .LVU56
 226              		.loc 1 80 15 is_stmt 0 view .LVU57
 227 0002 0268     		ldr	r2, [r0]
 228              		.loc 1 80 5 view .LVU58
 229 0004 064B     		ldr	r3, .L17
 230 0006 9A42     		cmp	r2, r3
 231 0008 00D0     		beq	.L16
 232              	.LVL8:
 233              	.L13:
  81:Core/Src/i2c.c ****   {
  82:Core/Src/i2c.c ****   /* USER CODE BEGIN I2C1_MspDeInit 0 */
  83:Core/Src/i2c.c **** 
  84:Core/Src/i2c.c ****   /* USER CODE END I2C1_MspDeInit 0 */
  85:Core/Src/i2c.c ****     /* Peripheral clock disable */
  86:Core/Src/i2c.c ****     __HAL_RCC_I2C1_CLK_DISABLE();
  87:Core/Src/i2c.c ****   
  88:Core/Src/i2c.c ****     /**I2C1 GPIO Configuration    
  89:Core/Src/i2c.c ****     PB6     ------> I2C1_SCL
  90:Core/Src/i2c.c ****     PB7     ------> I2C1_SDA 
  91:Core/Src/i2c.c ****     */
  92:Core/Src/i2c.c ****     HAL_GPIO_DeInit(GPIOB, GPIO_PIN_6|GPIO_PIN_7);
  93:Core/Src/i2c.c **** 
ARM GAS  C:\Users\GKQ\AppData\Local\Temp\ccHeMgiB.s 			page 7


  94:Core/Src/i2c.c ****   /* USER CODE BEGIN I2C1_MspDeInit 1 */
  95:Core/Src/i2c.c **** 
  96:Core/Src/i2c.c ****   /* USER CODE END I2C1_MspDeInit 1 */
  97:Core/Src/i2c.c ****   }
  98:Core/Src/i2c.c **** } 
 234              		.loc 1 98 1 view .LVU59
 235 000a 08BD     		pop	{r3, pc}
 236              	.LVL9:
 237              	.L16:
  86:Core/Src/i2c.c ****   
 238              		.loc 1 86 5 is_stmt 1 view .LVU60
 239 000c 054A     		ldr	r2, .L17+4
 240 000e D369     		ldr	r3, [r2, #28]
 241 0010 23F40013 		bic	r3, r3, #2097152
 242 0014 D361     		str	r3, [r2, #28]
  92:Core/Src/i2c.c **** 
 243              		.loc 1 92 5 view .LVU61
 244 0016 C021     		movs	r1, #192
 245 0018 0348     		ldr	r0, .L17+8
 246              	.LVL10:
  92:Core/Src/i2c.c **** 
 247              		.loc 1 92 5 is_stmt 0 view .LVU62
 248 001a FFF7FEFF 		bl	HAL_GPIO_DeInit
 249              	.LVL11:
 250              		.loc 1 98 1 view .LVU63
 251 001e F4E7     		b	.L13
 252              	.L18:
 253              		.align	2
 254              	.L17:
 255 0020 00540040 		.word	1073763328
 256 0024 00100240 		.word	1073876992
 257 0028 000C0140 		.word	1073810432
 258              		.cfi_endproc
 259              	.LFE67:
 261              		.comm	hi2c1,84,4
 262              		.text
 263              	.Letext0:
 264              		.file 2 "d:\\work_project\\9 2019-q4-major\\arm-none-eabi\\include\\machine\\_default_types.h"
 265              		.file 3 "d:\\work_project\\9 2019-q4-major\\arm-none-eabi\\include\\sys\\_stdint.h"
 266              		.file 4 "Drivers/CMSIS/Include/core_cm3.h"
 267              		.file 5 "Drivers/CMSIS/Device/ST/STM32F1xx/Include/system_stm32f1xx.h"
 268              		.file 6 "Drivers/CMSIS/Device/ST/STM32F1xx/Include/stm32f103xe.h"
 269              		.file 7 "Drivers/STM32F1xx_HAL_Driver/Inc/stm32f1xx_hal_def.h"
 270              		.file 8 "Drivers/STM32F1xx_HAL_Driver/Inc/stm32f1xx_hal_gpio.h"
 271              		.file 9 "Drivers/STM32F1xx_HAL_Driver/Inc/stm32f1xx_hal_dma.h"
 272              		.file 10 "Drivers/STM32F1xx_HAL_Driver/Inc/stm32f1xx_hal_i2c.h"
 273              		.file 11 "Drivers/STM32F1xx_HAL_Driver/Inc/stm32f1xx_hal.h"
 274              		.file 12 "Core/Inc/i2c.h"
 275              		.file 13 "Core/Inc/main.h"
ARM GAS  C:\Users\GKQ\AppData\Local\Temp\ccHeMgiB.s 			page 8

