ARM GAS  C:\Users\GKQ\AppData\Local\Temp\ccGpck3Y.s 			page 1


   1              		.cpu cortex-m3
   2              		.eabi_attribute 20, 1
   3              		.eabi_attribute 21, 1
   4              		.eabi_attribute 23, 3
   5              		.eabi_attribute 24, 1
   6              		.eabi_attribute 25, 1
   7              		.eabi_attribute 26, 1
   8              		.eabi_attribute 30, 1
   9              		.eabi_attribute 34, 1
  10              		.eabi_attribute 18, 4
  11              		.file	"main.c"
  12              		.text
  13              	.Ltext0:
  14              		.cfi_sections	.debug_frame
  15              		.section	.text.SystemClock_Config,"ax",%progbits
  16              		.align	1
  17              		.global	SystemClock_Config
  18              		.arch armv7-m
  19              		.syntax unified
  20              		.thumb
  21              		.thumb_func
  22              		.fpu softvfp
  24              	SystemClock_Config:
  25              	.LFB66:
  26              		.file 1 "Core/Src/main.c"
   1:Core/Src/main.c **** /* USER CODE BEGIN Header */
   2:Core/Src/main.c **** /**
   3:Core/Src/main.c ****   ******************************************************************************
   4:Core/Src/main.c ****   * @file           : main.c
   5:Core/Src/main.c ****   * @brief          : Main program body
   6:Core/Src/main.c ****   ******************************************************************************
   7:Core/Src/main.c ****   * @attention
   8:Core/Src/main.c ****   *
   9:Core/Src/main.c ****   * <h2><center>&copy; Copyright (c) 2020 STMicroelectronics.
  10:Core/Src/main.c ****   * All rights reserved.</center></h2>
  11:Core/Src/main.c ****   *
  12:Core/Src/main.c ****   * This software component is licensed by ST under BSD 3-Clause license,
  13:Core/Src/main.c ****   * the "License"; You may not use this file except in compliance with the
  14:Core/Src/main.c ****   * License. You may obtain a copy of the License at:
  15:Core/Src/main.c ****   *                        opensource.org/licenses/BSD-3-Clause
  16:Core/Src/main.c ****   *
  17:Core/Src/main.c ****   ******************************************************************************
  18:Core/Src/main.c ****   */
  19:Core/Src/main.c **** /* USER CODE END Header */
  20:Core/Src/main.c **** 
  21:Core/Src/main.c **** /* Includes ------------------------------------------------------------------*/
  22:Core/Src/main.c **** #include "main.h"
  23:Core/Src/main.c **** #include "i2c.h"
  24:Core/Src/main.c **** #include "tim.h"
  25:Core/Src/main.c **** #include "usart.h"
  26:Core/Src/main.c **** #include "gpio.h"
  27:Core/Src/main.c **** 
  28:Core/Src/main.c **** /* Private includes ----------------------------------------------------------*/
  29:Core/Src/main.c **** /* USER CODE BEGIN Includes */
  30:Core/Src/main.c **** #include "oled_init.h"
  31:Core/Src/main.c **** /* USER CODE END Includes */
  32:Core/Src/main.c **** 
ARM GAS  C:\Users\GKQ\AppData\Local\Temp\ccGpck3Y.s 			page 2


  33:Core/Src/main.c **** /* Private typedef -----------------------------------------------------------*/
  34:Core/Src/main.c **** /* USER CODE BEGIN PTD */
  35:Core/Src/main.c **** 
  36:Core/Src/main.c **** /* USER CODE END PTD */
  37:Core/Src/main.c **** 
  38:Core/Src/main.c **** /* Private define ------------------------------------------------------------*/
  39:Core/Src/main.c **** /* USER CODE BEGIN PD */
  40:Core/Src/main.c **** /* USER CODE END PD */
  41:Core/Src/main.c **** 
  42:Core/Src/main.c **** /* Private macro -------------------------------------------------------------*/
  43:Core/Src/main.c **** /* USER CODE BEGIN PM */
  44:Core/Src/main.c **** 
  45:Core/Src/main.c **** /* USER CODE END PM */
  46:Core/Src/main.c **** 
  47:Core/Src/main.c **** /* Private variables ---------------------------------------------------------*/
  48:Core/Src/main.c **** 
  49:Core/Src/main.c **** /* USER CODE BEGIN PV */
  50:Core/Src/main.c **** 
  51:Core/Src/main.c **** /* USER CODE END PV */
  52:Core/Src/main.c **** 
  53:Core/Src/main.c **** /* Private function prototypes -----------------------------------------------*/
  54:Core/Src/main.c **** void SystemClock_Config(void);
  55:Core/Src/main.c **** /* USER CODE BEGIN PFP */
  56:Core/Src/main.c **** 
  57:Core/Src/main.c **** /* USER CODE END PFP */
  58:Core/Src/main.c **** 
  59:Core/Src/main.c **** /* Private user code ---------------------------------------------------------*/
  60:Core/Src/main.c **** /* USER CODE BEGIN 0 */
  61:Core/Src/main.c **** 
  62:Core/Src/main.c **** /* USER CODE END 0 */
  63:Core/Src/main.c **** 
  64:Core/Src/main.c **** /**
  65:Core/Src/main.c ****   * @brief  The application entry point.
  66:Core/Src/main.c ****   * @retval int
  67:Core/Src/main.c ****   */
  68:Core/Src/main.c **** int main(void)
  69:Core/Src/main.c **** {
  70:Core/Src/main.c ****     /* USER CODE BEGIN 1 */
  71:Core/Src/main.c **** 
  72:Core/Src/main.c ****     /* USER CODE END 1 */
  73:Core/Src/main.c **** 
  74:Core/Src/main.c ****     /* MCU Configuration--------------------------------------------------------*/
  75:Core/Src/main.c **** 
  76:Core/Src/main.c ****     /* Reset of all peripherals, Initializes the Flash interface and the Systick. */
  77:Core/Src/main.c ****     HAL_Init();
  78:Core/Src/main.c **** 
  79:Core/Src/main.c ****     /* USER CODE BEGIN Init */
  80:Core/Src/main.c **** 
  81:Core/Src/main.c ****     /* USER CODE END Init */
  82:Core/Src/main.c **** 
  83:Core/Src/main.c ****     /* Configure the system clock */
  84:Core/Src/main.c ****     SystemClock_Config();
  85:Core/Src/main.c **** 
  86:Core/Src/main.c ****     /* USER CODE BEGIN SysInit */
  87:Core/Src/main.c **** 
  88:Core/Src/main.c ****     /* USER CODE END SysInit */
  89:Core/Src/main.c **** 
ARM GAS  C:\Users\GKQ\AppData\Local\Temp\ccGpck3Y.s 			page 3


  90:Core/Src/main.c ****     /* Initialize all configured peripherals */
  91:Core/Src/main.c ****     MX_GPIO_Init();
  92:Core/Src/main.c ****     MX_I2C1_Init();
  93:Core/Src/main.c ****     MX_TIM6_Init();
  94:Core/Src/main.c ****     MX_USART1_UART_Init();
  95:Core/Src/main.c ****     /* USER CODE BEGIN 2 */
  96:Core/Src/main.c ****     u8g2_t u8g2;                                                                                   
  97:Core/Src/main.c ****     u8g2Init(&u8g2);
  98:Core/Src/main.c ****     /* USER CODE END 2 */
  99:Core/Src/main.c **** 
 100:Core/Src/main.c ****     /* Infinite loop */
 101:Core/Src/main.c ****     /* USER CODE BEGIN WHILE */
 102:Core/Src/main.c ****     while (1)
 103:Core/Src/main.c ****     {
 104:Core/Src/main.c ****         /* USER CODE END WHILE */
 105:Core/Src/main.c **** 
 106:Core/Src/main.c ****         /* USER CODE BEGIN 3 */
 107:Core/Src/main.c ****         u8g2_DrawCircle(&u8g2, 64, 32, 30, U8G2_DRAW_ALL);
 108:Core/Src/main.c ****         u8g2_SendBuffer(&u8g2);
 109:Core/Src/main.c ****         HAL_Delay(1000);
 110:Core/Src/main.c ****     }
 111:Core/Src/main.c ****     /* USER CODE END 3 */
 112:Core/Src/main.c **** }
 113:Core/Src/main.c **** 
 114:Core/Src/main.c **** /**
 115:Core/Src/main.c ****   * @brief System Clock Configuration
 116:Core/Src/main.c ****   * @retval None
 117:Core/Src/main.c ****   */
 118:Core/Src/main.c **** void SystemClock_Config(void)
 119:Core/Src/main.c **** {
  27              		.loc 1 119 1 view -0
  28              		.cfi_startproc
  29              		@ args = 0, pretend = 0, frame = 64
  30              		@ frame_needed = 0, uses_anonymous_args = 0
  31 0000 30B5     		push	{r4, r5, lr}
  32              	.LCFI0:
  33              		.cfi_def_cfa_offset 12
  34              		.cfi_offset 4, -12
  35              		.cfi_offset 5, -8
  36              		.cfi_offset 14, -4
  37 0002 91B0     		sub	sp, sp, #68
  38              	.LCFI1:
  39              		.cfi_def_cfa_offset 80
 120:Core/Src/main.c ****     RCC_OscInitTypeDef RCC_OscInitStruct = {0};
  40              		.loc 1 120 5 view .LVU1
  41              		.loc 1 120 24 is_stmt 0 view .LVU2
  42 0004 0024     		movs	r4, #0
  43 0006 0994     		str	r4, [sp, #36]
  44 0008 0B94     		str	r4, [sp, #44]
  45 000a 0C94     		str	r4, [sp, #48]
 121:Core/Src/main.c ****     RCC_ClkInitTypeDef RCC_ClkInitStruct = {0};
  46              		.loc 1 121 5 is_stmt 1 view .LVU3
  47              		.loc 1 121 24 is_stmt 0 view .LVU4
  48 000c 0194     		str	r4, [sp, #4]
  49 000e 0294     		str	r4, [sp, #8]
  50 0010 0394     		str	r4, [sp, #12]
  51 0012 0494     		str	r4, [sp, #16]
ARM GAS  C:\Users\GKQ\AppData\Local\Temp\ccGpck3Y.s 			page 4


  52 0014 0594     		str	r4, [sp, #20]
 122:Core/Src/main.c **** 
 123:Core/Src/main.c ****     /** Initializes the CPU, AHB and APB busses clocks 
 124:Core/Src/main.c ****   */
 125:Core/Src/main.c ****     RCC_OscInitStruct.OscillatorType = RCC_OSCILLATORTYPE_HSE;
  53              		.loc 1 125 5 is_stmt 1 view .LVU5
  54              		.loc 1 125 38 is_stmt 0 view .LVU6
  55 0016 0122     		movs	r2, #1
  56 0018 0692     		str	r2, [sp, #24]
 126:Core/Src/main.c ****     RCC_OscInitStruct.HSEState = RCC_HSE_ON;
  57              		.loc 1 126 5 is_stmt 1 view .LVU7
  58              		.loc 1 126 32 is_stmt 0 view .LVU8
  59 001a 4FF48033 		mov	r3, #65536
  60 001e 0793     		str	r3, [sp, #28]
 127:Core/Src/main.c ****     RCC_OscInitStruct.HSEPredivValue = RCC_HSE_PREDIV_DIV1;
  61              		.loc 1 127 5 is_stmt 1 view .LVU9
  62              		.loc 1 127 38 is_stmt 0 view .LVU10
  63 0020 0894     		str	r4, [sp, #32]
 128:Core/Src/main.c ****     RCC_OscInitStruct.HSIState = RCC_HSI_ON;
  64              		.loc 1 128 5 is_stmt 1 view .LVU11
  65              		.loc 1 128 32 is_stmt 0 view .LVU12
  66 0022 0A92     		str	r2, [sp, #40]
 129:Core/Src/main.c ****     RCC_OscInitStruct.PLL.PLLState = RCC_PLL_ON;
  67              		.loc 1 129 5 is_stmt 1 view .LVU13
  68              		.loc 1 129 36 is_stmt 0 view .LVU14
  69 0024 0225     		movs	r5, #2
  70 0026 0D95     		str	r5, [sp, #52]
 130:Core/Src/main.c ****     RCC_OscInitStruct.PLL.PLLSource = RCC_PLLSOURCE_HSE;
  71              		.loc 1 130 5 is_stmt 1 view .LVU15
  72              		.loc 1 130 37 is_stmt 0 view .LVU16
  73 0028 0E93     		str	r3, [sp, #56]
 131:Core/Src/main.c ****     RCC_OscInitStruct.PLL.PLLMUL = RCC_PLL_MUL9;
  74              		.loc 1 131 5 is_stmt 1 view .LVU17
  75              		.loc 1 131 34 is_stmt 0 view .LVU18
  76 002a 4FF4E013 		mov	r3, #1835008
  77 002e 0F93     		str	r3, [sp, #60]
 132:Core/Src/main.c ****     if (HAL_RCC_OscConfig(&RCC_OscInitStruct) != HAL_OK)
  78              		.loc 1 132 5 is_stmt 1 view .LVU19
  79              		.loc 1 132 9 is_stmt 0 view .LVU20
  80 0030 06A8     		add	r0, sp, #24
  81 0032 FFF7FEFF 		bl	HAL_RCC_OscConfig
  82              	.LVL0:
 133:Core/Src/main.c ****     {
 134:Core/Src/main.c ****         Error_Handler();
 135:Core/Src/main.c ****     }
 136:Core/Src/main.c ****     /** Initializes the CPU, AHB and APB busses clocks 
 137:Core/Src/main.c ****   */
 138:Core/Src/main.c ****     RCC_ClkInitStruct.ClockType = RCC_CLOCKTYPE_HCLK | RCC_CLOCKTYPE_SYSCLK | RCC_CLOCKTYPE_PCLK1 |
  83              		.loc 1 138 5 is_stmt 1 view .LVU21
  84              		.loc 1 138 33 is_stmt 0 view .LVU22
  85 0036 0F23     		movs	r3, #15
  86 0038 0193     		str	r3, [sp, #4]
 139:Core/Src/main.c ****     RCC_ClkInitStruct.SYSCLKSource = RCC_SYSCLKSOURCE_PLLCLK;
  87              		.loc 1 139 5 is_stmt 1 view .LVU23
  88              		.loc 1 139 36 is_stmt 0 view .LVU24
  89 003a 0295     		str	r5, [sp, #8]
 140:Core/Src/main.c ****     RCC_ClkInitStruct.AHBCLKDivider = RCC_SYSCLK_DIV1;
ARM GAS  C:\Users\GKQ\AppData\Local\Temp\ccGpck3Y.s 			page 5


  90              		.loc 1 140 5 is_stmt 1 view .LVU25
  91              		.loc 1 140 37 is_stmt 0 view .LVU26
  92 003c 0394     		str	r4, [sp, #12]
 141:Core/Src/main.c ****     RCC_ClkInitStruct.APB1CLKDivider = RCC_HCLK_DIV2;
  93              		.loc 1 141 5 is_stmt 1 view .LVU27
  94              		.loc 1 141 38 is_stmt 0 view .LVU28
  95 003e 4FF48063 		mov	r3, #1024
  96 0042 0493     		str	r3, [sp, #16]
 142:Core/Src/main.c ****     RCC_ClkInitStruct.APB2CLKDivider = RCC_HCLK_DIV1;
  97              		.loc 1 142 5 is_stmt 1 view .LVU29
  98              		.loc 1 142 38 is_stmt 0 view .LVU30
  99 0044 0594     		str	r4, [sp, #20]
 143:Core/Src/main.c **** 
 144:Core/Src/main.c ****     if (HAL_RCC_ClockConfig(&RCC_ClkInitStruct, FLASH_LATENCY_2) != HAL_OK)
 100              		.loc 1 144 5 is_stmt 1 view .LVU31
 101              		.loc 1 144 9 is_stmt 0 view .LVU32
 102 0046 2946     		mov	r1, r5
 103 0048 01A8     		add	r0, sp, #4
 104 004a FFF7FEFF 		bl	HAL_RCC_ClockConfig
 105              	.LVL1:
 145:Core/Src/main.c ****     {
 146:Core/Src/main.c ****         Error_Handler();
 147:Core/Src/main.c ****     }
 148:Core/Src/main.c **** }
 106              		.loc 1 148 1 view .LVU33
 107 004e 11B0     		add	sp, sp, #68
 108              	.LCFI2:
 109              		.cfi_def_cfa_offset 12
 110              		@ sp needed
 111 0050 30BD     		pop	{r4, r5, pc}
 112              		.cfi_endproc
 113              	.LFE66:
 115              		.section	.text.main,"ax",%progbits
 116              		.align	1
 117              		.global	main
 118              		.syntax unified
 119              		.thumb
 120              		.thumb_func
 121              		.fpu softvfp
 123              	main:
 124              	.LFB65:
  69:Core/Src/main.c ****     /* USER CODE BEGIN 1 */
 125              		.loc 1 69 1 is_stmt 1 view -0
 126              		.cfi_startproc
 127              		@ Volatile: function does not return.
 128              		@ args = 0, pretend = 0, frame = 136
 129              		@ frame_needed = 0, uses_anonymous_args = 0
 130 0000 00B5     		push	{lr}
 131              	.LCFI3:
 132              		.cfi_def_cfa_offset 4
 133              		.cfi_offset 14, -4
 134 0002 A5B0     		sub	sp, sp, #148
 135              	.LCFI4:
 136              		.cfi_def_cfa_offset 152
  77:Core/Src/main.c **** 
 137              		.loc 1 77 5 view .LVU35
 138 0004 FFF7FEFF 		bl	HAL_Init
ARM GAS  C:\Users\GKQ\AppData\Local\Temp\ccGpck3Y.s 			page 6


 139              	.LVL2:
  84:Core/Src/main.c **** 
 140              		.loc 1 84 5 view .LVU36
 141 0008 FFF7FEFF 		bl	SystemClock_Config
 142              	.LVL3:
  91:Core/Src/main.c ****     MX_I2C1_Init();
 143              		.loc 1 91 5 view .LVU37
 144 000c FFF7FEFF 		bl	MX_GPIO_Init
 145              	.LVL4:
  92:Core/Src/main.c ****     MX_TIM6_Init();
 146              		.loc 1 92 5 view .LVU38
 147 0010 FFF7FEFF 		bl	MX_I2C1_Init
 148              	.LVL5:
  93:Core/Src/main.c ****     MX_USART1_UART_Init();
 149              		.loc 1 93 5 view .LVU39
 150 0014 FFF7FEFF 		bl	MX_TIM6_Init
 151              	.LVL6:
  94:Core/Src/main.c ****     /* USER CODE BEGIN 2 */
 152              		.loc 1 94 5 view .LVU40
 153 0018 FFF7FEFF 		bl	MX_USART1_UART_Init
 154              	.LVL7:
  96:Core/Src/main.c ****     u8g2Init(&u8g2);
 155              		.loc 1 96 5 view .LVU41
  97:Core/Src/main.c ****     /* USER CODE END 2 */
 156              		.loc 1 97 5 view .LVU42
 157 001c 03A8     		add	r0, sp, #12
 158 001e FFF7FEFF 		bl	u8g2Init
 159              	.LVL8:
 160              	.L4:
 102:Core/Src/main.c ****     {
 161              		.loc 1 102 5 discriminator 1 view .LVU43
 107:Core/Src/main.c ****         u8g2_SendBuffer(&u8g2);
 162              		.loc 1 107 9 discriminator 1 view .LVU44
 163 0022 0F23     		movs	r3, #15
 164 0024 0093     		str	r3, [sp]
 165 0026 1E23     		movs	r3, #30
 166 0028 2022     		movs	r2, #32
 167 002a 4021     		movs	r1, #64
 168 002c 03A8     		add	r0, sp, #12
 169 002e FFF7FEFF 		bl	u8g2_DrawCircle
 170              	.LVL9:
 108:Core/Src/main.c ****         HAL_Delay(1000);
 171              		.loc 1 108 9 discriminator 1 view .LVU45
 172 0032 03A8     		add	r0, sp, #12
 173 0034 FFF7FEFF 		bl	u8g2_SendBuffer
 174              	.LVL10:
 109:Core/Src/main.c ****     }
 175              		.loc 1 109 9 discriminator 1 view .LVU46
 176 0038 4FF47A70 		mov	r0, #1000
 177 003c FFF7FEFF 		bl	HAL_Delay
 178              	.LVL11:
 102:Core/Src/main.c ****     {
 179              		.loc 1 102 11 discriminator 1 view .LVU47
 180 0040 EFE7     		b	.L4
 181              		.cfi_endproc
 182              	.LFE65:
 184              		.section	.text.Error_Handler,"ax",%progbits
ARM GAS  C:\Users\GKQ\AppData\Local\Temp\ccGpck3Y.s 			page 7


 185              		.align	1
 186              		.global	Error_Handler
 187              		.syntax unified
 188              		.thumb
 189              		.thumb_func
 190              		.fpu softvfp
 192              	Error_Handler:
 193              	.LFB67:
 149:Core/Src/main.c **** 
 150:Core/Src/main.c **** /* USER CODE BEGIN 4 */
 151:Core/Src/main.c **** 
 152:Core/Src/main.c **** /* USER CODE END 4 */
 153:Core/Src/main.c **** 
 154:Core/Src/main.c **** /**
 155:Core/Src/main.c ****   * @brief  This function is executed in case of error occurrence.
 156:Core/Src/main.c ****   * @retval None
 157:Core/Src/main.c ****   */
 158:Core/Src/main.c **** void Error_Handler(void)
 159:Core/Src/main.c **** {
 194              		.loc 1 159 1 view -0
 195              		.cfi_startproc
 196              		@ args = 0, pretend = 0, frame = 0
 197              		@ frame_needed = 0, uses_anonymous_args = 0
 198              		@ link register save eliminated.
 160:Core/Src/main.c ****     /* USER CODE BEGIN Error_Handler_Debug */
 161:Core/Src/main.c ****     /* User can add his own implementation to report the HAL error return state */
 162:Core/Src/main.c **** 
 163:Core/Src/main.c ****     /* USER CODE END Error_Handler_Debug */
 164:Core/Src/main.c **** }
 199              		.loc 1 164 1 view .LVU49
 200 0000 7047     		bx	lr
 201              		.cfi_endproc
 202              	.LFE67:
 204              		.text
 205              	.Letext0:
 206              		.file 2 "d:\\work_project\\9 2019-q4-major\\arm-none-eabi\\include\\machine\\_default_types.h"
 207              		.file 3 "d:\\work_project\\9 2019-q4-major\\arm-none-eabi\\include\\sys\\_stdint.h"
 208              		.file 4 "Drivers/CMSIS/Include/core_cm3.h"
 209              		.file 5 "Drivers/CMSIS/Device/ST/STM32F1xx/Include/system_stm32f1xx.h"
 210              		.file 6 "Drivers/CMSIS/Device/ST/STM32F1xx/Include/stm32f103xe.h"
 211              		.file 7 "Drivers/STM32F1xx_HAL_Driver/Inc/stm32f1xx_hal_def.h"
 212              		.file 8 "Drivers/STM32F1xx_HAL_Driver/Inc/stm32f1xx_hal_rcc.h"
 213              		.file 9 "Drivers/STM32F1xx_HAL_Driver/Inc/stm32f1xx_hal_rcc_ex.h"
 214              		.file 10 "Drivers/STM32F1xx_HAL_Driver/Inc/stm32f1xx_hal_dma.h"
 215              		.file 11 "Drivers/STM32F1xx_HAL_Driver/Inc/stm32f1xx_hal_i2c.h"
 216              		.file 12 "Drivers/STM32F1xx_HAL_Driver/Inc/stm32f1xx_hal_tim.h"
 217              		.file 13 "Drivers/STM32F1xx_HAL_Driver/Inc/stm32f1xx_hal_uart.h"
 218              		.file 14 "Drivers/STM32F1xx_HAL_Driver/Inc/stm32f1xx_hal.h"
 219              		.file 15 "Core/Inc/i2c.h"
 220              		.file 16 "Core/Inc/tim.h"
 221              		.file 17 "Core/Inc/usart.h"
 222              		.file 18 "u8g2_lib/u8x8.h"
 223              		.file 19 "u8g2_lib/u8g2.h"
 224              		.file 20 "Core/Inc/gpio.h"
 225              		.file 21 "Core/Inc/oled_init.h"
ARM GAS  C:\Users\GKQ\AppData\Local\Temp\ccGpck3Y.s 			page 8

