ARM GAS  C:\Users\GKQ\AppData\Local\Temp\cc9A8dUV.s 			page 1


   1              		.cpu cortex-m3
   2              		.eabi_attribute 20, 1
   3              		.eabi_attribute 21, 1
   4              		.eabi_attribute 23, 3
   5              		.eabi_attribute 24, 1
   6              		.eabi_attribute 25, 1
   7              		.eabi_attribute 26, 1
   8              		.eabi_attribute 30, 1
   9              		.eabi_attribute 34, 1
  10              		.eabi_attribute 18, 4
  11              		.file	"tim.c"
  12              		.text
  13              	.Ltext0:
  14              		.cfi_sections	.debug_frame
  15              		.section	.text.MX_TIM6_Init,"ax",%progbits
  16              		.align	1
  17              		.global	MX_TIM6_Init
  18              		.arch armv7-m
  19              		.syntax unified
  20              		.thumb
  21              		.thumb_func
  22              		.fpu softvfp
  24              	MX_TIM6_Init:
  25              	.LFB65:
  26              		.file 1 "Core/Src/tim.c"
   1:Core/Src/tim.c **** /**
   2:Core/Src/tim.c ****   ******************************************************************************
   3:Core/Src/tim.c ****   * File Name          : TIM.c
   4:Core/Src/tim.c ****   * Description        : This file provides code for the configuration
   5:Core/Src/tim.c ****   *                      of the TIM instances.
   6:Core/Src/tim.c ****   ******************************************************************************
   7:Core/Src/tim.c ****   * @attention
   8:Core/Src/tim.c ****   *
   9:Core/Src/tim.c ****   * <h2><center>&copy; Copyright (c) 2020 STMicroelectronics.
  10:Core/Src/tim.c ****   * All rights reserved.</center></h2>
  11:Core/Src/tim.c ****   *
  12:Core/Src/tim.c ****   * This software component is licensed by ST under BSD 3-Clause license,
  13:Core/Src/tim.c ****   * the "License"; You may not use this file except in compliance with the
  14:Core/Src/tim.c ****   * License. You may obtain a copy of the License at:
  15:Core/Src/tim.c ****   *                        opensource.org/licenses/BSD-3-Clause
  16:Core/Src/tim.c ****   *
  17:Core/Src/tim.c ****   ******************************************************************************
  18:Core/Src/tim.c ****   */
  19:Core/Src/tim.c **** 
  20:Core/Src/tim.c **** /* Includes ------------------------------------------------------------------*/
  21:Core/Src/tim.c **** #include "tim.h"
  22:Core/Src/tim.c **** 
  23:Core/Src/tim.c **** /* USER CODE BEGIN 0 */
  24:Core/Src/tim.c **** 
  25:Core/Src/tim.c **** /* USER CODE END 0 */
  26:Core/Src/tim.c **** 
  27:Core/Src/tim.c **** TIM_HandleTypeDef htim6;
  28:Core/Src/tim.c **** 
  29:Core/Src/tim.c **** /* TIM6 init function */
  30:Core/Src/tim.c **** void MX_TIM6_Init(void)
  31:Core/Src/tim.c **** {
  27              		.loc 1 31 1 view -0
ARM GAS  C:\Users\GKQ\AppData\Local\Temp\cc9A8dUV.s 			page 2


  28              		.cfi_startproc
  29              		@ args = 0, pretend = 0, frame = 8
  30              		@ frame_needed = 0, uses_anonymous_args = 0
  31 0000 00B5     		push	{lr}
  32              	.LCFI0:
  33              		.cfi_def_cfa_offset 4
  34              		.cfi_offset 14, -4
  35 0002 83B0     		sub	sp, sp, #12
  36              	.LCFI1:
  37              		.cfi_def_cfa_offset 16
  32:Core/Src/tim.c ****   TIM_MasterConfigTypeDef sMasterConfig = {0};
  38              		.loc 1 32 3 view .LVU1
  39              		.loc 1 32 27 is_stmt 0 view .LVU2
  40 0004 0023     		movs	r3, #0
  41 0006 0093     		str	r3, [sp]
  42 0008 0193     		str	r3, [sp, #4]
  33:Core/Src/tim.c **** 
  34:Core/Src/tim.c ****   htim6.Instance = TIM6;
  43              		.loc 1 34 3 is_stmt 1 view .LVU3
  44              		.loc 1 34 18 is_stmt 0 view .LVU4
  45 000a 0F48     		ldr	r0, .L7
  46 000c 0F4A     		ldr	r2, .L7+4
  47 000e 0260     		str	r2, [r0]
  35:Core/Src/tim.c ****   htim6.Init.Prescaler = 72-1;
  48              		.loc 1 35 3 is_stmt 1 view .LVU5
  49              		.loc 1 35 24 is_stmt 0 view .LVU6
  50 0010 4722     		movs	r2, #71
  51 0012 4260     		str	r2, [r0, #4]
  36:Core/Src/tim.c ****   htim6.Init.CounterMode = TIM_COUNTERMODE_UP;
  52              		.loc 1 36 3 is_stmt 1 view .LVU7
  53              		.loc 1 36 26 is_stmt 0 view .LVU8
  54 0014 8360     		str	r3, [r0, #8]
  37:Core/Src/tim.c ****   htim6.Init.Period = 5000-1;
  55              		.loc 1 37 3 is_stmt 1 view .LVU9
  56              		.loc 1 37 21 is_stmt 0 view .LVU10
  57 0016 41F28732 		movw	r2, #4999
  58 001a C260     		str	r2, [r0, #12]
  38:Core/Src/tim.c ****   htim6.Init.AutoReloadPreload = TIM_AUTORELOAD_PRELOAD_DISABLE;
  59              		.loc 1 38 3 is_stmt 1 view .LVU11
  60              		.loc 1 38 32 is_stmt 0 view .LVU12
  61 001c 8361     		str	r3, [r0, #24]
  39:Core/Src/tim.c ****   if (HAL_TIM_Base_Init(&htim6) != HAL_OK)
  62              		.loc 1 39 3 is_stmt 1 view .LVU13
  63              		.loc 1 39 7 is_stmt 0 view .LVU14
  64 001e FFF7FEFF 		bl	HAL_TIM_Base_Init
  65              	.LVL0:
  66              		.loc 1 39 6 view .LVU15
  67 0022 50B9     		cbnz	r0, .L5
  68              	.L2:
  40:Core/Src/tim.c ****   {
  41:Core/Src/tim.c ****     Error_Handler();
  42:Core/Src/tim.c ****   }
  43:Core/Src/tim.c ****   sMasterConfig.MasterOutputTrigger = TIM_TRGO_RESET;
  69              		.loc 1 43 3 is_stmt 1 view .LVU16
  70              		.loc 1 43 37 is_stmt 0 view .LVU17
  71 0024 0023     		movs	r3, #0
  72 0026 0093     		str	r3, [sp]
ARM GAS  C:\Users\GKQ\AppData\Local\Temp\cc9A8dUV.s 			page 3


  44:Core/Src/tim.c ****   sMasterConfig.MasterSlaveMode = TIM_MASTERSLAVEMODE_DISABLE;
  73              		.loc 1 44 3 is_stmt 1 view .LVU18
  74              		.loc 1 44 33 is_stmt 0 view .LVU19
  75 0028 0193     		str	r3, [sp, #4]
  45:Core/Src/tim.c ****   if (HAL_TIMEx_MasterConfigSynchronization(&htim6, &sMasterConfig) != HAL_OK)
  76              		.loc 1 45 3 is_stmt 1 view .LVU20
  77              		.loc 1 45 7 is_stmt 0 view .LVU21
  78 002a 6946     		mov	r1, sp
  79 002c 0648     		ldr	r0, .L7
  80 002e FFF7FEFF 		bl	HAL_TIMEx_MasterConfigSynchronization
  81              	.LVL1:
  82              		.loc 1 45 6 view .LVU22
  83 0032 28B9     		cbnz	r0, .L6
  84              	.L1:
  46:Core/Src/tim.c ****   {
  47:Core/Src/tim.c ****     Error_Handler();
  48:Core/Src/tim.c ****   }
  49:Core/Src/tim.c **** 
  50:Core/Src/tim.c **** }
  85              		.loc 1 50 1 view .LVU23
  86 0034 03B0     		add	sp, sp, #12
  87              	.LCFI2:
  88              		.cfi_remember_state
  89              		.cfi_def_cfa_offset 4
  90              		@ sp needed
  91 0036 5DF804FB 		ldr	pc, [sp], #4
  92              	.L5:
  93              	.LCFI3:
  94              		.cfi_restore_state
  41:Core/Src/tim.c ****   }
  95              		.loc 1 41 5 is_stmt 1 view .LVU24
  96 003a FFF7FEFF 		bl	Error_Handler
  97              	.LVL2:
  98 003e F1E7     		b	.L2
  99              	.L6:
  47:Core/Src/tim.c ****   }
 100              		.loc 1 47 5 view .LVU25
 101 0040 FFF7FEFF 		bl	Error_Handler
 102              	.LVL3:
 103              		.loc 1 50 1 is_stmt 0 view .LVU26
 104 0044 F6E7     		b	.L1
 105              	.L8:
 106 0046 00BF     		.align	2
 107              	.L7:
 108 0048 00000000 		.word	htim6
 109 004c 00100040 		.word	1073745920
 110              		.cfi_endproc
 111              	.LFE65:
 113              		.section	.text.HAL_TIM_Base_MspInit,"ax",%progbits
 114              		.align	1
 115              		.global	HAL_TIM_Base_MspInit
 116              		.syntax unified
 117              		.thumb
 118              		.thumb_func
 119              		.fpu softvfp
 121              	HAL_TIM_Base_MspInit:
 122              	.LVL4:
ARM GAS  C:\Users\GKQ\AppData\Local\Temp\cc9A8dUV.s 			page 4


 123              	.LFB66:
  51:Core/Src/tim.c **** 
  52:Core/Src/tim.c **** void HAL_TIM_Base_MspInit(TIM_HandleTypeDef* tim_baseHandle)
  53:Core/Src/tim.c **** {
 124              		.loc 1 53 1 is_stmt 1 view -0
 125              		.cfi_startproc
 126              		@ args = 0, pretend = 0, frame = 8
 127              		@ frame_needed = 0, uses_anonymous_args = 0
 128              		@ link register save eliminated.
  54:Core/Src/tim.c **** 
  55:Core/Src/tim.c ****   if(tim_baseHandle->Instance==TIM6)
 129              		.loc 1 55 3 view .LVU28
 130              		.loc 1 55 20 is_stmt 0 view .LVU29
 131 0000 0268     		ldr	r2, [r0]
 132              		.loc 1 55 5 view .LVU30
 133 0002 094B     		ldr	r3, .L16
 134 0004 9A42     		cmp	r2, r3
 135 0006 00D0     		beq	.L15
 136 0008 7047     		bx	lr
 137              	.L15:
  53:Core/Src/tim.c **** 
 138              		.loc 1 53 1 view .LVU31
 139 000a 82B0     		sub	sp, sp, #8
 140              	.LCFI4:
 141              		.cfi_def_cfa_offset 8
  56:Core/Src/tim.c ****   {
  57:Core/Src/tim.c ****   /* USER CODE BEGIN TIM6_MspInit 0 */
  58:Core/Src/tim.c **** 
  59:Core/Src/tim.c ****   /* USER CODE END TIM6_MspInit 0 */
  60:Core/Src/tim.c ****     /* TIM6 clock enable */
  61:Core/Src/tim.c ****     __HAL_RCC_TIM6_CLK_ENABLE();
 142              		.loc 1 61 5 is_stmt 1 view .LVU32
 143              	.LBB2:
 144              		.loc 1 61 5 view .LVU33
 145              		.loc 1 61 5 view .LVU34
 146 000c 03F50033 		add	r3, r3, #131072
 147 0010 DA69     		ldr	r2, [r3, #28]
 148 0012 42F01002 		orr	r2, r2, #16
 149 0016 DA61     		str	r2, [r3, #28]
 150              		.loc 1 61 5 view .LVU35
 151 0018 DB69     		ldr	r3, [r3, #28]
 152 001a 03F01003 		and	r3, r3, #16
 153 001e 0193     		str	r3, [sp, #4]
 154              		.loc 1 61 5 view .LVU36
 155 0020 019B     		ldr	r3, [sp, #4]
 156              	.LBE2:
 157              		.loc 1 61 5 view .LVU37
  62:Core/Src/tim.c ****   /* USER CODE BEGIN TIM6_MspInit 1 */
  63:Core/Src/tim.c **** 
  64:Core/Src/tim.c ****   /* USER CODE END TIM6_MspInit 1 */
  65:Core/Src/tim.c ****   }
  66:Core/Src/tim.c **** }
 158              		.loc 1 66 1 is_stmt 0 view .LVU38
 159 0022 02B0     		add	sp, sp, #8
 160              	.LCFI5:
 161              		.cfi_def_cfa_offset 0
 162              		@ sp needed
ARM GAS  C:\Users\GKQ\AppData\Local\Temp\cc9A8dUV.s 			page 5


 163 0024 7047     		bx	lr
 164              	.L17:
 165 0026 00BF     		.align	2
 166              	.L16:
 167 0028 00100040 		.word	1073745920
 168              		.cfi_endproc
 169              	.LFE66:
 171              		.section	.text.HAL_TIM_Base_MspDeInit,"ax",%progbits
 172              		.align	1
 173              		.global	HAL_TIM_Base_MspDeInit
 174              		.syntax unified
 175              		.thumb
 176              		.thumb_func
 177              		.fpu softvfp
 179              	HAL_TIM_Base_MspDeInit:
 180              	.LVL5:
 181              	.LFB67:
  67:Core/Src/tim.c **** 
  68:Core/Src/tim.c **** void HAL_TIM_Base_MspDeInit(TIM_HandleTypeDef* tim_baseHandle)
  69:Core/Src/tim.c **** {
 182              		.loc 1 69 1 is_stmt 1 view -0
 183              		.cfi_startproc
 184              		@ args = 0, pretend = 0, frame = 0
 185              		@ frame_needed = 0, uses_anonymous_args = 0
 186              		@ link register save eliminated.
  70:Core/Src/tim.c **** 
  71:Core/Src/tim.c ****   if(tim_baseHandle->Instance==TIM6)
 187              		.loc 1 71 3 view .LVU40
 188              		.loc 1 71 20 is_stmt 0 view .LVU41
 189 0000 0268     		ldr	r2, [r0]
 190              		.loc 1 71 5 view .LVU42
 191 0002 054B     		ldr	r3, .L21
 192 0004 9A42     		cmp	r2, r3
 193 0006 00D0     		beq	.L20
 194              	.L18:
  72:Core/Src/tim.c ****   {
  73:Core/Src/tim.c ****   /* USER CODE BEGIN TIM6_MspDeInit 0 */
  74:Core/Src/tim.c **** 
  75:Core/Src/tim.c ****   /* USER CODE END TIM6_MspDeInit 0 */
  76:Core/Src/tim.c ****     /* Peripheral clock disable */
  77:Core/Src/tim.c ****     __HAL_RCC_TIM6_CLK_DISABLE();
  78:Core/Src/tim.c ****   /* USER CODE BEGIN TIM6_MspDeInit 1 */
  79:Core/Src/tim.c **** 
  80:Core/Src/tim.c ****   /* USER CODE END TIM6_MspDeInit 1 */
  81:Core/Src/tim.c ****   }
  82:Core/Src/tim.c **** } 
 195              		.loc 1 82 1 view .LVU43
 196 0008 7047     		bx	lr
 197              	.L20:
  77:Core/Src/tim.c ****   /* USER CODE BEGIN TIM6_MspDeInit 1 */
 198              		.loc 1 77 5 is_stmt 1 view .LVU44
 199 000a 044A     		ldr	r2, .L21+4
 200 000c D369     		ldr	r3, [r2, #28]
 201 000e 23F01003 		bic	r3, r3, #16
 202 0012 D361     		str	r3, [r2, #28]
 203              		.loc 1 82 1 is_stmt 0 view .LVU45
 204 0014 F8E7     		b	.L18
ARM GAS  C:\Users\GKQ\AppData\Local\Temp\cc9A8dUV.s 			page 6


 205              	.L22:
 206 0016 00BF     		.align	2
 207              	.L21:
 208 0018 00100040 		.word	1073745920
 209 001c 00100240 		.word	1073876992
 210              		.cfi_endproc
 211              	.LFE67:
 213              		.comm	htim6,72,4
 214              		.text
 215              	.Letext0:
 216              		.file 2 "d:\\work_project\\9 2019-q4-major\\arm-none-eabi\\include\\machine\\_default_types.h"
 217              		.file 3 "d:\\work_project\\9 2019-q4-major\\arm-none-eabi\\include\\sys\\_stdint.h"
 218              		.file 4 "Drivers/CMSIS/Include/core_cm3.h"
 219              		.file 5 "Drivers/CMSIS/Device/ST/STM32F1xx/Include/system_stm32f1xx.h"
 220              		.file 6 "Drivers/CMSIS/Device/ST/STM32F1xx/Include/stm32f103xe.h"
 221              		.file 7 "Drivers/STM32F1xx_HAL_Driver/Inc/stm32f1xx_hal_def.h"
 222              		.file 8 "Drivers/STM32F1xx_HAL_Driver/Inc/stm32f1xx_hal_dma.h"
 223              		.file 9 "Drivers/STM32F1xx_HAL_Driver/Inc/stm32f1xx_hal_tim.h"
 224              		.file 10 "Drivers/STM32F1xx_HAL_Driver/Inc/stm32f1xx_hal.h"
 225              		.file 11 "Core/Inc/tim.h"
 226              		.file 12 "Drivers/STM32F1xx_HAL_Driver/Inc/stm32f1xx_hal_tim_ex.h"
 227              		.file 13 "Core/Inc/main.h"
ARM GAS  C:\Users\GKQ\AppData\Local\Temp\cc9A8dUV.s 			page 7

