ARM GAS  C:\Users\GKQ\AppData\Local\Temp\ccHnUY7N.s 			page 1


   1              		.cpu cortex-m3
   2              		.eabi_attribute 20, 1
   3              		.eabi_attribute 21, 1
   4              		.eabi_attribute 23, 3
   5              		.eabi_attribute 24, 1
   6              		.eabi_attribute 25, 1
   7              		.eabi_attribute 26, 1
   8              		.eabi_attribute 30, 1
   9              		.eabi_attribute 34, 1
  10              		.eabi_attribute 18, 4
  11              		.file	"u8g2_bitmap.c"
  12              		.text
  13              	.Ltext0:
  14              		.cfi_sections	.debug_frame
  15              		.section	.text.u8g2_SetBitmapMode,"ax",%progbits
  16              		.align	1
  17              		.global	u8g2_SetBitmapMode
  18              		.arch armv7-m
  19              		.syntax unified
  20              		.thumb
  21              		.thumb_func
  22              		.fpu softvfp
  24              	u8g2_SetBitmapMode:
  25              	.LVL0:
  26              	.LFB0:
  27              		.file 1 "u8g2_lib/u8g2_bitmap.c"
   1:u8g2_lib/u8g2_bitmap.c **** /*
   2:u8g2_lib/u8g2_bitmap.c **** 
   3:u8g2_lib/u8g2_bitmap.c ****   u8g2_bitmap.c
   4:u8g2_lib/u8g2_bitmap.c **** 
   5:u8g2_lib/u8g2_bitmap.c ****   Universal 8bit Graphics Library (https://github.com/olikraus/u8g2/)
   6:u8g2_lib/u8g2_bitmap.c **** 
   7:u8g2_lib/u8g2_bitmap.c ****   Copyright (c) 2016, olikraus@gmail.com
   8:u8g2_lib/u8g2_bitmap.c ****   All rights reserved.
   9:u8g2_lib/u8g2_bitmap.c **** 
  10:u8g2_lib/u8g2_bitmap.c ****   Redistribution and use in source and binary forms, with or without modification, 
  11:u8g2_lib/u8g2_bitmap.c ****   are permitted provided that the following conditions are met:
  12:u8g2_lib/u8g2_bitmap.c **** 
  13:u8g2_lib/u8g2_bitmap.c ****   * Redistributions of source code must retain the above copyright notice, this list 
  14:u8g2_lib/u8g2_bitmap.c ****     of conditions and the following disclaimer.
  15:u8g2_lib/u8g2_bitmap.c ****     
  16:u8g2_lib/u8g2_bitmap.c ****   * Redistributions in binary form must reproduce the above copyright notice, this 
  17:u8g2_lib/u8g2_bitmap.c ****     list of conditions and the following disclaimer in the documentation and/or other 
  18:u8g2_lib/u8g2_bitmap.c ****     materials provided with the distribution.
  19:u8g2_lib/u8g2_bitmap.c **** 
  20:u8g2_lib/u8g2_bitmap.c ****   THIS SOFTWARE IS PROVIDED BY THE COPYRIGHT HOLDERS AND 
  21:u8g2_lib/u8g2_bitmap.c ****   CONTRIBUTORS "AS IS" AND ANY EXPRESS OR IMPLIED WARRANTIES, 
  22:u8g2_lib/u8g2_bitmap.c ****   INCLUDING, BUT NOT LIMITED TO, THE IMPLIED WARRANTIES OF 
  23:u8g2_lib/u8g2_bitmap.c ****   MERCHANTABILITY AND FITNESS FOR A PARTICULAR PURPOSE ARE 
  24:u8g2_lib/u8g2_bitmap.c ****   DISCLAIMED. IN NO EVENT SHALL THE COPYRIGHT HOLDER OR 
  25:u8g2_lib/u8g2_bitmap.c ****   CONTRIBUTORS BE LIABLE FOR ANY DIRECT, INDIRECT, INCIDENTAL, 
  26:u8g2_lib/u8g2_bitmap.c ****   SPECIAL, EXEMPLARY, OR CONSEQUENTIAL DAMAGES (INCLUDING, BUT 
  27:u8g2_lib/u8g2_bitmap.c ****   NOT LIMITED TO, PROCUREMENT OF SUBSTITUTE GOODS OR SERVICES; 
  28:u8g2_lib/u8g2_bitmap.c ****   LOSS OF USE, DATA, OR PROFITS; OR BUSINESS INTERRUPTION) HOWEVER 
  29:u8g2_lib/u8g2_bitmap.c ****   CAUSED AND ON ANY THEORY OF LIABILITY, WHETHER IN CONTRACT, 
  30:u8g2_lib/u8g2_bitmap.c ****   STRICT LIABILITY, OR TORT (INCLUDING NEGLIGENCE OR OTHERWISE) 
  31:u8g2_lib/u8g2_bitmap.c ****   ARISING IN ANY WAY OUT OF THE USE OF THIS SOFTWARE, EVEN IF 
ARM GAS  C:\Users\GKQ\AppData\Local\Temp\ccHnUY7N.s 			page 2


  32:u8g2_lib/u8g2_bitmap.c ****   ADVISED OF THE POSSIBILITY OF SUCH DAMAGE.  
  33:u8g2_lib/u8g2_bitmap.c **** 
  34:u8g2_lib/u8g2_bitmap.c **** */
  35:u8g2_lib/u8g2_bitmap.c **** 
  36:u8g2_lib/u8g2_bitmap.c **** #include "u8g2.h"
  37:u8g2_lib/u8g2_bitmap.c **** 
  38:u8g2_lib/u8g2_bitmap.c **** 
  39:u8g2_lib/u8g2_bitmap.c **** void u8g2_SetBitmapMode(u8g2_t *u8g2, uint8_t is_transparent) {
  28              		.loc 1 39 63 view -0
  29              		.cfi_startproc
  30              		@ args = 0, pretend = 0, frame = 0
  31              		@ frame_needed = 0, uses_anonymous_args = 0
  32              		@ link register save eliminated.
  40:u8g2_lib/u8g2_bitmap.c ****   u8g2->bitmap_transparency = is_transparent;
  33              		.loc 1 40 3 view .LVU1
  34              		.loc 1 40 29 is_stmt 0 view .LVU2
  35 0000 80F88110 		strb	r1, [r0, #129]
  41:u8g2_lib/u8g2_bitmap.c **** }
  36              		.loc 1 41 1 view .LVU3
  37 0004 7047     		bx	lr
  38              		.cfi_endproc
  39              	.LFE0:
  41              		.section	.text.u8g2_DrawHorizontalBitmap,"ax",%progbits
  42              		.align	1
  43              		.global	u8g2_DrawHorizontalBitmap
  44              		.syntax unified
  45              		.thumb
  46              		.thumb_func
  47              		.fpu softvfp
  49              	u8g2_DrawHorizontalBitmap:
  50              	.LVL1:
  51              	.LFB1:
  42:u8g2_lib/u8g2_bitmap.c **** 
  43:u8g2_lib/u8g2_bitmap.c **** /*
  44:u8g2_lib/u8g2_bitmap.c ****   x,y 	Position on the display
  45:u8g2_lib/u8g2_bitmap.c ****   len		Length of bitmap line in pixel. Note: This differs from u8glib which had a bytecount here.
  46:u8g2_lib/u8g2_bitmap.c ****   b		Pointer to the bitmap line.
  47:u8g2_lib/u8g2_bitmap.c ****   Only draw pixels which are set.
  48:u8g2_lib/u8g2_bitmap.c **** */
  49:u8g2_lib/u8g2_bitmap.c **** 
  50:u8g2_lib/u8g2_bitmap.c **** void u8g2_DrawHorizontalBitmap(u8g2_t *u8g2, u8g2_uint_t x, u8g2_uint_t y, u8g2_uint_t len, const u
  51:u8g2_lib/u8g2_bitmap.c **** {
  52              		.loc 1 51 1 is_stmt 1 view -0
  53              		.cfi_startproc
  54              		@ args = 4, pretend = 0, frame = 0
  55              		@ frame_needed = 0, uses_anonymous_args = 0
  56              		.loc 1 51 1 is_stmt 0 view .LVU5
  57 0000 2DE9F04F 		push	{r4, r5, r6, r7, r8, r9, r10, fp, lr}
  58              	.LCFI0:
  59              		.cfi_def_cfa_offset 36
  60              		.cfi_offset 4, -36
  61              		.cfi_offset 5, -32
  62              		.cfi_offset 6, -28
  63              		.cfi_offset 7, -24
  64              		.cfi_offset 8, -20
  65              		.cfi_offset 9, -16
  66              		.cfi_offset 10, -12
ARM GAS  C:\Users\GKQ\AppData\Local\Temp\ccHnUY7N.s 			page 3


  67              		.cfi_offset 11, -8
  68              		.cfi_offset 14, -4
  69 0004 83B0     		sub	sp, sp, #12
  70              	.LCFI1:
  71              		.cfi_def_cfa_offset 48
  72 0006 0746     		mov	r7, r0
  73 0008 0D46     		mov	r5, r1
  74 000a 9146     		mov	r9, r2
  75 000c 1C46     		mov	r4, r3
  76 000e DDF83080 		ldr	r8, [sp, #48]
  52:u8g2_lib/u8g2_bitmap.c ****   uint8_t mask;
  77              		.loc 1 52 3 is_stmt 1 view .LVU6
  53:u8g2_lib/u8g2_bitmap.c ****   uint8_t color = u8g2->draw_color;
  78              		.loc 1 53 3 view .LVU7
  79              		.loc 1 53 11 is_stmt 0 view .LVU8
  80 0012 90F882A0 		ldrb	r10, [r0, #130]	@ zero_extendqisi2
  81              	.LVL2:
  54:u8g2_lib/u8g2_bitmap.c ****   uint8_t ncolor = (color == 0 ? 1 : 0);
  82              		.loc 1 54 3 is_stmt 1 view .LVU9
  55:u8g2_lib/u8g2_bitmap.c **** 
  56:u8g2_lib/u8g2_bitmap.c **** #ifdef U8G2_WITH_INTERSECTION
  57:u8g2_lib/u8g2_bitmap.c ****   if ( u8g2_IsIntersection(u8g2, x, y, x+len, y+1) == 0 ) 
  83              		.loc 1 57 3 view .LVU10
  84              		.loc 1 57 8 is_stmt 0 view .LVU11
  85 0016 CB18     		adds	r3, r1, r3
  86              	.LVL3:
  87              		.loc 1 57 8 view .LVU12
  88 0018 561C     		adds	r6, r2, #1
  89 001a F6B2     		uxtb	r6, r6
  90 001c 0096     		str	r6, [sp]
  91 001e DBB2     		uxtb	r3, r3
  92 0020 FFF7FEFF 		bl	u8g2_IsIntersection
  93              	.LVL4:
  94              		.loc 1 57 6 view .LVU13
  95 0024 68B3     		cbz	r0, .L2
  96 0026 BAFA8AFB 		clz	fp, r10
  97              	.LVL5:
  98              		.loc 1 57 6 view .LVU14
  99 002a 4FEA5B1B 		lsr	fp, fp, #5
 100              	.LVL6:
  58:u8g2_lib/u8g2_bitmap.c ****     return;
  59:u8g2_lib/u8g2_bitmap.c **** #endif /* U8G2_WITH_INTERSECTION */
  60:u8g2_lib/u8g2_bitmap.c ****   
  61:u8g2_lib/u8g2_bitmap.c ****   mask = 128;
 101              		.loc 1 61 8 view .LVU15
 102 002e 8026     		movs	r6, #128
 103 0030 12E0     		b	.L4
 104              	.LVL7:
 105              	.L11:
  62:u8g2_lib/u8g2_bitmap.c ****   while(len > 0)
  63:u8g2_lib/u8g2_bitmap.c ****   {
  64:u8g2_lib/u8g2_bitmap.c ****     if ( *b & mask ) {
  65:u8g2_lib/u8g2_bitmap.c ****       u8g2->draw_color = color;
 106              		.loc 1 65 7 is_stmt 1 view .LVU16
 107              		.loc 1 65 24 is_stmt 0 view .LVU17
 108 0032 87F882A0 		strb	r10, [r7, #130]
  66:u8g2_lib/u8g2_bitmap.c ****       u8g2_DrawHVLine(u8g2, x, y, 1, 0);
ARM GAS  C:\Users\GKQ\AppData\Local\Temp\ccHnUY7N.s 			page 4


 109              		.loc 1 66 7 is_stmt 1 view .LVU18
 110 0036 0023     		movs	r3, #0
 111 0038 0093     		str	r3, [sp]
 112 003a 0123     		movs	r3, #1
 113 003c 4A46     		mov	r2, r9
 114 003e 2946     		mov	r1, r5
 115 0040 3846     		mov	r0, r7
 116 0042 FFF7FEFF 		bl	u8g2_DrawHVLine
 117              	.LVL8:
 118              	.L6:
  67:u8g2_lib/u8g2_bitmap.c ****     } else if ( u8g2->bitmap_transparency == 0 ) {
  68:u8g2_lib/u8g2_bitmap.c ****       u8g2->draw_color = ncolor;
  69:u8g2_lib/u8g2_bitmap.c ****       u8g2_DrawHVLine(u8g2, x, y, 1, 0);
  70:u8g2_lib/u8g2_bitmap.c ****     }
  71:u8g2_lib/u8g2_bitmap.c **** 
  72:u8g2_lib/u8g2_bitmap.c ****     x++;
 119              		.loc 1 72 5 view .LVU19
 120              		.loc 1 72 6 is_stmt 0 view .LVU20
 121 0046 0135     		adds	r5, r5, #1
 122              	.LVL9:
 123              		.loc 1 72 6 view .LVU21
 124 0048 EDB2     		uxtb	r5, r5
 125              	.LVL10:
  73:u8g2_lib/u8g2_bitmap.c ****     mask >>= 1;
 126              		.loc 1 73 5 is_stmt 1 view .LVU22
  74:u8g2_lib/u8g2_bitmap.c ****     if ( mask == 0 )
 127              		.loc 1 74 5 view .LVU23
 128              		.loc 1 74 8 is_stmt 0 view .LVU24
 129 004a 7608     		lsrs	r6, r6, #1
 130              	.LVL11:
 131              		.loc 1 74 8 view .LVU25
 132 004c 02D1     		bne	.L7
  75:u8g2_lib/u8g2_bitmap.c ****     {
  76:u8g2_lib/u8g2_bitmap.c ****       mask = 128;
 133              		.loc 1 76 7 is_stmt 1 view .LVU26
 134              	.LVL12:
  77:u8g2_lib/u8g2_bitmap.c ****       b++;
 135              		.loc 1 77 7 view .LVU27
 136              		.loc 1 77 8 is_stmt 0 view .LVU28
 137 004e 08F10108 		add	r8, r8, #1
 138              	.LVL13:
  76:u8g2_lib/u8g2_bitmap.c ****       b++;
 139              		.loc 1 76 12 view .LVU29
 140 0052 8026     		movs	r6, #128
 141              	.LVL14:
 142              	.L7:
  78:u8g2_lib/u8g2_bitmap.c ****     }
  79:u8g2_lib/u8g2_bitmap.c ****     len--;
 143              		.loc 1 79 5 is_stmt 1 view .LVU30
 144              		.loc 1 79 8 is_stmt 0 view .LVU31
 145 0054 013C     		subs	r4, r4, #1
 146              	.LVL15:
 147              		.loc 1 79 8 view .LVU32
 148 0056 E4B2     		uxtb	r4, r4
 149              	.LVL16:
 150              	.L4:
  62:u8g2_lib/u8g2_bitmap.c ****   {
ARM GAS  C:\Users\GKQ\AppData\Local\Temp\ccHnUY7N.s 			page 5


 151              		.loc 1 62 8 is_stmt 1 view .LVU33
 152 0058 8CB1     		cbz	r4, .L10
  64:u8g2_lib/u8g2_bitmap.c ****       u8g2->draw_color = color;
 153              		.loc 1 64 5 view .LVU34
  64:u8g2_lib/u8g2_bitmap.c ****       u8g2->draw_color = color;
 154              		.loc 1 64 10 is_stmt 0 view .LVU35
 155 005a 98F80030 		ldrb	r3, [r8]	@ zero_extendqisi2
  64:u8g2_lib/u8g2_bitmap.c ****       u8g2->draw_color = color;
 156              		.loc 1 64 8 view .LVU36
 157 005e 1E42     		tst	r6, r3
 158 0060 E7D1     		bne	.L11
  67:u8g2_lib/u8g2_bitmap.c ****       u8g2->draw_color = ncolor;
 159              		.loc 1 67 12 is_stmt 1 view .LVU37
  67:u8g2_lib/u8g2_bitmap.c ****       u8g2->draw_color = ncolor;
 160              		.loc 1 67 21 is_stmt 0 view .LVU38
 161 0062 97F88130 		ldrb	r3, [r7, #129]	@ zero_extendqisi2
  67:u8g2_lib/u8g2_bitmap.c ****       u8g2->draw_color = ncolor;
 162              		.loc 1 67 15 view .LVU39
 163 0066 002B     		cmp	r3, #0
 164 0068 EDD1     		bne	.L6
  68:u8g2_lib/u8g2_bitmap.c ****       u8g2_DrawHVLine(u8g2, x, y, 1, 0);
 165              		.loc 1 68 7 is_stmt 1 view .LVU40
  68:u8g2_lib/u8g2_bitmap.c ****       u8g2_DrawHVLine(u8g2, x, y, 1, 0);
 166              		.loc 1 68 24 is_stmt 0 view .LVU41
 167 006a 87F882B0 		strb	fp, [r7, #130]
  69:u8g2_lib/u8g2_bitmap.c ****     }
 168              		.loc 1 69 7 is_stmt 1 view .LVU42
 169 006e 0093     		str	r3, [sp]
 170 0070 0123     		movs	r3, #1
 171 0072 4A46     		mov	r2, r9
 172 0074 2946     		mov	r1, r5
 173 0076 3846     		mov	r0, r7
 174 0078 FFF7FEFF 		bl	u8g2_DrawHVLine
 175              	.LVL17:
 176 007c E3E7     		b	.L6
 177              	.L10:
  80:u8g2_lib/u8g2_bitmap.c ****   }
  81:u8g2_lib/u8g2_bitmap.c ****   u8g2->draw_color = color;
 178              		.loc 1 81 3 view .LVU43
 179              		.loc 1 81 20 is_stmt 0 view .LVU44
 180 007e 87F882A0 		strb	r10, [r7, #130]
 181              	.LVL18:
 182              	.L2:
  82:u8g2_lib/u8g2_bitmap.c **** }
 183              		.loc 1 82 1 view .LVU45
 184 0082 03B0     		add	sp, sp, #12
 185              	.LCFI2:
 186              		.cfi_def_cfa_offset 36
 187              		@ sp needed
 188 0084 BDE8F08F 		pop	{r4, r5, r6, r7, r8, r9, r10, fp, pc}
 189              		.loc 1 82 1 view .LVU46
 190              		.cfi_endproc
 191              	.LFE1:
 193              		.section	.text.u8g2_DrawBitmap,"ax",%progbits
 194              		.align	1
 195              		.global	u8g2_DrawBitmap
 196              		.syntax unified
ARM GAS  C:\Users\GKQ\AppData\Local\Temp\ccHnUY7N.s 			page 6


 197              		.thumb
 198              		.thumb_func
 199              		.fpu softvfp
 201              	u8g2_DrawBitmap:
 202              	.LVL19:
 203              	.LFB2:
  83:u8g2_lib/u8g2_bitmap.c **** 
  84:u8g2_lib/u8g2_bitmap.c **** 
  85:u8g2_lib/u8g2_bitmap.c **** /* u8glib compatible bitmap draw function */
  86:u8g2_lib/u8g2_bitmap.c **** void u8g2_DrawBitmap(u8g2_t *u8g2, u8g2_uint_t x, u8g2_uint_t y, u8g2_uint_t cnt, u8g2_uint_t h, co
  87:u8g2_lib/u8g2_bitmap.c **** {
 204              		.loc 1 87 1 is_stmt 1 view -0
 205              		.cfi_startproc
 206              		@ args = 8, pretend = 0, frame = 0
 207              		@ frame_needed = 0, uses_anonymous_args = 0
 208              		.loc 1 87 1 is_stmt 0 view .LVU48
 209 0000 2DE9F047 		push	{r4, r5, r6, r7, r8, r9, r10, lr}
 210              	.LCFI3:
 211              		.cfi_def_cfa_offset 32
 212              		.cfi_offset 4, -32
 213              		.cfi_offset 5, -28
 214              		.cfi_offset 6, -24
 215              		.cfi_offset 7, -20
 216              		.cfi_offset 8, -16
 217              		.cfi_offset 9, -12
 218              		.cfi_offset 10, -8
 219              		.cfi_offset 14, -4
 220 0004 82B0     		sub	sp, sp, #8
 221              	.LCFI4:
 222              		.cfi_def_cfa_offset 40
 223 0006 8246     		mov	r10, r0
 224 0008 0F46     		mov	r7, r1
 225 000a 1446     		mov	r4, r2
 226 000c 9946     		mov	r9, r3
 227 000e 9DF82850 		ldrb	r5, [sp, #40]	@ zero_extendqisi2
 228 0012 0B9E     		ldr	r6, [sp, #44]
  88:u8g2_lib/u8g2_bitmap.c ****   u8g2_uint_t w;
 229              		.loc 1 88 3 is_stmt 1 view .LVU49
  89:u8g2_lib/u8g2_bitmap.c ****   w = cnt;
 230              		.loc 1 89 3 view .LVU50
 231              	.LVL20:
  90:u8g2_lib/u8g2_bitmap.c ****   w *= 8;
 232              		.loc 1 90 3 view .LVU51
 233              		.loc 1 90 5 is_stmt 0 view .LVU52
 234 0014 4FEAC308 		lsl	r8, r3, #3
 235 0018 5FFA88F8 		uxtb	r8, r8
 236              	.LVL21:
  91:u8g2_lib/u8g2_bitmap.c **** #ifdef U8G2_WITH_INTERSECTION
  92:u8g2_lib/u8g2_bitmap.c ****   if ( u8g2_IsIntersection(u8g2, x, y, x+w, y+h) == 0 ) 
 237              		.loc 1 92 3 is_stmt 1 view .LVU53
 238              		.loc 1 92 8 is_stmt 0 view .LVU54
 239 001c 08EB010C 		add	ip, r8, r1
 240 0020 5319     		adds	r3, r2, r5
 241              	.LVL22:
 242              		.loc 1 92 8 view .LVU55
 243 0022 DBB2     		uxtb	r3, r3
 244 0024 0093     		str	r3, [sp]
ARM GAS  C:\Users\GKQ\AppData\Local\Temp\ccHnUY7N.s 			page 7


 245 0026 5FFA8CF3 		uxtb	r3, ip
 246 002a FFF7FEFF 		bl	u8g2_IsIntersection
 247              	.LVL23:
 248              		.loc 1 92 6 view .LVU56
 249 002e 68B1     		cbz	r0, .L12
 250              	.LVL24:
 251              	.L14:
  93:u8g2_lib/u8g2_bitmap.c ****     return;
  94:u8g2_lib/u8g2_bitmap.c **** #endif /* U8G2_WITH_INTERSECTION */
  95:u8g2_lib/u8g2_bitmap.c ****   
  96:u8g2_lib/u8g2_bitmap.c ****   while( h > 0 )
 252              		.loc 1 96 8 is_stmt 1 view .LVU57
 253 0030 65B1     		cbz	r5, .L12
  97:u8g2_lib/u8g2_bitmap.c ****   {
  98:u8g2_lib/u8g2_bitmap.c ****     u8g2_DrawHorizontalBitmap(u8g2, x, y, w, bitmap);
 254              		.loc 1 98 5 view .LVU58
 255 0032 0096     		str	r6, [sp]
 256 0034 4346     		mov	r3, r8
 257 0036 2246     		mov	r2, r4
 258 0038 3946     		mov	r1, r7
 259 003a 5046     		mov	r0, r10
 260 003c FFF7FEFF 		bl	u8g2_DrawHorizontalBitmap
 261              	.LVL25:
  99:u8g2_lib/u8g2_bitmap.c ****     bitmap += cnt;
 262              		.loc 1 99 5 view .LVU59
 263              		.loc 1 99 12 is_stmt 0 view .LVU60
 264 0040 4E44     		add	r6, r6, r9
 265              	.LVL26:
 100:u8g2_lib/u8g2_bitmap.c ****     y++;
 266              		.loc 1 100 5 is_stmt 1 view .LVU61
 267              		.loc 1 100 6 is_stmt 0 view .LVU62
 268 0042 0134     		adds	r4, r4, #1
 269              	.LVL27:
 270              		.loc 1 100 6 view .LVU63
 271 0044 E4B2     		uxtb	r4, r4
 272              	.LVL28:
 101:u8g2_lib/u8g2_bitmap.c ****     h--;
 273              		.loc 1 101 5 is_stmt 1 view .LVU64
 274              		.loc 1 101 6 is_stmt 0 view .LVU65
 275 0046 013D     		subs	r5, r5, #1
 276              	.LVL29:
 277              		.loc 1 101 6 view .LVU66
 278 0048 EDB2     		uxtb	r5, r5
 279              	.LVL30:
 280              		.loc 1 101 6 view .LVU67
 281 004a F1E7     		b	.L14
 282              	.LVL31:
 283              	.L12:
 102:u8g2_lib/u8g2_bitmap.c ****   }
 103:u8g2_lib/u8g2_bitmap.c **** }
 284              		.loc 1 103 1 view .LVU68
 285 004c 02B0     		add	sp, sp, #8
 286              	.LCFI5:
 287              		.cfi_def_cfa_offset 32
 288              		@ sp needed
 289 004e BDE8F087 		pop	{r4, r5, r6, r7, r8, r9, r10, pc}
 290              		.loc 1 103 1 view .LVU69
ARM GAS  C:\Users\GKQ\AppData\Local\Temp\ccHnUY7N.s 			page 8


 291              		.cfi_endproc
 292              	.LFE2:
 294              		.section	.text.u8g2_DrawHXBM,"ax",%progbits
 295              		.align	1
 296              		.global	u8g2_DrawHXBM
 297              		.syntax unified
 298              		.thumb
 299              		.thumb_func
 300              		.fpu softvfp
 302              	u8g2_DrawHXBM:
 303              	.LVL32:
 304              	.LFB3:
 104:u8g2_lib/u8g2_bitmap.c **** 
 105:u8g2_lib/u8g2_bitmap.c **** 
 106:u8g2_lib/u8g2_bitmap.c **** 
 107:u8g2_lib/u8g2_bitmap.c **** void u8g2_DrawHXBM(u8g2_t *u8g2, u8g2_uint_t x, u8g2_uint_t y, u8g2_uint_t len, const uint8_t *b)
 108:u8g2_lib/u8g2_bitmap.c **** {
 305              		.loc 1 108 1 is_stmt 1 view -0
 306              		.cfi_startproc
 307              		@ args = 4, pretend = 0, frame = 0
 308              		@ frame_needed = 0, uses_anonymous_args = 0
 309              		.loc 1 108 1 is_stmt 0 view .LVU71
 310 0000 2DE9F04F 		push	{r4, r5, r6, r7, r8, r9, r10, fp, lr}
 311              	.LCFI6:
 312              		.cfi_def_cfa_offset 36
 313              		.cfi_offset 4, -36
 314              		.cfi_offset 5, -32
 315              		.cfi_offset 6, -28
 316              		.cfi_offset 7, -24
 317              		.cfi_offset 8, -20
 318              		.cfi_offset 9, -16
 319              		.cfi_offset 10, -12
 320              		.cfi_offset 11, -8
 321              		.cfi_offset 14, -4
 322 0004 83B0     		sub	sp, sp, #12
 323              	.LCFI7:
 324              		.cfi_def_cfa_offset 48
 325 0006 0746     		mov	r7, r0
 326 0008 0E46     		mov	r6, r1
 327 000a 9146     		mov	r9, r2
 328 000c 1D46     		mov	r5, r3
 329 000e DDF83080 		ldr	r8, [sp, #48]
 109:u8g2_lib/u8g2_bitmap.c ****   uint8_t mask;
 330              		.loc 1 109 3 is_stmt 1 view .LVU72
 110:u8g2_lib/u8g2_bitmap.c ****   uint8_t color = u8g2->draw_color;
 331              		.loc 1 110 3 view .LVU73
 332              		.loc 1 110 11 is_stmt 0 view .LVU74
 333 0012 90F882A0 		ldrb	r10, [r0, #130]	@ zero_extendqisi2
 334              	.LVL33:
 111:u8g2_lib/u8g2_bitmap.c ****   uint8_t ncolor = (color == 0 ? 1 : 0);
 335              		.loc 1 111 3 is_stmt 1 view .LVU75
 112:u8g2_lib/u8g2_bitmap.c **** #ifdef U8G2_WITH_INTERSECTION
 113:u8g2_lib/u8g2_bitmap.c ****   if ( u8g2_IsIntersection(u8g2, x, y, x+len, y+1) == 0 ) 
 336              		.loc 1 113 3 view .LVU76
 337              		.loc 1 113 8 is_stmt 0 view .LVU77
 338 0016 CB18     		adds	r3, r1, r3
 339              	.LVL34:
ARM GAS  C:\Users\GKQ\AppData\Local\Temp\ccHnUY7N.s 			page 9


 340              		.loc 1 113 8 view .LVU78
 341 0018 541C     		adds	r4, r2, #1
 342 001a E4B2     		uxtb	r4, r4
 343 001c 0094     		str	r4, [sp]
 344 001e DBB2     		uxtb	r3, r3
 345 0020 FFF7FEFF 		bl	u8g2_IsIntersection
 346              	.LVL35:
 347              		.loc 1 113 6 view .LVU79
 348 0024 78B3     		cbz	r0, .L17
 349 0026 BAFA8AFB 		clz	fp, r10
 350              	.LVL36:
 351              		.loc 1 113 6 view .LVU80
 352 002a 4FEA5B1B 		lsr	fp, fp, #5
 353              	.LVL37:
 114:u8g2_lib/u8g2_bitmap.c ****     return;
 115:u8g2_lib/u8g2_bitmap.c **** #endif /* U8G2_WITH_INTERSECTION */
 116:u8g2_lib/u8g2_bitmap.c ****   
 117:u8g2_lib/u8g2_bitmap.c ****   mask = 1;
 354              		.loc 1 117 8 view .LVU81
 355 002e 0124     		movs	r4, #1
 356 0030 14E0     		b	.L19
 357              	.LVL38:
 358              	.L26:
 118:u8g2_lib/u8g2_bitmap.c ****   while(len > 0) {
 119:u8g2_lib/u8g2_bitmap.c ****     if ( *b & mask ) {
 120:u8g2_lib/u8g2_bitmap.c ****       u8g2->draw_color = color;
 359              		.loc 1 120 7 is_stmt 1 view .LVU82
 360              		.loc 1 120 24 is_stmt 0 view .LVU83
 361 0032 87F882A0 		strb	r10, [r7, #130]
 121:u8g2_lib/u8g2_bitmap.c ****       u8g2_DrawHVLine(u8g2, x, y, 1, 0);
 362              		.loc 1 121 7 is_stmt 1 view .LVU84
 363 0036 0023     		movs	r3, #0
 364 0038 0093     		str	r3, [sp]
 365 003a 0123     		movs	r3, #1
 366 003c 4A46     		mov	r2, r9
 367 003e 3146     		mov	r1, r6
 368 0040 3846     		mov	r0, r7
 369 0042 FFF7FEFF 		bl	u8g2_DrawHVLine
 370              	.LVL39:
 371              	.L21:
 122:u8g2_lib/u8g2_bitmap.c ****     } else if ( u8g2->bitmap_transparency == 0 ) {
 123:u8g2_lib/u8g2_bitmap.c ****       u8g2->draw_color = ncolor;
 124:u8g2_lib/u8g2_bitmap.c ****       u8g2_DrawHVLine(u8g2, x, y, 1, 0);
 125:u8g2_lib/u8g2_bitmap.c ****     }
 126:u8g2_lib/u8g2_bitmap.c ****     x++;
 372              		.loc 1 126 5 view .LVU85
 373              		.loc 1 126 6 is_stmt 0 view .LVU86
 374 0046 0136     		adds	r6, r6, #1
 375              	.LVL40:
 376              		.loc 1 126 6 view .LVU87
 377 0048 F6B2     		uxtb	r6, r6
 378              	.LVL41:
 127:u8g2_lib/u8g2_bitmap.c ****     mask <<= 1;
 379              		.loc 1 127 5 is_stmt 1 view .LVU88
 380              		.loc 1 127 10 is_stmt 0 view .LVU89
 381 004a 6400     		lsls	r4, r4, #1
 382              	.LVL42:
ARM GAS  C:\Users\GKQ\AppData\Local\Temp\ccHnUY7N.s 			page 10


 128:u8g2_lib/u8g2_bitmap.c ****     if ( mask == 0 )
 383              		.loc 1 128 5 is_stmt 1 view .LVU90
 384              		.loc 1 128 8 is_stmt 0 view .LVU91
 385 004c 14F0FF04 		ands	r4, r4, #255
 386              	.LVL43:
 387              		.loc 1 128 8 view .LVU92
 388 0050 02D1     		bne	.L22
 129:u8g2_lib/u8g2_bitmap.c ****     {
 130:u8g2_lib/u8g2_bitmap.c ****       mask = 1;
 389              		.loc 1 130 7 is_stmt 1 view .LVU93
 390              	.LVL44:
 131:u8g2_lib/u8g2_bitmap.c ****       b++;
 391              		.loc 1 131 7 view .LVU94
 392              		.loc 1 131 8 is_stmt 0 view .LVU95
 393 0052 08F10108 		add	r8, r8, #1
 394              	.LVL45:
 130:u8g2_lib/u8g2_bitmap.c ****       b++;
 395              		.loc 1 130 12 view .LVU96
 396 0056 0124     		movs	r4, #1
 397              	.LVL46:
 398              	.L22:
 132:u8g2_lib/u8g2_bitmap.c ****     }
 133:u8g2_lib/u8g2_bitmap.c ****     len--;
 399              		.loc 1 133 5 is_stmt 1 view .LVU97
 400              		.loc 1 133 8 is_stmt 0 view .LVU98
 401 0058 013D     		subs	r5, r5, #1
 402              	.LVL47:
 403              		.loc 1 133 8 view .LVU99
 404 005a EDB2     		uxtb	r5, r5
 405              	.LVL48:
 406              	.L19:
 118:u8g2_lib/u8g2_bitmap.c ****     if ( *b & mask ) {
 407              		.loc 1 118 8 is_stmt 1 view .LVU100
 408 005c 8DB1     		cbz	r5, .L25
 119:u8g2_lib/u8g2_bitmap.c ****       u8g2->draw_color = color;
 409              		.loc 1 119 5 view .LVU101
 119:u8g2_lib/u8g2_bitmap.c ****       u8g2->draw_color = color;
 410              		.loc 1 119 10 is_stmt 0 view .LVU102
 411 005e 98F80030 		ldrb	r3, [r8]	@ zero_extendqisi2
 119:u8g2_lib/u8g2_bitmap.c ****       u8g2->draw_color = color;
 412              		.loc 1 119 8 view .LVU103
 413 0062 1C42     		tst	r4, r3
 414 0064 E5D1     		bne	.L26
 122:u8g2_lib/u8g2_bitmap.c ****       u8g2->draw_color = ncolor;
 415              		.loc 1 122 12 is_stmt 1 view .LVU104
 122:u8g2_lib/u8g2_bitmap.c ****       u8g2->draw_color = ncolor;
 416              		.loc 1 122 21 is_stmt 0 view .LVU105
 417 0066 97F88130 		ldrb	r3, [r7, #129]	@ zero_extendqisi2
 122:u8g2_lib/u8g2_bitmap.c ****       u8g2->draw_color = ncolor;
 418              		.loc 1 122 15 view .LVU106
 419 006a 002B     		cmp	r3, #0
 420 006c EBD1     		bne	.L21
 123:u8g2_lib/u8g2_bitmap.c ****       u8g2_DrawHVLine(u8g2, x, y, 1, 0);
 421              		.loc 1 123 7 is_stmt 1 view .LVU107
 123:u8g2_lib/u8g2_bitmap.c ****       u8g2_DrawHVLine(u8g2, x, y, 1, 0);
 422              		.loc 1 123 24 is_stmt 0 view .LVU108
 423 006e 87F882B0 		strb	fp, [r7, #130]
ARM GAS  C:\Users\GKQ\AppData\Local\Temp\ccHnUY7N.s 			page 11


 124:u8g2_lib/u8g2_bitmap.c ****     }
 424              		.loc 1 124 7 is_stmt 1 view .LVU109
 425 0072 0093     		str	r3, [sp]
 426 0074 0123     		movs	r3, #1
 427 0076 4A46     		mov	r2, r9
 428 0078 3146     		mov	r1, r6
 429 007a 3846     		mov	r0, r7
 430 007c FFF7FEFF 		bl	u8g2_DrawHVLine
 431              	.LVL49:
 432 0080 E1E7     		b	.L21
 433              	.L25:
 134:u8g2_lib/u8g2_bitmap.c ****   }
 135:u8g2_lib/u8g2_bitmap.c ****   u8g2->draw_color = color;
 434              		.loc 1 135 3 view .LVU110
 435              		.loc 1 135 20 is_stmt 0 view .LVU111
 436 0082 87F882A0 		strb	r10, [r7, #130]
 437              	.LVL50:
 438              	.L17:
 136:u8g2_lib/u8g2_bitmap.c **** }
 439              		.loc 1 136 1 view .LVU112
 440 0086 03B0     		add	sp, sp, #12
 441              	.LCFI8:
 442              		.cfi_def_cfa_offset 36
 443              		@ sp needed
 444 0088 BDE8F08F 		pop	{r4, r5, r6, r7, r8, r9, r10, fp, pc}
 445              		.loc 1 136 1 view .LVU113
 446              		.cfi_endproc
 447              	.LFE3:
 449              		.section	.text.u8g2_DrawXBM,"ax",%progbits
 450              		.align	1
 451              		.global	u8g2_DrawXBM
 452              		.syntax unified
 453              		.thumb
 454              		.thumb_func
 455              		.fpu softvfp
 457              	u8g2_DrawXBM:
 458              	.LVL51:
 459              	.LFB4:
 137:u8g2_lib/u8g2_bitmap.c **** 
 138:u8g2_lib/u8g2_bitmap.c **** 
 139:u8g2_lib/u8g2_bitmap.c **** void u8g2_DrawXBM(u8g2_t *u8g2, u8g2_uint_t x, u8g2_uint_t y, u8g2_uint_t w, u8g2_uint_t h, const u
 140:u8g2_lib/u8g2_bitmap.c **** {
 460              		.loc 1 140 1 is_stmt 1 view -0
 461              		.cfi_startproc
 462              		@ args = 8, pretend = 0, frame = 0
 463              		@ frame_needed = 0, uses_anonymous_args = 0
 464              		.loc 1 140 1 is_stmt 0 view .LVU115
 465 0000 2DE9F047 		push	{r4, r5, r6, r7, r8, r9, r10, lr}
 466              	.LCFI9:
 467              		.cfi_def_cfa_offset 32
 468              		.cfi_offset 4, -32
 469              		.cfi_offset 5, -28
 470              		.cfi_offset 6, -24
 471              		.cfi_offset 7, -20
 472              		.cfi_offset 8, -16
 473              		.cfi_offset 9, -12
 474              		.cfi_offset 10, -8
ARM GAS  C:\Users\GKQ\AppData\Local\Temp\ccHnUY7N.s 			page 12


 475              		.cfi_offset 14, -4
 476 0004 82B0     		sub	sp, sp, #8
 477              	.LCFI10:
 478              		.cfi_def_cfa_offset 40
 479 0006 8246     		mov	r10, r0
 480 0008 8846     		mov	r8, r1
 481 000a 1446     		mov	r4, r2
 482 000c 1F46     		mov	r7, r3
 483 000e 9DF82850 		ldrb	r5, [sp, #40]	@ zero_extendqisi2
 484 0012 0B9E     		ldr	r6, [sp, #44]
 141:u8g2_lib/u8g2_bitmap.c ****   u8g2_uint_t blen;
 485              		.loc 1 141 3 is_stmt 1 view .LVU116
 142:u8g2_lib/u8g2_bitmap.c ****   blen = w;
 486              		.loc 1 142 3 view .LVU117
 487              	.LVL52:
 143:u8g2_lib/u8g2_bitmap.c ****   blen += 7;
 488              		.loc 1 143 3 view .LVU118
 489              		.loc 1 143 8 is_stmt 0 view .LVU119
 490 0014 03F10709 		add	r9, r3, #7
 491              	.LVL53:
 144:u8g2_lib/u8g2_bitmap.c ****   blen >>= 3;
 492              		.loc 1 144 3 is_stmt 1 view .LVU120
 493              		.loc 1 144 8 is_stmt 0 view .LVU121
 494 0018 C9F3C409 		ubfx	r9, r9, #3, #5
 495              	.LVL54:
 145:u8g2_lib/u8g2_bitmap.c **** #ifdef U8G2_WITH_INTERSECTION
 146:u8g2_lib/u8g2_bitmap.c ****   if ( u8g2_IsIntersection(u8g2, x, y, x+w, y+h) == 0 ) 
 496              		.loc 1 146 3 is_stmt 1 view .LVU122
 497              		.loc 1 146 8 is_stmt 0 view .LVU123
 498 001c 03EB010C 		add	ip, r3, r1
 499 0020 5319     		adds	r3, r2, r5
 500              	.LVL55:
 501              		.loc 1 146 8 view .LVU124
 502 0022 DBB2     		uxtb	r3, r3
 503 0024 0093     		str	r3, [sp]
 504 0026 5FFA8CF3 		uxtb	r3, ip
 505 002a FFF7FEFF 		bl	u8g2_IsIntersection
 506              	.LVL56:
 507              		.loc 1 146 6 view .LVU125
 508 002e 68B1     		cbz	r0, .L27
 509              	.LVL57:
 510              	.L29:
 147:u8g2_lib/u8g2_bitmap.c ****     return;
 148:u8g2_lib/u8g2_bitmap.c **** #endif /* U8G2_WITH_INTERSECTION */
 149:u8g2_lib/u8g2_bitmap.c ****   
 150:u8g2_lib/u8g2_bitmap.c ****   while( h > 0 )
 511              		.loc 1 150 8 is_stmt 1 view .LVU126
 512 0030 65B1     		cbz	r5, .L27
 151:u8g2_lib/u8g2_bitmap.c ****   {
 152:u8g2_lib/u8g2_bitmap.c ****     u8g2_DrawHXBM(u8g2, x, y, w, bitmap);
 513              		.loc 1 152 5 view .LVU127
 514 0032 0096     		str	r6, [sp]
 515 0034 3B46     		mov	r3, r7
 516 0036 2246     		mov	r2, r4
 517 0038 4146     		mov	r1, r8
 518 003a 5046     		mov	r0, r10
 519 003c FFF7FEFF 		bl	u8g2_DrawHXBM
ARM GAS  C:\Users\GKQ\AppData\Local\Temp\ccHnUY7N.s 			page 13


 520              	.LVL58:
 153:u8g2_lib/u8g2_bitmap.c ****     bitmap += blen;
 521              		.loc 1 153 5 view .LVU128
 522              		.loc 1 153 12 is_stmt 0 view .LVU129
 523 0040 4E44     		add	r6, r6, r9
 524              	.LVL59:
 154:u8g2_lib/u8g2_bitmap.c ****     y++;
 525              		.loc 1 154 5 is_stmt 1 view .LVU130
 526              		.loc 1 154 6 is_stmt 0 view .LVU131
 527 0042 0134     		adds	r4, r4, #1
 528              	.LVL60:
 529              		.loc 1 154 6 view .LVU132
 530 0044 E4B2     		uxtb	r4, r4
 531              	.LVL61:
 155:u8g2_lib/u8g2_bitmap.c ****     h--;
 532              		.loc 1 155 5 is_stmt 1 view .LVU133
 533              		.loc 1 155 6 is_stmt 0 view .LVU134
 534 0046 013D     		subs	r5, r5, #1
 535              	.LVL62:
 536              		.loc 1 155 6 view .LVU135
 537 0048 EDB2     		uxtb	r5, r5
 538              	.LVL63:
 539              		.loc 1 155 6 view .LVU136
 540 004a F1E7     		b	.L29
 541              	.LVL64:
 542              	.L27:
 156:u8g2_lib/u8g2_bitmap.c ****   }
 157:u8g2_lib/u8g2_bitmap.c **** }
 543              		.loc 1 157 1 view .LVU137
 544 004c 02B0     		add	sp, sp, #8
 545              	.LCFI11:
 546              		.cfi_def_cfa_offset 32
 547              		@ sp needed
 548 004e BDE8F087 		pop	{r4, r5, r6, r7, r8, r9, r10, pc}
 549              		.loc 1 157 1 view .LVU138
 550              		.cfi_endproc
 551              	.LFE4:
 553              		.section	.text.u8g2_DrawHXBMP,"ax",%progbits
 554              		.align	1
 555              		.global	u8g2_DrawHXBMP
 556              		.syntax unified
 557              		.thumb
 558              		.thumb_func
 559              		.fpu softvfp
 561              	u8g2_DrawHXBMP:
 562              	.LVL65:
 563              	.LFB5:
 158:u8g2_lib/u8g2_bitmap.c **** 
 159:u8g2_lib/u8g2_bitmap.c **** 
 160:u8g2_lib/u8g2_bitmap.c **** 
 161:u8g2_lib/u8g2_bitmap.c **** 
 162:u8g2_lib/u8g2_bitmap.c **** 
 163:u8g2_lib/u8g2_bitmap.c **** 
 164:u8g2_lib/u8g2_bitmap.c **** void u8g2_DrawHXBMP(u8g2_t *u8g2, u8g2_uint_t x, u8g2_uint_t y, u8g2_uint_t len, const uint8_t *b)
 165:u8g2_lib/u8g2_bitmap.c **** {
 564              		.loc 1 165 1 is_stmt 1 view -0
 565              		.cfi_startproc
ARM GAS  C:\Users\GKQ\AppData\Local\Temp\ccHnUY7N.s 			page 14


 566              		@ args = 4, pretend = 0, frame = 0
 567              		@ frame_needed = 0, uses_anonymous_args = 0
 568              		.loc 1 165 1 is_stmt 0 view .LVU140
 569 0000 2DE9F04F 		push	{r4, r5, r6, r7, r8, r9, r10, fp, lr}
 570              	.LCFI12:
 571              		.cfi_def_cfa_offset 36
 572              		.cfi_offset 4, -36
 573              		.cfi_offset 5, -32
 574              		.cfi_offset 6, -28
 575              		.cfi_offset 7, -24
 576              		.cfi_offset 8, -20
 577              		.cfi_offset 9, -16
 578              		.cfi_offset 10, -12
 579              		.cfi_offset 11, -8
 580              		.cfi_offset 14, -4
 581 0004 83B0     		sub	sp, sp, #12
 582              	.LCFI13:
 583              		.cfi_def_cfa_offset 48
 584 0006 0746     		mov	r7, r0
 585 0008 0E46     		mov	r6, r1
 586 000a 9146     		mov	r9, r2
 587 000c 1D46     		mov	r5, r3
 588 000e DDF83080 		ldr	r8, [sp, #48]
 166:u8g2_lib/u8g2_bitmap.c ****   uint8_t mask;
 589              		.loc 1 166 3 is_stmt 1 view .LVU141
 167:u8g2_lib/u8g2_bitmap.c ****   uint8_t color = u8g2->draw_color;
 590              		.loc 1 167 3 view .LVU142
 591              		.loc 1 167 11 is_stmt 0 view .LVU143
 592 0012 90F882A0 		ldrb	r10, [r0, #130]	@ zero_extendqisi2
 593              	.LVL66:
 168:u8g2_lib/u8g2_bitmap.c ****   uint8_t ncolor = (color == 0 ? 1 : 0);
 594              		.loc 1 168 3 is_stmt 1 view .LVU144
 169:u8g2_lib/u8g2_bitmap.c **** #ifdef U8G2_WITH_INTERSECTION
 170:u8g2_lib/u8g2_bitmap.c ****   if ( u8g2_IsIntersection(u8g2, x, y, x+len, y+1) == 0 ) 
 595              		.loc 1 170 3 view .LVU145
 596              		.loc 1 170 8 is_stmt 0 view .LVU146
 597 0016 CB18     		adds	r3, r1, r3
 598              	.LVL67:
 599              		.loc 1 170 8 view .LVU147
 600 0018 541C     		adds	r4, r2, #1
 601 001a E4B2     		uxtb	r4, r4
 602 001c 0094     		str	r4, [sp]
 603 001e DBB2     		uxtb	r3, r3
 604 0020 FFF7FEFF 		bl	u8g2_IsIntersection
 605              	.LVL68:
 606              		.loc 1 170 6 view .LVU148
 607 0024 78B3     		cbz	r0, .L32
 608 0026 BAFA8AFB 		clz	fp, r10
 609              	.LVL69:
 610              		.loc 1 170 6 view .LVU149
 611 002a 4FEA5B1B 		lsr	fp, fp, #5
 612              	.LVL70:
 171:u8g2_lib/u8g2_bitmap.c ****     return;
 172:u8g2_lib/u8g2_bitmap.c **** #endif /* U8G2_WITH_INTERSECTION */
 173:u8g2_lib/u8g2_bitmap.c ****   
 174:u8g2_lib/u8g2_bitmap.c ****   mask = 1;
 613              		.loc 1 174 8 view .LVU150
ARM GAS  C:\Users\GKQ\AppData\Local\Temp\ccHnUY7N.s 			page 15


 614 002e 0124     		movs	r4, #1
 615 0030 14E0     		b	.L34
 616              	.LVL71:
 617              	.L41:
 175:u8g2_lib/u8g2_bitmap.c ****   while(len > 0)
 176:u8g2_lib/u8g2_bitmap.c ****   {
 177:u8g2_lib/u8g2_bitmap.c ****     if( u8x8_pgm_read(b) & mask ) {
 178:u8g2_lib/u8g2_bitmap.c ****       u8g2->draw_color = color;
 618              		.loc 1 178 7 is_stmt 1 view .LVU151
 619              		.loc 1 178 24 is_stmt 0 view .LVU152
 620 0032 87F882A0 		strb	r10, [r7, #130]
 179:u8g2_lib/u8g2_bitmap.c ****       u8g2_DrawHVLine(u8g2, x, y, 1, 0);
 621              		.loc 1 179 7 is_stmt 1 view .LVU153
 622 0036 0023     		movs	r3, #0
 623 0038 0093     		str	r3, [sp]
 624 003a 0123     		movs	r3, #1
 625 003c 4A46     		mov	r2, r9
 626 003e 3146     		mov	r1, r6
 627 0040 3846     		mov	r0, r7
 628 0042 FFF7FEFF 		bl	u8g2_DrawHVLine
 629              	.LVL72:
 630              	.L36:
 180:u8g2_lib/u8g2_bitmap.c ****     } else if( u8g2->bitmap_transparency == 0 ) {
 181:u8g2_lib/u8g2_bitmap.c ****       u8g2->draw_color = ncolor;
 182:u8g2_lib/u8g2_bitmap.c ****       u8g2_DrawHVLine(u8g2, x, y, 1, 0);
 183:u8g2_lib/u8g2_bitmap.c ****     }
 184:u8g2_lib/u8g2_bitmap.c ****    
 185:u8g2_lib/u8g2_bitmap.c ****     x++;
 631              		.loc 1 185 5 view .LVU154
 632              		.loc 1 185 6 is_stmt 0 view .LVU155
 633 0046 0136     		adds	r6, r6, #1
 634              	.LVL73:
 635              		.loc 1 185 6 view .LVU156
 636 0048 F6B2     		uxtb	r6, r6
 637              	.LVL74:
 186:u8g2_lib/u8g2_bitmap.c ****     mask <<= 1;
 638              		.loc 1 186 5 is_stmt 1 view .LVU157
 639              		.loc 1 186 10 is_stmt 0 view .LVU158
 640 004a 6400     		lsls	r4, r4, #1
 641              	.LVL75:
 187:u8g2_lib/u8g2_bitmap.c ****     if ( mask == 0 )
 642              		.loc 1 187 5 is_stmt 1 view .LVU159
 643              		.loc 1 187 8 is_stmt 0 view .LVU160
 644 004c 14F0FF04 		ands	r4, r4, #255
 645              	.LVL76:
 646              		.loc 1 187 8 view .LVU161
 647 0050 02D1     		bne	.L37
 188:u8g2_lib/u8g2_bitmap.c ****     {
 189:u8g2_lib/u8g2_bitmap.c ****       mask = 1;
 648              		.loc 1 189 7 is_stmt 1 view .LVU162
 649              	.LVL77:
 190:u8g2_lib/u8g2_bitmap.c ****       b++;
 650              		.loc 1 190 7 view .LVU163
 651              		.loc 1 190 8 is_stmt 0 view .LVU164
 652 0052 08F10108 		add	r8, r8, #1
 653              	.LVL78:
 189:u8g2_lib/u8g2_bitmap.c ****       b++;
ARM GAS  C:\Users\GKQ\AppData\Local\Temp\ccHnUY7N.s 			page 16


 654              		.loc 1 189 12 view .LVU165
 655 0056 0124     		movs	r4, #1
 656              	.LVL79:
 657              	.L37:
 191:u8g2_lib/u8g2_bitmap.c ****     }
 192:u8g2_lib/u8g2_bitmap.c ****     len--;
 658              		.loc 1 192 5 is_stmt 1 view .LVU166
 659              		.loc 1 192 8 is_stmt 0 view .LVU167
 660 0058 013D     		subs	r5, r5, #1
 661              	.LVL80:
 662              		.loc 1 192 8 view .LVU168
 663 005a EDB2     		uxtb	r5, r5
 664              	.LVL81:
 665              	.L34:
 175:u8g2_lib/u8g2_bitmap.c ****   {
 666              		.loc 1 175 8 is_stmt 1 view .LVU169
 667 005c 8DB1     		cbz	r5, .L40
 177:u8g2_lib/u8g2_bitmap.c ****       u8g2->draw_color = color;
 668              		.loc 1 177 5 view .LVU170
 177:u8g2_lib/u8g2_bitmap.c ****       u8g2->draw_color = color;
 669              		.loc 1 177 9 is_stmt 0 view .LVU171
 670 005e 98F80030 		ldrb	r3, [r8]	@ zero_extendqisi2
 177:u8g2_lib/u8g2_bitmap.c ****       u8g2->draw_color = color;
 671              		.loc 1 177 7 view .LVU172
 672 0062 2342     		tst	r3, r4
 673 0064 E5D1     		bne	.L41
 180:u8g2_lib/u8g2_bitmap.c ****       u8g2->draw_color = ncolor;
 674              		.loc 1 180 12 is_stmt 1 view .LVU173
 180:u8g2_lib/u8g2_bitmap.c ****       u8g2->draw_color = ncolor;
 675              		.loc 1 180 20 is_stmt 0 view .LVU174
 676 0066 97F88130 		ldrb	r3, [r7, #129]	@ zero_extendqisi2
 180:u8g2_lib/u8g2_bitmap.c ****       u8g2->draw_color = ncolor;
 677              		.loc 1 180 14 view .LVU175
 678 006a 002B     		cmp	r3, #0
 679 006c EBD1     		bne	.L36
 181:u8g2_lib/u8g2_bitmap.c ****       u8g2_DrawHVLine(u8g2, x, y, 1, 0);
 680              		.loc 1 181 7 is_stmt 1 view .LVU176
 181:u8g2_lib/u8g2_bitmap.c ****       u8g2_DrawHVLine(u8g2, x, y, 1, 0);
 681              		.loc 1 181 24 is_stmt 0 view .LVU177
 682 006e 87F882B0 		strb	fp, [r7, #130]
 182:u8g2_lib/u8g2_bitmap.c ****     }
 683              		.loc 1 182 7 is_stmt 1 view .LVU178
 684 0072 0093     		str	r3, [sp]
 685 0074 0123     		movs	r3, #1
 686 0076 4A46     		mov	r2, r9
 687 0078 3146     		mov	r1, r6
 688 007a 3846     		mov	r0, r7
 689 007c FFF7FEFF 		bl	u8g2_DrawHVLine
 690              	.LVL82:
 691 0080 E1E7     		b	.L36
 692              	.L40:
 193:u8g2_lib/u8g2_bitmap.c ****   }
 194:u8g2_lib/u8g2_bitmap.c ****   u8g2->draw_color = color;
 693              		.loc 1 194 3 view .LVU179
 694              		.loc 1 194 20 is_stmt 0 view .LVU180
 695 0082 87F882A0 		strb	r10, [r7, #130]
 696              	.LVL83:
ARM GAS  C:\Users\GKQ\AppData\Local\Temp\ccHnUY7N.s 			page 17


 697              	.L32:
 195:u8g2_lib/u8g2_bitmap.c **** }
 698              		.loc 1 195 1 view .LVU181
 699 0086 03B0     		add	sp, sp, #12
 700              	.LCFI14:
 701              		.cfi_def_cfa_offset 36
 702              		@ sp needed
 703 0088 BDE8F08F 		pop	{r4, r5, r6, r7, r8, r9, r10, fp, pc}
 704              		.loc 1 195 1 view .LVU182
 705              		.cfi_endproc
 706              	.LFE5:
 708              		.section	.text.u8g2_DrawXBMP,"ax",%progbits
 709              		.align	1
 710              		.global	u8g2_DrawXBMP
 711              		.syntax unified
 712              		.thumb
 713              		.thumb_func
 714              		.fpu softvfp
 716              	u8g2_DrawXBMP:
 717              	.LVL84:
 718              	.LFB6:
 196:u8g2_lib/u8g2_bitmap.c **** 
 197:u8g2_lib/u8g2_bitmap.c **** 
 198:u8g2_lib/u8g2_bitmap.c **** void u8g2_DrawXBMP(u8g2_t *u8g2, u8g2_uint_t x, u8g2_uint_t y, u8g2_uint_t w, u8g2_uint_t h, const 
 199:u8g2_lib/u8g2_bitmap.c **** {
 719              		.loc 1 199 1 is_stmt 1 view -0
 720              		.cfi_startproc
 721              		@ args = 8, pretend = 0, frame = 0
 722              		@ frame_needed = 0, uses_anonymous_args = 0
 723              		.loc 1 199 1 is_stmt 0 view .LVU184
 724 0000 2DE9F047 		push	{r4, r5, r6, r7, r8, r9, r10, lr}
 725              	.LCFI15:
 726              		.cfi_def_cfa_offset 32
 727              		.cfi_offset 4, -32
 728              		.cfi_offset 5, -28
 729              		.cfi_offset 6, -24
 730              		.cfi_offset 7, -20
 731              		.cfi_offset 8, -16
 732              		.cfi_offset 9, -12
 733              		.cfi_offset 10, -8
 734              		.cfi_offset 14, -4
 735 0004 82B0     		sub	sp, sp, #8
 736              	.LCFI16:
 737              		.cfi_def_cfa_offset 40
 738 0006 8246     		mov	r10, r0
 739 0008 8846     		mov	r8, r1
 740 000a 1446     		mov	r4, r2
 741 000c 1F46     		mov	r7, r3
 742 000e 9DF82850 		ldrb	r5, [sp, #40]	@ zero_extendqisi2
 743 0012 0B9E     		ldr	r6, [sp, #44]
 200:u8g2_lib/u8g2_bitmap.c ****   u8g2_uint_t blen;
 744              		.loc 1 200 3 is_stmt 1 view .LVU185
 201:u8g2_lib/u8g2_bitmap.c ****   blen = w;
 745              		.loc 1 201 3 view .LVU186
 746              	.LVL85:
 202:u8g2_lib/u8g2_bitmap.c ****   blen += 7;
 747              		.loc 1 202 3 view .LVU187
ARM GAS  C:\Users\GKQ\AppData\Local\Temp\ccHnUY7N.s 			page 18


 748              		.loc 1 202 8 is_stmt 0 view .LVU188
 749 0014 03F10709 		add	r9, r3, #7
 750              	.LVL86:
 203:u8g2_lib/u8g2_bitmap.c ****   blen >>= 3;
 751              		.loc 1 203 3 is_stmt 1 view .LVU189
 752              		.loc 1 203 8 is_stmt 0 view .LVU190
 753 0018 C9F3C409 		ubfx	r9, r9, #3, #5
 754              	.LVL87:
 204:u8g2_lib/u8g2_bitmap.c **** #ifdef U8G2_WITH_INTERSECTION
 205:u8g2_lib/u8g2_bitmap.c ****   if ( u8g2_IsIntersection(u8g2, x, y, x+w, y+h) == 0 ) 
 755              		.loc 1 205 3 is_stmt 1 view .LVU191
 756              		.loc 1 205 8 is_stmt 0 view .LVU192
 757 001c 03EB010C 		add	ip, r3, r1
 758 0020 5319     		adds	r3, r2, r5
 759              	.LVL88:
 760              		.loc 1 205 8 view .LVU193
 761 0022 DBB2     		uxtb	r3, r3
 762 0024 0093     		str	r3, [sp]
 763 0026 5FFA8CF3 		uxtb	r3, ip
 764 002a FFF7FEFF 		bl	u8g2_IsIntersection
 765              	.LVL89:
 766              		.loc 1 205 6 view .LVU194
 767 002e 68B1     		cbz	r0, .L42
 768              	.LVL90:
 769              	.L44:
 206:u8g2_lib/u8g2_bitmap.c ****     return;
 207:u8g2_lib/u8g2_bitmap.c **** #endif /* U8G2_WITH_INTERSECTION */
 208:u8g2_lib/u8g2_bitmap.c ****   
 209:u8g2_lib/u8g2_bitmap.c ****   while( h > 0 )
 770              		.loc 1 209 8 is_stmt 1 view .LVU195
 771 0030 65B1     		cbz	r5, .L42
 210:u8g2_lib/u8g2_bitmap.c ****   {
 211:u8g2_lib/u8g2_bitmap.c ****     u8g2_DrawHXBMP(u8g2, x, y, w, bitmap);
 772              		.loc 1 211 5 view .LVU196
 773 0032 0096     		str	r6, [sp]
 774 0034 3B46     		mov	r3, r7
 775 0036 2246     		mov	r2, r4
 776 0038 4146     		mov	r1, r8
 777 003a 5046     		mov	r0, r10
 778 003c FFF7FEFF 		bl	u8g2_DrawHXBMP
 779              	.LVL91:
 212:u8g2_lib/u8g2_bitmap.c ****     bitmap += blen;
 780              		.loc 1 212 5 view .LVU197
 781              		.loc 1 212 12 is_stmt 0 view .LVU198
 782 0040 4E44     		add	r6, r6, r9
 783              	.LVL92:
 213:u8g2_lib/u8g2_bitmap.c ****     y++;
 784              		.loc 1 213 5 is_stmt 1 view .LVU199
 785              		.loc 1 213 6 is_stmt 0 view .LVU200
 786 0042 0134     		adds	r4, r4, #1
 787              	.LVL93:
 788              		.loc 1 213 6 view .LVU201
 789 0044 E4B2     		uxtb	r4, r4
 790              	.LVL94:
 214:u8g2_lib/u8g2_bitmap.c ****     h--;
 791              		.loc 1 214 5 is_stmt 1 view .LVU202
 792              		.loc 1 214 6 is_stmt 0 view .LVU203
ARM GAS  C:\Users\GKQ\AppData\Local\Temp\ccHnUY7N.s 			page 19


 793 0046 013D     		subs	r5, r5, #1
 794              	.LVL95:
 795              		.loc 1 214 6 view .LVU204
 796 0048 EDB2     		uxtb	r5, r5
 797              	.LVL96:
 798              		.loc 1 214 6 view .LVU205
 799 004a F1E7     		b	.L44
 800              	.LVL97:
 801              	.L42:
 215:u8g2_lib/u8g2_bitmap.c ****   }
 216:u8g2_lib/u8g2_bitmap.c **** }
 802              		.loc 1 216 1 view .LVU206
 803 004c 02B0     		add	sp, sp, #8
 804              	.LCFI17:
 805              		.cfi_def_cfa_offset 32
 806              		@ sp needed
 807 004e BDE8F087 		pop	{r4, r5, r6, r7, r8, r9, r10, pc}
 808              		.loc 1 216 1 view .LVU207
 809              		.cfi_endproc
 810              	.LFE6:
 812              		.text
 813              	.Letext0:
 814              		.file 2 "d:\\work_project\\9 2019-q4-major\\arm-none-eabi\\include\\machine\\_default_types.h"
 815              		.file 3 "d:\\work_project\\9 2019-q4-major\\arm-none-eabi\\include\\sys\\_stdint.h"
 816              		.file 4 "u8g2_lib/u8x8.h"
 817              		.file 5 "u8g2_lib/u8g2.h"
ARM GAS  C:\Users\GKQ\AppData\Local\Temp\ccHnUY7N.s 			page 20

