ARM GAS  C:\Users\GKQ\AppData\Local\Temp\ccROqQZ7.s 			page 1


   1              		.cpu cortex-m3
   2              		.eabi_attribute 20, 1
   3              		.eabi_attribute 21, 1
   4              		.eabi_attribute 23, 3
   5              		.eabi_attribute 24, 1
   6              		.eabi_attribute 25, 1
   7              		.eabi_attribute 26, 1
   8              		.eabi_attribute 30, 1
   9              		.eabi_attribute 34, 1
  10              		.eabi_attribute 18, 4
  11              		.file	"u8g2_d_setup.c"
  12              		.text
  13              	.Ltext0:
  14              		.cfi_sections	.debug_frame
  15              		.section	.text.u8g2_Setup_ssd1305_128x32_noname_1,"ax",%progbits
  16              		.align	1
  17              		.global	u8g2_Setup_ssd1305_128x32_noname_1
  18              		.arch armv7-m
  19              		.syntax unified
  20              		.thumb
  21              		.thumb_func
  22              		.fpu softvfp
  24              	u8g2_Setup_ssd1305_128x32_noname_1:
  25              	.LVL0:
  26              	.LFB0:
  27              		.file 1 "u8g2_lib/u8g2_d_setup.c"
   1:u8g2_lib/u8g2_d_setup.c **** /* u8g2_d_setup.c */
   2:u8g2_lib/u8g2_d_setup.c **** /* generated code, codebuild, u8g2 project */
   3:u8g2_lib/u8g2_d_setup.c **** 
   4:u8g2_lib/u8g2_d_setup.c **** #include "u8g2.h"
   5:u8g2_lib/u8g2_d_setup.c **** 
   6:u8g2_lib/u8g2_d_setup.c **** /* ssd1305 */
   7:u8g2_lib/u8g2_d_setup.c **** /* ssd1305 1 */
   8:u8g2_lib/u8g2_d_setup.c **** void u8g2_Setup_ssd1305_128x32_noname_1(u8g2_t *u8g2, const u8g2_cb_t *rotation, u8x8_msg_cb byte_c
   9:u8g2_lib/u8g2_d_setup.c **** {
  28              		.loc 1 9 1 view -0
  29              		.cfi_startproc
  30              		@ args = 0, pretend = 0, frame = 8
  31              		@ frame_needed = 0, uses_anonymous_args = 0
  32              		.loc 1 9 1 is_stmt 0 view .LVU1
  33 0000 30B5     		push	{r4, r5, lr}
  34              	.LCFI0:
  35              		.cfi_def_cfa_offset 12
  36              		.cfi_offset 4, -12
  37              		.cfi_offset 5, -8
  38              		.cfi_offset 14, -4
  39 0002 85B0     		sub	sp, sp, #20
  40              	.LCFI1:
  41              		.cfi_def_cfa_offset 32
  42 0004 0446     		mov	r4, r0
  43 0006 0D46     		mov	r5, r1
  10:u8g2_lib/u8g2_d_setup.c ****   uint8_t tile_buf_height;
  44              		.loc 1 10 3 is_stmt 1 view .LVU2
  11:u8g2_lib/u8g2_d_setup.c ****   uint8_t *buf;
  45              		.loc 1 11 3 view .LVU3
  12:u8g2_lib/u8g2_d_setup.c ****   u8g2_SetupDisplay(u8g2, u8x8_d_ssd1305_128x32_noname, u8x8_cad_001, byte_cb, gpio_and_delay_cb);
  46              		.loc 1 12 3 view .LVU4
ARM GAS  C:\Users\GKQ\AppData\Local\Temp\ccROqQZ7.s 			page 2


  47 0008 0093     		str	r3, [sp]
  48 000a 1346     		mov	r3, r2
  49              	.LVL1:
  50              		.loc 1 12 3 is_stmt 0 view .LVU5
  51 000c 084A     		ldr	r2, .L3
  52              	.LVL2:
  53              		.loc 1 12 3 view .LVU6
  54 000e 0949     		ldr	r1, .L3+4
  55              	.LVL3:
  56              		.loc 1 12 3 view .LVU7
  57 0010 FFF7FEFF 		bl	u8x8_Setup
  58              	.LVL4:
  13:u8g2_lib/u8g2_d_setup.c ****   buf = u8g2_m_16_4_1(&tile_buf_height);
  59              		.loc 1 13 3 is_stmt 1 view .LVU8
  60              		.loc 1 13 9 is_stmt 0 view .LVU9
  61 0014 0DF10F00 		add	r0, sp, #15
  62 0018 FFF7FEFF 		bl	u8g2_m_16_4_1
  63              	.LVL5:
  64 001c 0146     		mov	r1, r0
  65              	.LVL6:
  14:u8g2_lib/u8g2_d_setup.c ****   u8g2_SetupBuffer(u8g2, buf, tile_buf_height, u8g2_ll_hvline_vertical_top_lsb, rotation);
  66              		.loc 1 14 3 is_stmt 1 view .LVU10
  67 001e 0095     		str	r5, [sp]
  68 0020 054B     		ldr	r3, .L3+8
  69 0022 9DF80F20 		ldrb	r2, [sp, #15]	@ zero_extendqisi2
  70 0026 2046     		mov	r0, r4
  71              	.LVL7:
  72              		.loc 1 14 3 is_stmt 0 view .LVU11
  73 0028 FFF7FEFF 		bl	u8g2_SetupBuffer
  74              	.LVL8:
  15:u8g2_lib/u8g2_d_setup.c **** }
  75              		.loc 1 15 1 view .LVU12
  76 002c 05B0     		add	sp, sp, #20
  77              	.LCFI2:
  78              		.cfi_def_cfa_offset 12
  79              		@ sp needed
  80 002e 30BD     		pop	{r4, r5, pc}
  81              	.LVL9:
  82              	.L4:
  83              		.loc 1 15 1 view .LVU13
  84              		.align	2
  85              	.L3:
  86 0030 00000000 		.word	u8x8_cad_001
  87 0034 00000000 		.word	u8x8_d_ssd1305_128x32_noname
  88 0038 00000000 		.word	u8g2_ll_hvline_vertical_top_lsb
  89              		.cfi_endproc
  90              	.LFE0:
  92              		.section	.text.u8g2_Setup_ssd1305_128x32_adafruit_1,"ax",%progbits
  93              		.align	1
  94              		.global	u8g2_Setup_ssd1305_128x32_adafruit_1
  95              		.syntax unified
  96              		.thumb
  97              		.thumb_func
  98              		.fpu softvfp
 100              	u8g2_Setup_ssd1305_128x32_adafruit_1:
 101              	.LVL10:
 102              	.LFB1:
ARM GAS  C:\Users\GKQ\AppData\Local\Temp\ccROqQZ7.s 			page 3


  16:u8g2_lib/u8g2_d_setup.c **** void u8g2_Setup_ssd1305_128x32_adafruit_1(u8g2_t *u8g2, const u8g2_cb_t *rotation, u8x8_msg_cb byte
  17:u8g2_lib/u8g2_d_setup.c **** {
 103              		.loc 1 17 1 is_stmt 1 view -0
 104              		.cfi_startproc
 105              		@ args = 0, pretend = 0, frame = 8
 106              		@ frame_needed = 0, uses_anonymous_args = 0
 107              		.loc 1 17 1 is_stmt 0 view .LVU15
 108 0000 30B5     		push	{r4, r5, lr}
 109              	.LCFI3:
 110              		.cfi_def_cfa_offset 12
 111              		.cfi_offset 4, -12
 112              		.cfi_offset 5, -8
 113              		.cfi_offset 14, -4
 114 0002 85B0     		sub	sp, sp, #20
 115              	.LCFI4:
 116              		.cfi_def_cfa_offset 32
 117 0004 0446     		mov	r4, r0
 118 0006 0D46     		mov	r5, r1
  18:u8g2_lib/u8g2_d_setup.c ****   uint8_t tile_buf_height;
 119              		.loc 1 18 3 is_stmt 1 view .LVU16
  19:u8g2_lib/u8g2_d_setup.c ****   uint8_t *buf;
 120              		.loc 1 19 3 view .LVU17
  20:u8g2_lib/u8g2_d_setup.c ****   u8g2_SetupDisplay(u8g2, u8x8_d_ssd1305_128x32_adafruit, u8x8_cad_001, byte_cb, gpio_and_delay_cb)
 121              		.loc 1 20 3 view .LVU18
 122 0008 0093     		str	r3, [sp]
 123 000a 1346     		mov	r3, r2
 124              	.LVL11:
 125              		.loc 1 20 3 is_stmt 0 view .LVU19
 126 000c 084A     		ldr	r2, .L7
 127              	.LVL12:
 128              		.loc 1 20 3 view .LVU20
 129 000e 0949     		ldr	r1, .L7+4
 130              	.LVL13:
 131              		.loc 1 20 3 view .LVU21
 132 0010 FFF7FEFF 		bl	u8x8_Setup
 133              	.LVL14:
  21:u8g2_lib/u8g2_d_setup.c ****   buf = u8g2_m_16_4_1(&tile_buf_height);
 134              		.loc 1 21 3 is_stmt 1 view .LVU22
 135              		.loc 1 21 9 is_stmt 0 view .LVU23
 136 0014 0DF10F00 		add	r0, sp, #15
 137 0018 FFF7FEFF 		bl	u8g2_m_16_4_1
 138              	.LVL15:
 139 001c 0146     		mov	r1, r0
 140              	.LVL16:
  22:u8g2_lib/u8g2_d_setup.c ****   u8g2_SetupBuffer(u8g2, buf, tile_buf_height, u8g2_ll_hvline_vertical_top_lsb, rotation);
 141              		.loc 1 22 3 is_stmt 1 view .LVU24
 142 001e 0095     		str	r5, [sp]
 143 0020 054B     		ldr	r3, .L7+8
 144 0022 9DF80F20 		ldrb	r2, [sp, #15]	@ zero_extendqisi2
 145 0026 2046     		mov	r0, r4
 146              	.LVL17:
 147              		.loc 1 22 3 is_stmt 0 view .LVU25
 148 0028 FFF7FEFF 		bl	u8g2_SetupBuffer
 149              	.LVL18:
  23:u8g2_lib/u8g2_d_setup.c **** }
 150              		.loc 1 23 1 view .LVU26
 151 002c 05B0     		add	sp, sp, #20
ARM GAS  C:\Users\GKQ\AppData\Local\Temp\ccROqQZ7.s 			page 4


 152              	.LCFI5:
 153              		.cfi_def_cfa_offset 12
 154              		@ sp needed
 155 002e 30BD     		pop	{r4, r5, pc}
 156              	.LVL19:
 157              	.L8:
 158              		.loc 1 23 1 view .LVU27
 159              		.align	2
 160              	.L7:
 161 0030 00000000 		.word	u8x8_cad_001
 162 0034 00000000 		.word	u8x8_d_ssd1305_128x32_adafruit
 163 0038 00000000 		.word	u8g2_ll_hvline_vertical_top_lsb
 164              		.cfi_endproc
 165              	.LFE1:
 167              		.section	.text.u8g2_Setup_ssd1305_128x32_noname_2,"ax",%progbits
 168              		.align	1
 169              		.global	u8g2_Setup_ssd1305_128x32_noname_2
 170              		.syntax unified
 171              		.thumb
 172              		.thumb_func
 173              		.fpu softvfp
 175              	u8g2_Setup_ssd1305_128x32_noname_2:
 176              	.LVL20:
 177              	.LFB2:
  24:u8g2_lib/u8g2_d_setup.c **** /* ssd1305 2 */
  25:u8g2_lib/u8g2_d_setup.c **** void u8g2_Setup_ssd1305_128x32_noname_2(u8g2_t *u8g2, const u8g2_cb_t *rotation, u8x8_msg_cb byte_c
  26:u8g2_lib/u8g2_d_setup.c **** {
 178              		.loc 1 26 1 is_stmt 1 view -0
 179              		.cfi_startproc
 180              		@ args = 0, pretend = 0, frame = 8
 181              		@ frame_needed = 0, uses_anonymous_args = 0
 182              		.loc 1 26 1 is_stmt 0 view .LVU29
 183 0000 30B5     		push	{r4, r5, lr}
 184              	.LCFI6:
 185              		.cfi_def_cfa_offset 12
 186              		.cfi_offset 4, -12
 187              		.cfi_offset 5, -8
 188              		.cfi_offset 14, -4
 189 0002 85B0     		sub	sp, sp, #20
 190              	.LCFI7:
 191              		.cfi_def_cfa_offset 32
 192 0004 0446     		mov	r4, r0
 193 0006 0D46     		mov	r5, r1
  27:u8g2_lib/u8g2_d_setup.c ****   uint8_t tile_buf_height;
 194              		.loc 1 27 3 is_stmt 1 view .LVU30
  28:u8g2_lib/u8g2_d_setup.c ****   uint8_t *buf;
 195              		.loc 1 28 3 view .LVU31
  29:u8g2_lib/u8g2_d_setup.c ****   u8g2_SetupDisplay(u8g2, u8x8_d_ssd1305_128x32_noname, u8x8_cad_001, byte_cb, gpio_and_delay_cb);
 196              		.loc 1 29 3 view .LVU32
 197 0008 0093     		str	r3, [sp]
 198 000a 1346     		mov	r3, r2
 199              	.LVL21:
 200              		.loc 1 29 3 is_stmt 0 view .LVU33
 201 000c 084A     		ldr	r2, .L11
 202              	.LVL22:
 203              		.loc 1 29 3 view .LVU34
 204 000e 0949     		ldr	r1, .L11+4
ARM GAS  C:\Users\GKQ\AppData\Local\Temp\ccROqQZ7.s 			page 5


 205              	.LVL23:
 206              		.loc 1 29 3 view .LVU35
 207 0010 FFF7FEFF 		bl	u8x8_Setup
 208              	.LVL24:
  30:u8g2_lib/u8g2_d_setup.c ****   buf = u8g2_m_16_4_2(&tile_buf_height);
 209              		.loc 1 30 3 is_stmt 1 view .LVU36
 210              		.loc 1 30 9 is_stmt 0 view .LVU37
 211 0014 0DF10F00 		add	r0, sp, #15
 212 0018 FFF7FEFF 		bl	u8g2_m_16_4_2
 213              	.LVL25:
 214 001c 0146     		mov	r1, r0
 215              	.LVL26:
  31:u8g2_lib/u8g2_d_setup.c ****   u8g2_SetupBuffer(u8g2, buf, tile_buf_height, u8g2_ll_hvline_vertical_top_lsb, rotation);
 216              		.loc 1 31 3 is_stmt 1 view .LVU38
 217 001e 0095     		str	r5, [sp]
 218 0020 054B     		ldr	r3, .L11+8
 219 0022 9DF80F20 		ldrb	r2, [sp, #15]	@ zero_extendqisi2
 220 0026 2046     		mov	r0, r4
 221              	.LVL27:
 222              		.loc 1 31 3 is_stmt 0 view .LVU39
 223 0028 FFF7FEFF 		bl	u8g2_SetupBuffer
 224              	.LVL28:
  32:u8g2_lib/u8g2_d_setup.c **** }
 225              		.loc 1 32 1 view .LVU40
 226 002c 05B0     		add	sp, sp, #20
 227              	.LCFI8:
 228              		.cfi_def_cfa_offset 12
 229              		@ sp needed
 230 002e 30BD     		pop	{r4, r5, pc}
 231              	.LVL29:
 232              	.L12:
 233              		.loc 1 32 1 view .LVU41
 234              		.align	2
 235              	.L11:
 236 0030 00000000 		.word	u8x8_cad_001
 237 0034 00000000 		.word	u8x8_d_ssd1305_128x32_noname
 238 0038 00000000 		.word	u8g2_ll_hvline_vertical_top_lsb
 239              		.cfi_endproc
 240              	.LFE2:
 242              		.section	.text.u8g2_Setup_ssd1305_128x32_adafruit_2,"ax",%progbits
 243              		.align	1
 244              		.global	u8g2_Setup_ssd1305_128x32_adafruit_2
 245              		.syntax unified
 246              		.thumb
 247              		.thumb_func
 248              		.fpu softvfp
 250              	u8g2_Setup_ssd1305_128x32_adafruit_2:
 251              	.LVL30:
 252              	.LFB3:
  33:u8g2_lib/u8g2_d_setup.c **** void u8g2_Setup_ssd1305_128x32_adafruit_2(u8g2_t *u8g2, const u8g2_cb_t *rotation, u8x8_msg_cb byte
  34:u8g2_lib/u8g2_d_setup.c **** {
 253              		.loc 1 34 1 is_stmt 1 view -0
 254              		.cfi_startproc
 255              		@ args = 0, pretend = 0, frame = 8
 256              		@ frame_needed = 0, uses_anonymous_args = 0
 257              		.loc 1 34 1 is_stmt 0 view .LVU43
 258 0000 30B5     		push	{r4, r5, lr}
ARM GAS  C:\Users\GKQ\AppData\Local\Temp\ccROqQZ7.s 			page 6


 259              	.LCFI9:
 260              		.cfi_def_cfa_offset 12
 261              		.cfi_offset 4, -12
 262              		.cfi_offset 5, -8
 263              		.cfi_offset 14, -4
 264 0002 85B0     		sub	sp, sp, #20
 265              	.LCFI10:
 266              		.cfi_def_cfa_offset 32
 267 0004 0446     		mov	r4, r0
 268 0006 0D46     		mov	r5, r1
  35:u8g2_lib/u8g2_d_setup.c ****   uint8_t tile_buf_height;
 269              		.loc 1 35 3 is_stmt 1 view .LVU44
  36:u8g2_lib/u8g2_d_setup.c ****   uint8_t *buf;
 270              		.loc 1 36 3 view .LVU45
  37:u8g2_lib/u8g2_d_setup.c ****   u8g2_SetupDisplay(u8g2, u8x8_d_ssd1305_128x32_adafruit, u8x8_cad_001, byte_cb, gpio_and_delay_cb)
 271              		.loc 1 37 3 view .LVU46
 272 0008 0093     		str	r3, [sp]
 273 000a 1346     		mov	r3, r2
 274              	.LVL31:
 275              		.loc 1 37 3 is_stmt 0 view .LVU47
 276 000c 084A     		ldr	r2, .L15
 277              	.LVL32:
 278              		.loc 1 37 3 view .LVU48
 279 000e 0949     		ldr	r1, .L15+4
 280              	.LVL33:
 281              		.loc 1 37 3 view .LVU49
 282 0010 FFF7FEFF 		bl	u8x8_Setup
 283              	.LVL34:
  38:u8g2_lib/u8g2_d_setup.c ****   buf = u8g2_m_16_4_2(&tile_buf_height);
 284              		.loc 1 38 3 is_stmt 1 view .LVU50
 285              		.loc 1 38 9 is_stmt 0 view .LVU51
 286 0014 0DF10F00 		add	r0, sp, #15
 287 0018 FFF7FEFF 		bl	u8g2_m_16_4_2
 288              	.LVL35:
 289 001c 0146     		mov	r1, r0
 290              	.LVL36:
  39:u8g2_lib/u8g2_d_setup.c ****   u8g2_SetupBuffer(u8g2, buf, tile_buf_height, u8g2_ll_hvline_vertical_top_lsb, rotation);
 291              		.loc 1 39 3 is_stmt 1 view .LVU52
 292 001e 0095     		str	r5, [sp]
 293 0020 054B     		ldr	r3, .L15+8
 294 0022 9DF80F20 		ldrb	r2, [sp, #15]	@ zero_extendqisi2
 295 0026 2046     		mov	r0, r4
 296              	.LVL37:
 297              		.loc 1 39 3 is_stmt 0 view .LVU53
 298 0028 FFF7FEFF 		bl	u8g2_SetupBuffer
 299              	.LVL38:
  40:u8g2_lib/u8g2_d_setup.c **** }
 300              		.loc 1 40 1 view .LVU54
 301 002c 05B0     		add	sp, sp, #20
 302              	.LCFI11:
 303              		.cfi_def_cfa_offset 12
 304              		@ sp needed
 305 002e 30BD     		pop	{r4, r5, pc}
 306              	.LVL39:
 307              	.L16:
 308              		.loc 1 40 1 view .LVU55
 309              		.align	2
ARM GAS  C:\Users\GKQ\AppData\Local\Temp\ccROqQZ7.s 			page 7


 310              	.L15:
 311 0030 00000000 		.word	u8x8_cad_001
 312 0034 00000000 		.word	u8x8_d_ssd1305_128x32_adafruit
 313 0038 00000000 		.word	u8g2_ll_hvline_vertical_top_lsb
 314              		.cfi_endproc
 315              	.LFE3:
 317              		.section	.text.u8g2_Setup_ssd1305_128x32_noname_f,"ax",%progbits
 318              		.align	1
 319              		.global	u8g2_Setup_ssd1305_128x32_noname_f
 320              		.syntax unified
 321              		.thumb
 322              		.thumb_func
 323              		.fpu softvfp
 325              	u8g2_Setup_ssd1305_128x32_noname_f:
 326              	.LVL40:
 327              	.LFB4:
  41:u8g2_lib/u8g2_d_setup.c **** /* ssd1305 f */
  42:u8g2_lib/u8g2_d_setup.c **** void u8g2_Setup_ssd1305_128x32_noname_f(u8g2_t *u8g2, const u8g2_cb_t *rotation, u8x8_msg_cb byte_c
  43:u8g2_lib/u8g2_d_setup.c **** {
 328              		.loc 1 43 1 is_stmt 1 view -0
 329              		.cfi_startproc
 330              		@ args = 0, pretend = 0, frame = 8
 331              		@ frame_needed = 0, uses_anonymous_args = 0
 332              		.loc 1 43 1 is_stmt 0 view .LVU57
 333 0000 30B5     		push	{r4, r5, lr}
 334              	.LCFI12:
 335              		.cfi_def_cfa_offset 12
 336              		.cfi_offset 4, -12
 337              		.cfi_offset 5, -8
 338              		.cfi_offset 14, -4
 339 0002 85B0     		sub	sp, sp, #20
 340              	.LCFI13:
 341              		.cfi_def_cfa_offset 32
 342 0004 0446     		mov	r4, r0
 343 0006 0D46     		mov	r5, r1
  44:u8g2_lib/u8g2_d_setup.c ****   uint8_t tile_buf_height;
 344              		.loc 1 44 3 is_stmt 1 view .LVU58
  45:u8g2_lib/u8g2_d_setup.c ****   uint8_t *buf;
 345              		.loc 1 45 3 view .LVU59
  46:u8g2_lib/u8g2_d_setup.c ****   u8g2_SetupDisplay(u8g2, u8x8_d_ssd1305_128x32_noname, u8x8_cad_001, byte_cb, gpio_and_delay_cb);
 346              		.loc 1 46 3 view .LVU60
 347 0008 0093     		str	r3, [sp]
 348 000a 1346     		mov	r3, r2
 349              	.LVL41:
 350              		.loc 1 46 3 is_stmt 0 view .LVU61
 351 000c 084A     		ldr	r2, .L19
 352              	.LVL42:
 353              		.loc 1 46 3 view .LVU62
 354 000e 0949     		ldr	r1, .L19+4
 355              	.LVL43:
 356              		.loc 1 46 3 view .LVU63
 357 0010 FFF7FEFF 		bl	u8x8_Setup
 358              	.LVL44:
  47:u8g2_lib/u8g2_d_setup.c ****   buf = u8g2_m_16_4_f(&tile_buf_height);
 359              		.loc 1 47 3 is_stmt 1 view .LVU64
 360              		.loc 1 47 9 is_stmt 0 view .LVU65
 361 0014 0DF10F00 		add	r0, sp, #15
ARM GAS  C:\Users\GKQ\AppData\Local\Temp\ccROqQZ7.s 			page 8


 362 0018 FFF7FEFF 		bl	u8g2_m_16_4_f
 363              	.LVL45:
 364 001c 0146     		mov	r1, r0
 365              	.LVL46:
  48:u8g2_lib/u8g2_d_setup.c ****   u8g2_SetupBuffer(u8g2, buf, tile_buf_height, u8g2_ll_hvline_vertical_top_lsb, rotation);
 366              		.loc 1 48 3 is_stmt 1 view .LVU66
 367 001e 0095     		str	r5, [sp]
 368 0020 054B     		ldr	r3, .L19+8
 369 0022 9DF80F20 		ldrb	r2, [sp, #15]	@ zero_extendqisi2
 370 0026 2046     		mov	r0, r4
 371              	.LVL47:
 372              		.loc 1 48 3 is_stmt 0 view .LVU67
 373 0028 FFF7FEFF 		bl	u8g2_SetupBuffer
 374              	.LVL48:
  49:u8g2_lib/u8g2_d_setup.c **** }
 375              		.loc 1 49 1 view .LVU68
 376 002c 05B0     		add	sp, sp, #20
 377              	.LCFI14:
 378              		.cfi_def_cfa_offset 12
 379              		@ sp needed
 380 002e 30BD     		pop	{r4, r5, pc}
 381              	.LVL49:
 382              	.L20:
 383              		.loc 1 49 1 view .LVU69
 384              		.align	2
 385              	.L19:
 386 0030 00000000 		.word	u8x8_cad_001
 387 0034 00000000 		.word	u8x8_d_ssd1305_128x32_noname
 388 0038 00000000 		.word	u8g2_ll_hvline_vertical_top_lsb
 389              		.cfi_endproc
 390              	.LFE4:
 392              		.section	.text.u8g2_Setup_ssd1305_128x32_adafruit_f,"ax",%progbits
 393              		.align	1
 394              		.global	u8g2_Setup_ssd1305_128x32_adafruit_f
 395              		.syntax unified
 396              		.thumb
 397              		.thumb_func
 398              		.fpu softvfp
 400              	u8g2_Setup_ssd1305_128x32_adafruit_f:
 401              	.LVL50:
 402              	.LFB5:
  50:u8g2_lib/u8g2_d_setup.c **** void u8g2_Setup_ssd1305_128x32_adafruit_f(u8g2_t *u8g2, const u8g2_cb_t *rotation, u8x8_msg_cb byte
  51:u8g2_lib/u8g2_d_setup.c **** {
 403              		.loc 1 51 1 is_stmt 1 view -0
 404              		.cfi_startproc
 405              		@ args = 0, pretend = 0, frame = 8
 406              		@ frame_needed = 0, uses_anonymous_args = 0
 407              		.loc 1 51 1 is_stmt 0 view .LVU71
 408 0000 30B5     		push	{r4, r5, lr}
 409              	.LCFI15:
 410              		.cfi_def_cfa_offset 12
 411              		.cfi_offset 4, -12
 412              		.cfi_offset 5, -8
 413              		.cfi_offset 14, -4
 414 0002 85B0     		sub	sp, sp, #20
 415              	.LCFI16:
 416              		.cfi_def_cfa_offset 32
ARM GAS  C:\Users\GKQ\AppData\Local\Temp\ccROqQZ7.s 			page 9


 417 0004 0446     		mov	r4, r0
 418 0006 0D46     		mov	r5, r1
  52:u8g2_lib/u8g2_d_setup.c ****   uint8_t tile_buf_height;
 419              		.loc 1 52 3 is_stmt 1 view .LVU72
  53:u8g2_lib/u8g2_d_setup.c ****   uint8_t *buf;
 420              		.loc 1 53 3 view .LVU73
  54:u8g2_lib/u8g2_d_setup.c ****   u8g2_SetupDisplay(u8g2, u8x8_d_ssd1305_128x32_adafruit, u8x8_cad_001, byte_cb, gpio_and_delay_cb)
 421              		.loc 1 54 3 view .LVU74
 422 0008 0093     		str	r3, [sp]
 423 000a 1346     		mov	r3, r2
 424              	.LVL51:
 425              		.loc 1 54 3 is_stmt 0 view .LVU75
 426 000c 084A     		ldr	r2, .L23
 427              	.LVL52:
 428              		.loc 1 54 3 view .LVU76
 429 000e 0949     		ldr	r1, .L23+4
 430              	.LVL53:
 431              		.loc 1 54 3 view .LVU77
 432 0010 FFF7FEFF 		bl	u8x8_Setup
 433              	.LVL54:
  55:u8g2_lib/u8g2_d_setup.c ****   buf = u8g2_m_16_4_f(&tile_buf_height);
 434              		.loc 1 55 3 is_stmt 1 view .LVU78
 435              		.loc 1 55 9 is_stmt 0 view .LVU79
 436 0014 0DF10F00 		add	r0, sp, #15
 437 0018 FFF7FEFF 		bl	u8g2_m_16_4_f
 438              	.LVL55:
 439 001c 0146     		mov	r1, r0
 440              	.LVL56:
  56:u8g2_lib/u8g2_d_setup.c ****   u8g2_SetupBuffer(u8g2, buf, tile_buf_height, u8g2_ll_hvline_vertical_top_lsb, rotation);
 441              		.loc 1 56 3 is_stmt 1 view .LVU80
 442 001e 0095     		str	r5, [sp]
 443 0020 054B     		ldr	r3, .L23+8
 444 0022 9DF80F20 		ldrb	r2, [sp, #15]	@ zero_extendqisi2
 445 0026 2046     		mov	r0, r4
 446              	.LVL57:
 447              		.loc 1 56 3 is_stmt 0 view .LVU81
 448 0028 FFF7FEFF 		bl	u8g2_SetupBuffer
 449              	.LVL58:
  57:u8g2_lib/u8g2_d_setup.c **** }
 450              		.loc 1 57 1 view .LVU82
 451 002c 05B0     		add	sp, sp, #20
 452              	.LCFI17:
 453              		.cfi_def_cfa_offset 12
 454              		@ sp needed
 455 002e 30BD     		pop	{r4, r5, pc}
 456              	.LVL59:
 457              	.L24:
 458              		.loc 1 57 1 view .LVU83
 459              		.align	2
 460              	.L23:
 461 0030 00000000 		.word	u8x8_cad_001
 462 0034 00000000 		.word	u8x8_d_ssd1305_128x32_adafruit
 463 0038 00000000 		.word	u8g2_ll_hvline_vertical_top_lsb
 464              		.cfi_endproc
 465              	.LFE5:
 467              		.section	.text.u8g2_Setup_ssd1305_i2c_128x32_noname_1,"ax",%progbits
 468              		.align	1
ARM GAS  C:\Users\GKQ\AppData\Local\Temp\ccROqQZ7.s 			page 10


 469              		.global	u8g2_Setup_ssd1305_i2c_128x32_noname_1
 470              		.syntax unified
 471              		.thumb
 472              		.thumb_func
 473              		.fpu softvfp
 475              	u8g2_Setup_ssd1305_i2c_128x32_noname_1:
 476              	.LVL60:
 477              	.LFB6:
  58:u8g2_lib/u8g2_d_setup.c **** /* ssd1305 */
  59:u8g2_lib/u8g2_d_setup.c **** /* ssd1305 1 */
  60:u8g2_lib/u8g2_d_setup.c **** void u8g2_Setup_ssd1305_i2c_128x32_noname_1(u8g2_t *u8g2, const u8g2_cb_t *rotation, u8x8_msg_cb by
  61:u8g2_lib/u8g2_d_setup.c **** {
 478              		.loc 1 61 1 is_stmt 1 view -0
 479              		.cfi_startproc
 480              		@ args = 0, pretend = 0, frame = 8
 481              		@ frame_needed = 0, uses_anonymous_args = 0
 482              		.loc 1 61 1 is_stmt 0 view .LVU85
 483 0000 30B5     		push	{r4, r5, lr}
 484              	.LCFI18:
 485              		.cfi_def_cfa_offset 12
 486              		.cfi_offset 4, -12
 487              		.cfi_offset 5, -8
 488              		.cfi_offset 14, -4
 489 0002 85B0     		sub	sp, sp, #20
 490              	.LCFI19:
 491              		.cfi_def_cfa_offset 32
 492 0004 0446     		mov	r4, r0
 493 0006 0D46     		mov	r5, r1
  62:u8g2_lib/u8g2_d_setup.c ****   uint8_t tile_buf_height;
 494              		.loc 1 62 3 is_stmt 1 view .LVU86
  63:u8g2_lib/u8g2_d_setup.c ****   uint8_t *buf;
 495              		.loc 1 63 3 view .LVU87
  64:u8g2_lib/u8g2_d_setup.c ****   u8g2_SetupDisplay(u8g2, u8x8_d_ssd1305_128x32_noname, u8x8_cad_ssd13xx_i2c, byte_cb, gpio_and_del
 496              		.loc 1 64 3 view .LVU88
 497 0008 0093     		str	r3, [sp]
 498 000a 1346     		mov	r3, r2
 499              	.LVL61:
 500              		.loc 1 64 3 is_stmt 0 view .LVU89
 501 000c 084A     		ldr	r2, .L27
 502              	.LVL62:
 503              		.loc 1 64 3 view .LVU90
 504 000e 0949     		ldr	r1, .L27+4
 505              	.LVL63:
 506              		.loc 1 64 3 view .LVU91
 507 0010 FFF7FEFF 		bl	u8x8_Setup
 508              	.LVL64:
  65:u8g2_lib/u8g2_d_setup.c ****   buf = u8g2_m_16_4_1(&tile_buf_height);
 509              		.loc 1 65 3 is_stmt 1 view .LVU92
 510              		.loc 1 65 9 is_stmt 0 view .LVU93
 511 0014 0DF10F00 		add	r0, sp, #15
 512 0018 FFF7FEFF 		bl	u8g2_m_16_4_1
 513              	.LVL65:
 514 001c 0146     		mov	r1, r0
 515              	.LVL66:
  66:u8g2_lib/u8g2_d_setup.c ****   u8g2_SetupBuffer(u8g2, buf, tile_buf_height, u8g2_ll_hvline_vertical_top_lsb, rotation);
 516              		.loc 1 66 3 is_stmt 1 view .LVU94
 517 001e 0095     		str	r5, [sp]
ARM GAS  C:\Users\GKQ\AppData\Local\Temp\ccROqQZ7.s 			page 11


 518 0020 054B     		ldr	r3, .L27+8
 519 0022 9DF80F20 		ldrb	r2, [sp, #15]	@ zero_extendqisi2
 520 0026 2046     		mov	r0, r4
 521              	.LVL67:
 522              		.loc 1 66 3 is_stmt 0 view .LVU95
 523 0028 FFF7FEFF 		bl	u8g2_SetupBuffer
 524              	.LVL68:
  67:u8g2_lib/u8g2_d_setup.c **** }
 525              		.loc 1 67 1 view .LVU96
 526 002c 05B0     		add	sp, sp, #20
 527              	.LCFI20:
 528              		.cfi_def_cfa_offset 12
 529              		@ sp needed
 530 002e 30BD     		pop	{r4, r5, pc}
 531              	.LVL69:
 532              	.L28:
 533              		.loc 1 67 1 view .LVU97
 534              		.align	2
 535              	.L27:
 536 0030 00000000 		.word	u8x8_cad_ssd13xx_i2c
 537 0034 00000000 		.word	u8x8_d_ssd1305_128x32_noname
 538 0038 00000000 		.word	u8g2_ll_hvline_vertical_top_lsb
 539              		.cfi_endproc
 540              	.LFE6:
 542              		.section	.text.u8g2_Setup_ssd1305_i2c_128x32_adafruit_1,"ax",%progbits
 543              		.align	1
 544              		.global	u8g2_Setup_ssd1305_i2c_128x32_adafruit_1
 545              		.syntax unified
 546              		.thumb
 547              		.thumb_func
 548              		.fpu softvfp
 550              	u8g2_Setup_ssd1305_i2c_128x32_adafruit_1:
 551              	.LVL70:
 552              	.LFB7:
  68:u8g2_lib/u8g2_d_setup.c **** void u8g2_Setup_ssd1305_i2c_128x32_adafruit_1(u8g2_t *u8g2, const u8g2_cb_t *rotation, u8x8_msg_cb 
  69:u8g2_lib/u8g2_d_setup.c **** {
 553              		.loc 1 69 1 is_stmt 1 view -0
 554              		.cfi_startproc
 555              		@ args = 0, pretend = 0, frame = 8
 556              		@ frame_needed = 0, uses_anonymous_args = 0
 557              		.loc 1 69 1 is_stmt 0 view .LVU99
 558 0000 30B5     		push	{r4, r5, lr}
 559              	.LCFI21:
 560              		.cfi_def_cfa_offset 12
 561              		.cfi_offset 4, -12
 562              		.cfi_offset 5, -8
 563              		.cfi_offset 14, -4
 564 0002 85B0     		sub	sp, sp, #20
 565              	.LCFI22:
 566              		.cfi_def_cfa_offset 32
 567 0004 0446     		mov	r4, r0
 568 0006 0D46     		mov	r5, r1
  70:u8g2_lib/u8g2_d_setup.c ****   uint8_t tile_buf_height;
 569              		.loc 1 70 3 is_stmt 1 view .LVU100
  71:u8g2_lib/u8g2_d_setup.c ****   uint8_t *buf;
 570              		.loc 1 71 3 view .LVU101
  72:u8g2_lib/u8g2_d_setup.c ****   u8g2_SetupDisplay(u8g2, u8x8_d_ssd1305_128x32_adafruit, u8x8_cad_ssd13xx_i2c, byte_cb, gpio_and_d
ARM GAS  C:\Users\GKQ\AppData\Local\Temp\ccROqQZ7.s 			page 12


 571              		.loc 1 72 3 view .LVU102
 572 0008 0093     		str	r3, [sp]
 573 000a 1346     		mov	r3, r2
 574              	.LVL71:
 575              		.loc 1 72 3 is_stmt 0 view .LVU103
 576 000c 084A     		ldr	r2, .L31
 577              	.LVL72:
 578              		.loc 1 72 3 view .LVU104
 579 000e 0949     		ldr	r1, .L31+4
 580              	.LVL73:
 581              		.loc 1 72 3 view .LVU105
 582 0010 FFF7FEFF 		bl	u8x8_Setup
 583              	.LVL74:
  73:u8g2_lib/u8g2_d_setup.c ****   buf = u8g2_m_16_4_1(&tile_buf_height);
 584              		.loc 1 73 3 is_stmt 1 view .LVU106
 585              		.loc 1 73 9 is_stmt 0 view .LVU107
 586 0014 0DF10F00 		add	r0, sp, #15
 587 0018 FFF7FEFF 		bl	u8g2_m_16_4_1
 588              	.LVL75:
 589 001c 0146     		mov	r1, r0
 590              	.LVL76:
  74:u8g2_lib/u8g2_d_setup.c ****   u8g2_SetupBuffer(u8g2, buf, tile_buf_height, u8g2_ll_hvline_vertical_top_lsb, rotation);
 591              		.loc 1 74 3 is_stmt 1 view .LVU108
 592 001e 0095     		str	r5, [sp]
 593 0020 054B     		ldr	r3, .L31+8
 594 0022 9DF80F20 		ldrb	r2, [sp, #15]	@ zero_extendqisi2
 595 0026 2046     		mov	r0, r4
 596              	.LVL77:
 597              		.loc 1 74 3 is_stmt 0 view .LVU109
 598 0028 FFF7FEFF 		bl	u8g2_SetupBuffer
 599              	.LVL78:
  75:u8g2_lib/u8g2_d_setup.c **** }
 600              		.loc 1 75 1 view .LVU110
 601 002c 05B0     		add	sp, sp, #20
 602              	.LCFI23:
 603              		.cfi_def_cfa_offset 12
 604              		@ sp needed
 605 002e 30BD     		pop	{r4, r5, pc}
 606              	.LVL79:
 607              	.L32:
 608              		.loc 1 75 1 view .LVU111
 609              		.align	2
 610              	.L31:
 611 0030 00000000 		.word	u8x8_cad_ssd13xx_i2c
 612 0034 00000000 		.word	u8x8_d_ssd1305_128x32_adafruit
 613 0038 00000000 		.word	u8g2_ll_hvline_vertical_top_lsb
 614              		.cfi_endproc
 615              	.LFE7:
 617              		.section	.text.u8g2_Setup_ssd1305_i2c_128x32_noname_2,"ax",%progbits
 618              		.align	1
 619              		.global	u8g2_Setup_ssd1305_i2c_128x32_noname_2
 620              		.syntax unified
 621              		.thumb
 622              		.thumb_func
 623              		.fpu softvfp
 625              	u8g2_Setup_ssd1305_i2c_128x32_noname_2:
 626              	.LVL80:
ARM GAS  C:\Users\GKQ\AppData\Local\Temp\ccROqQZ7.s 			page 13


 627              	.LFB8:
  76:u8g2_lib/u8g2_d_setup.c **** /* ssd1305 2 */
  77:u8g2_lib/u8g2_d_setup.c **** void u8g2_Setup_ssd1305_i2c_128x32_noname_2(u8g2_t *u8g2, const u8g2_cb_t *rotation, u8x8_msg_cb by
  78:u8g2_lib/u8g2_d_setup.c **** {
 628              		.loc 1 78 1 is_stmt 1 view -0
 629              		.cfi_startproc
 630              		@ args = 0, pretend = 0, frame = 8
 631              		@ frame_needed = 0, uses_anonymous_args = 0
 632              		.loc 1 78 1 is_stmt 0 view .LVU113
 633 0000 30B5     		push	{r4, r5, lr}
 634              	.LCFI24:
 635              		.cfi_def_cfa_offset 12
 636              		.cfi_offset 4, -12
 637              		.cfi_offset 5, -8
 638              		.cfi_offset 14, -4
 639 0002 85B0     		sub	sp, sp, #20
 640              	.LCFI25:
 641              		.cfi_def_cfa_offset 32
 642 0004 0446     		mov	r4, r0
 643 0006 0D46     		mov	r5, r1
  79:u8g2_lib/u8g2_d_setup.c ****   uint8_t tile_buf_height;
 644              		.loc 1 79 3 is_stmt 1 view .LVU114
  80:u8g2_lib/u8g2_d_setup.c ****   uint8_t *buf;
 645              		.loc 1 80 3 view .LVU115
  81:u8g2_lib/u8g2_d_setup.c ****   u8g2_SetupDisplay(u8g2, u8x8_d_ssd1305_128x32_noname, u8x8_cad_ssd13xx_i2c, byte_cb, gpio_and_del
 646              		.loc 1 81 3 view .LVU116
 647 0008 0093     		str	r3, [sp]
 648 000a 1346     		mov	r3, r2
 649              	.LVL81:
 650              		.loc 1 81 3 is_stmt 0 view .LVU117
 651 000c 084A     		ldr	r2, .L35
 652              	.LVL82:
 653              		.loc 1 81 3 view .LVU118
 654 000e 0949     		ldr	r1, .L35+4
 655              	.LVL83:
 656              		.loc 1 81 3 view .LVU119
 657 0010 FFF7FEFF 		bl	u8x8_Setup
 658              	.LVL84:
  82:u8g2_lib/u8g2_d_setup.c ****   buf = u8g2_m_16_4_2(&tile_buf_height);
 659              		.loc 1 82 3 is_stmt 1 view .LVU120
 660              		.loc 1 82 9 is_stmt 0 view .LVU121
 661 0014 0DF10F00 		add	r0, sp, #15
 662 0018 FFF7FEFF 		bl	u8g2_m_16_4_2
 663              	.LVL85:
 664 001c 0146     		mov	r1, r0
 665              	.LVL86:
  83:u8g2_lib/u8g2_d_setup.c ****   u8g2_SetupBuffer(u8g2, buf, tile_buf_height, u8g2_ll_hvline_vertical_top_lsb, rotation);
 666              		.loc 1 83 3 is_stmt 1 view .LVU122
 667 001e 0095     		str	r5, [sp]
 668 0020 054B     		ldr	r3, .L35+8
 669 0022 9DF80F20 		ldrb	r2, [sp, #15]	@ zero_extendqisi2
 670 0026 2046     		mov	r0, r4
 671              	.LVL87:
 672              		.loc 1 83 3 is_stmt 0 view .LVU123
 673 0028 FFF7FEFF 		bl	u8g2_SetupBuffer
 674              	.LVL88:
  84:u8g2_lib/u8g2_d_setup.c **** }
ARM GAS  C:\Users\GKQ\AppData\Local\Temp\ccROqQZ7.s 			page 14


 675              		.loc 1 84 1 view .LVU124
 676 002c 05B0     		add	sp, sp, #20
 677              	.LCFI26:
 678              		.cfi_def_cfa_offset 12
 679              		@ sp needed
 680 002e 30BD     		pop	{r4, r5, pc}
 681              	.LVL89:
 682              	.L36:
 683              		.loc 1 84 1 view .LVU125
 684              		.align	2
 685              	.L35:
 686 0030 00000000 		.word	u8x8_cad_ssd13xx_i2c
 687 0034 00000000 		.word	u8x8_d_ssd1305_128x32_noname
 688 0038 00000000 		.word	u8g2_ll_hvline_vertical_top_lsb
 689              		.cfi_endproc
 690              	.LFE8:
 692              		.section	.text.u8g2_Setup_ssd1305_i2c_128x32_adafruit_2,"ax",%progbits
 693              		.align	1
 694              		.global	u8g2_Setup_ssd1305_i2c_128x32_adafruit_2
 695              		.syntax unified
 696              		.thumb
 697              		.thumb_func
 698              		.fpu softvfp
 700              	u8g2_Setup_ssd1305_i2c_128x32_adafruit_2:
 701              	.LVL90:
 702              	.LFB9:
  85:u8g2_lib/u8g2_d_setup.c **** void u8g2_Setup_ssd1305_i2c_128x32_adafruit_2(u8g2_t *u8g2, const u8g2_cb_t *rotation, u8x8_msg_cb 
  86:u8g2_lib/u8g2_d_setup.c **** {
 703              		.loc 1 86 1 is_stmt 1 view -0
 704              		.cfi_startproc
 705              		@ args = 0, pretend = 0, frame = 8
 706              		@ frame_needed = 0, uses_anonymous_args = 0
 707              		.loc 1 86 1 is_stmt 0 view .LVU127
 708 0000 30B5     		push	{r4, r5, lr}
 709              	.LCFI27:
 710              		.cfi_def_cfa_offset 12
 711              		.cfi_offset 4, -12
 712              		.cfi_offset 5, -8
 713              		.cfi_offset 14, -4
 714 0002 85B0     		sub	sp, sp, #20
 715              	.LCFI28:
 716              		.cfi_def_cfa_offset 32
 717 0004 0446     		mov	r4, r0
 718 0006 0D46     		mov	r5, r1
  87:u8g2_lib/u8g2_d_setup.c ****   uint8_t tile_buf_height;
 719              		.loc 1 87 3 is_stmt 1 view .LVU128
  88:u8g2_lib/u8g2_d_setup.c ****   uint8_t *buf;
 720              		.loc 1 88 3 view .LVU129
  89:u8g2_lib/u8g2_d_setup.c ****   u8g2_SetupDisplay(u8g2, u8x8_d_ssd1305_128x32_adafruit, u8x8_cad_ssd13xx_i2c, byte_cb, gpio_and_d
 721              		.loc 1 89 3 view .LVU130
 722 0008 0093     		str	r3, [sp]
 723 000a 1346     		mov	r3, r2
 724              	.LVL91:
 725              		.loc 1 89 3 is_stmt 0 view .LVU131
 726 000c 084A     		ldr	r2, .L39
 727              	.LVL92:
 728              		.loc 1 89 3 view .LVU132
ARM GAS  C:\Users\GKQ\AppData\Local\Temp\ccROqQZ7.s 			page 15


 729 000e 0949     		ldr	r1, .L39+4
 730              	.LVL93:
 731              		.loc 1 89 3 view .LVU133
 732 0010 FFF7FEFF 		bl	u8x8_Setup
 733              	.LVL94:
  90:u8g2_lib/u8g2_d_setup.c ****   buf = u8g2_m_16_4_2(&tile_buf_height);
 734              		.loc 1 90 3 is_stmt 1 view .LVU134
 735              		.loc 1 90 9 is_stmt 0 view .LVU135
 736 0014 0DF10F00 		add	r0, sp, #15
 737 0018 FFF7FEFF 		bl	u8g2_m_16_4_2
 738              	.LVL95:
 739 001c 0146     		mov	r1, r0
 740              	.LVL96:
  91:u8g2_lib/u8g2_d_setup.c ****   u8g2_SetupBuffer(u8g2, buf, tile_buf_height, u8g2_ll_hvline_vertical_top_lsb, rotation);
 741              		.loc 1 91 3 is_stmt 1 view .LVU136
 742 001e 0095     		str	r5, [sp]
 743 0020 054B     		ldr	r3, .L39+8
 744 0022 9DF80F20 		ldrb	r2, [sp, #15]	@ zero_extendqisi2
 745 0026 2046     		mov	r0, r4
 746              	.LVL97:
 747              		.loc 1 91 3 is_stmt 0 view .LVU137
 748 0028 FFF7FEFF 		bl	u8g2_SetupBuffer
 749              	.LVL98:
  92:u8g2_lib/u8g2_d_setup.c **** }
 750              		.loc 1 92 1 view .LVU138
 751 002c 05B0     		add	sp, sp, #20
 752              	.LCFI29:
 753              		.cfi_def_cfa_offset 12
 754              		@ sp needed
 755 002e 30BD     		pop	{r4, r5, pc}
 756              	.LVL99:
 757              	.L40:
 758              		.loc 1 92 1 view .LVU139
 759              		.align	2
 760              	.L39:
 761 0030 00000000 		.word	u8x8_cad_ssd13xx_i2c
 762 0034 00000000 		.word	u8x8_d_ssd1305_128x32_adafruit
 763 0038 00000000 		.word	u8g2_ll_hvline_vertical_top_lsb
 764              		.cfi_endproc
 765              	.LFE9:
 767              		.section	.text.u8g2_Setup_ssd1305_i2c_128x32_noname_f,"ax",%progbits
 768              		.align	1
 769              		.global	u8g2_Setup_ssd1305_i2c_128x32_noname_f
 770              		.syntax unified
 771              		.thumb
 772              		.thumb_func
 773              		.fpu softvfp
 775              	u8g2_Setup_ssd1305_i2c_128x32_noname_f:
 776              	.LVL100:
 777              	.LFB10:
  93:u8g2_lib/u8g2_d_setup.c **** /* ssd1305 f */
  94:u8g2_lib/u8g2_d_setup.c **** void u8g2_Setup_ssd1305_i2c_128x32_noname_f(u8g2_t *u8g2, const u8g2_cb_t *rotation, u8x8_msg_cb by
  95:u8g2_lib/u8g2_d_setup.c **** {
 778              		.loc 1 95 1 is_stmt 1 view -0
 779              		.cfi_startproc
 780              		@ args = 0, pretend = 0, frame = 8
 781              		@ frame_needed = 0, uses_anonymous_args = 0
ARM GAS  C:\Users\GKQ\AppData\Local\Temp\ccROqQZ7.s 			page 16


 782              		.loc 1 95 1 is_stmt 0 view .LVU141
 783 0000 30B5     		push	{r4, r5, lr}
 784              	.LCFI30:
 785              		.cfi_def_cfa_offset 12
 786              		.cfi_offset 4, -12
 787              		.cfi_offset 5, -8
 788              		.cfi_offset 14, -4
 789 0002 85B0     		sub	sp, sp, #20
 790              	.LCFI31:
 791              		.cfi_def_cfa_offset 32
 792 0004 0446     		mov	r4, r0
 793 0006 0D46     		mov	r5, r1
  96:u8g2_lib/u8g2_d_setup.c ****   uint8_t tile_buf_height;
 794              		.loc 1 96 3 is_stmt 1 view .LVU142
  97:u8g2_lib/u8g2_d_setup.c ****   uint8_t *buf;
 795              		.loc 1 97 3 view .LVU143
  98:u8g2_lib/u8g2_d_setup.c ****   u8g2_SetupDisplay(u8g2, u8x8_d_ssd1305_128x32_noname, u8x8_cad_ssd13xx_i2c, byte_cb, gpio_and_del
 796              		.loc 1 98 3 view .LVU144
 797 0008 0093     		str	r3, [sp]
 798 000a 1346     		mov	r3, r2
 799              	.LVL101:
 800              		.loc 1 98 3 is_stmt 0 view .LVU145
 801 000c 084A     		ldr	r2, .L43
 802              	.LVL102:
 803              		.loc 1 98 3 view .LVU146
 804 000e 0949     		ldr	r1, .L43+4
 805              	.LVL103:
 806              		.loc 1 98 3 view .LVU147
 807 0010 FFF7FEFF 		bl	u8x8_Setup
 808              	.LVL104:
  99:u8g2_lib/u8g2_d_setup.c ****   buf = u8g2_m_16_4_f(&tile_buf_height);
 809              		.loc 1 99 3 is_stmt 1 view .LVU148
 810              		.loc 1 99 9 is_stmt 0 view .LVU149
 811 0014 0DF10F00 		add	r0, sp, #15
 812 0018 FFF7FEFF 		bl	u8g2_m_16_4_f
 813              	.LVL105:
 814 001c 0146     		mov	r1, r0
 815              	.LVL106:
 100:u8g2_lib/u8g2_d_setup.c ****   u8g2_SetupBuffer(u8g2, buf, tile_buf_height, u8g2_ll_hvline_vertical_top_lsb, rotation);
 816              		.loc 1 100 3 is_stmt 1 view .LVU150
 817 001e 0095     		str	r5, [sp]
 818 0020 054B     		ldr	r3, .L43+8
 819 0022 9DF80F20 		ldrb	r2, [sp, #15]	@ zero_extendqisi2
 820 0026 2046     		mov	r0, r4
 821              	.LVL107:
 822              		.loc 1 100 3 is_stmt 0 view .LVU151
 823 0028 FFF7FEFF 		bl	u8g2_SetupBuffer
 824              	.LVL108:
 101:u8g2_lib/u8g2_d_setup.c **** }
 825              		.loc 1 101 1 view .LVU152
 826 002c 05B0     		add	sp, sp, #20
 827              	.LCFI32:
 828              		.cfi_def_cfa_offset 12
 829              		@ sp needed
 830 002e 30BD     		pop	{r4, r5, pc}
 831              	.LVL109:
 832              	.L44:
ARM GAS  C:\Users\GKQ\AppData\Local\Temp\ccROqQZ7.s 			page 17


 833              		.loc 1 101 1 view .LVU153
 834              		.align	2
 835              	.L43:
 836 0030 00000000 		.word	u8x8_cad_ssd13xx_i2c
 837 0034 00000000 		.word	u8x8_d_ssd1305_128x32_noname
 838 0038 00000000 		.word	u8g2_ll_hvline_vertical_top_lsb
 839              		.cfi_endproc
 840              	.LFE10:
 842              		.section	.text.u8g2_Setup_ssd1305_i2c_128x32_adafruit_f,"ax",%progbits
 843              		.align	1
 844              		.global	u8g2_Setup_ssd1305_i2c_128x32_adafruit_f
 845              		.syntax unified
 846              		.thumb
 847              		.thumb_func
 848              		.fpu softvfp
 850              	u8g2_Setup_ssd1305_i2c_128x32_adafruit_f:
 851              	.LVL110:
 852              	.LFB11:
 102:u8g2_lib/u8g2_d_setup.c **** void u8g2_Setup_ssd1305_i2c_128x32_adafruit_f(u8g2_t *u8g2, const u8g2_cb_t *rotation, u8x8_msg_cb 
 103:u8g2_lib/u8g2_d_setup.c **** {
 853              		.loc 1 103 1 is_stmt 1 view -0
 854              		.cfi_startproc
 855              		@ args = 0, pretend = 0, frame = 8
 856              		@ frame_needed = 0, uses_anonymous_args = 0
 857              		.loc 1 103 1 is_stmt 0 view .LVU155
 858 0000 30B5     		push	{r4, r5, lr}
 859              	.LCFI33:
 860              		.cfi_def_cfa_offset 12
 861              		.cfi_offset 4, -12
 862              		.cfi_offset 5, -8
 863              		.cfi_offset 14, -4
 864 0002 85B0     		sub	sp, sp, #20
 865              	.LCFI34:
 866              		.cfi_def_cfa_offset 32
 867 0004 0446     		mov	r4, r0
 868 0006 0D46     		mov	r5, r1
 104:u8g2_lib/u8g2_d_setup.c ****   uint8_t tile_buf_height;
 869              		.loc 1 104 3 is_stmt 1 view .LVU156
 105:u8g2_lib/u8g2_d_setup.c ****   uint8_t *buf;
 870              		.loc 1 105 3 view .LVU157
 106:u8g2_lib/u8g2_d_setup.c ****   u8g2_SetupDisplay(u8g2, u8x8_d_ssd1305_128x32_adafruit, u8x8_cad_ssd13xx_i2c, byte_cb, gpio_and_d
 871              		.loc 1 106 3 view .LVU158
 872 0008 0093     		str	r3, [sp]
 873 000a 1346     		mov	r3, r2
 874              	.LVL111:
 875              		.loc 1 106 3 is_stmt 0 view .LVU159
 876 000c 084A     		ldr	r2, .L47
 877              	.LVL112:
 878              		.loc 1 106 3 view .LVU160
 879 000e 0949     		ldr	r1, .L47+4
 880              	.LVL113:
 881              		.loc 1 106 3 view .LVU161
 882 0010 FFF7FEFF 		bl	u8x8_Setup
 883              	.LVL114:
 107:u8g2_lib/u8g2_d_setup.c ****   buf = u8g2_m_16_4_f(&tile_buf_height);
 884              		.loc 1 107 3 is_stmt 1 view .LVU162
 885              		.loc 1 107 9 is_stmt 0 view .LVU163
ARM GAS  C:\Users\GKQ\AppData\Local\Temp\ccROqQZ7.s 			page 18


 886 0014 0DF10F00 		add	r0, sp, #15
 887 0018 FFF7FEFF 		bl	u8g2_m_16_4_f
 888              	.LVL115:
 889 001c 0146     		mov	r1, r0
 890              	.LVL116:
 108:u8g2_lib/u8g2_d_setup.c ****   u8g2_SetupBuffer(u8g2, buf, tile_buf_height, u8g2_ll_hvline_vertical_top_lsb, rotation);
 891              		.loc 1 108 3 is_stmt 1 view .LVU164
 892 001e 0095     		str	r5, [sp]
 893 0020 054B     		ldr	r3, .L47+8
 894 0022 9DF80F20 		ldrb	r2, [sp, #15]	@ zero_extendqisi2
 895 0026 2046     		mov	r0, r4
 896              	.LVL117:
 897              		.loc 1 108 3 is_stmt 0 view .LVU165
 898 0028 FFF7FEFF 		bl	u8g2_SetupBuffer
 899              	.LVL118:
 109:u8g2_lib/u8g2_d_setup.c **** }
 900              		.loc 1 109 1 view .LVU166
 901 002c 05B0     		add	sp, sp, #20
 902              	.LCFI35:
 903              		.cfi_def_cfa_offset 12
 904              		@ sp needed
 905 002e 30BD     		pop	{r4, r5, pc}
 906              	.LVL119:
 907              	.L48:
 908              		.loc 1 109 1 view .LVU167
 909              		.align	2
 910              	.L47:
 911 0030 00000000 		.word	u8x8_cad_ssd13xx_i2c
 912 0034 00000000 		.word	u8x8_d_ssd1305_128x32_adafruit
 913 0038 00000000 		.word	u8g2_ll_hvline_vertical_top_lsb
 914              		.cfi_endproc
 915              	.LFE11:
 917              		.section	.text.u8g2_Setup_ssd1305_128x64_adafruit_1,"ax",%progbits
 918              		.align	1
 919              		.global	u8g2_Setup_ssd1305_128x64_adafruit_1
 920              		.syntax unified
 921              		.thumb
 922              		.thumb_func
 923              		.fpu softvfp
 925              	u8g2_Setup_ssd1305_128x64_adafruit_1:
 926              	.LVL120:
 927              	.LFB12:
 110:u8g2_lib/u8g2_d_setup.c **** /* ssd1305 */
 111:u8g2_lib/u8g2_d_setup.c **** /* ssd1305 1 */
 112:u8g2_lib/u8g2_d_setup.c **** void u8g2_Setup_ssd1305_128x64_adafruit_1(u8g2_t *u8g2, const u8g2_cb_t *rotation, u8x8_msg_cb byte
 113:u8g2_lib/u8g2_d_setup.c **** {
 928              		.loc 1 113 1 is_stmt 1 view -0
 929              		.cfi_startproc
 930              		@ args = 0, pretend = 0, frame = 8
 931              		@ frame_needed = 0, uses_anonymous_args = 0
 932              		.loc 1 113 1 is_stmt 0 view .LVU169
 933 0000 30B5     		push	{r4, r5, lr}
 934              	.LCFI36:
 935              		.cfi_def_cfa_offset 12
 936              		.cfi_offset 4, -12
 937              		.cfi_offset 5, -8
 938              		.cfi_offset 14, -4
ARM GAS  C:\Users\GKQ\AppData\Local\Temp\ccROqQZ7.s 			page 19


 939 0002 85B0     		sub	sp, sp, #20
 940              	.LCFI37:
 941              		.cfi_def_cfa_offset 32
 942 0004 0446     		mov	r4, r0
 943 0006 0D46     		mov	r5, r1
 114:u8g2_lib/u8g2_d_setup.c ****   uint8_t tile_buf_height;
 944              		.loc 1 114 3 is_stmt 1 view .LVU170
 115:u8g2_lib/u8g2_d_setup.c ****   uint8_t *buf;
 945              		.loc 1 115 3 view .LVU171
 116:u8g2_lib/u8g2_d_setup.c ****   u8g2_SetupDisplay(u8g2, u8x8_d_ssd1305_128x64_adafruit, u8x8_cad_001, byte_cb, gpio_and_delay_cb)
 946              		.loc 1 116 3 view .LVU172
 947 0008 0093     		str	r3, [sp]
 948 000a 1346     		mov	r3, r2
 949              	.LVL121:
 950              		.loc 1 116 3 is_stmt 0 view .LVU173
 951 000c 084A     		ldr	r2, .L51
 952              	.LVL122:
 953              		.loc 1 116 3 view .LVU174
 954 000e 0949     		ldr	r1, .L51+4
 955              	.LVL123:
 956              		.loc 1 116 3 view .LVU175
 957 0010 FFF7FEFF 		bl	u8x8_Setup
 958              	.LVL124:
 117:u8g2_lib/u8g2_d_setup.c ****   buf = u8g2_m_16_8_1(&tile_buf_height);
 959              		.loc 1 117 3 is_stmt 1 view .LVU176
 960              		.loc 1 117 9 is_stmt 0 view .LVU177
 961 0014 0DF10F00 		add	r0, sp, #15
 962 0018 FFF7FEFF 		bl	u8g2_m_16_8_1
 963              	.LVL125:
 964 001c 0146     		mov	r1, r0
 965              	.LVL126:
 118:u8g2_lib/u8g2_d_setup.c ****   u8g2_SetupBuffer(u8g2, buf, tile_buf_height, u8g2_ll_hvline_vertical_top_lsb, rotation);
 966              		.loc 1 118 3 is_stmt 1 view .LVU178
 967 001e 0095     		str	r5, [sp]
 968 0020 054B     		ldr	r3, .L51+8
 969 0022 9DF80F20 		ldrb	r2, [sp, #15]	@ zero_extendqisi2
 970 0026 2046     		mov	r0, r4
 971              	.LVL127:
 972              		.loc 1 118 3 is_stmt 0 view .LVU179
 973 0028 FFF7FEFF 		bl	u8g2_SetupBuffer
 974              	.LVL128:
 119:u8g2_lib/u8g2_d_setup.c **** }
 975              		.loc 1 119 1 view .LVU180
 976 002c 05B0     		add	sp, sp, #20
 977              	.LCFI38:
 978              		.cfi_def_cfa_offset 12
 979              		@ sp needed
 980 002e 30BD     		pop	{r4, r5, pc}
 981              	.LVL129:
 982              	.L52:
 983              		.loc 1 119 1 view .LVU181
 984              		.align	2
 985              	.L51:
 986 0030 00000000 		.word	u8x8_cad_001
 987 0034 00000000 		.word	u8x8_d_ssd1305_128x64_adafruit
 988 0038 00000000 		.word	u8g2_ll_hvline_vertical_top_lsb
 989              		.cfi_endproc
ARM GAS  C:\Users\GKQ\AppData\Local\Temp\ccROqQZ7.s 			page 20


 990              	.LFE12:
 992              		.section	.text.u8g2_Setup_ssd1305_128x64_adafruit_2,"ax",%progbits
 993              		.align	1
 994              		.global	u8g2_Setup_ssd1305_128x64_adafruit_2
 995              		.syntax unified
 996              		.thumb
 997              		.thumb_func
 998              		.fpu softvfp
 1000              	u8g2_Setup_ssd1305_128x64_adafruit_2:
 1001              	.LVL130:
 1002              	.LFB13:
 120:u8g2_lib/u8g2_d_setup.c **** /* ssd1305 2 */
 121:u8g2_lib/u8g2_d_setup.c **** void u8g2_Setup_ssd1305_128x64_adafruit_2(u8g2_t *u8g2, const u8g2_cb_t *rotation, u8x8_msg_cb byte
 122:u8g2_lib/u8g2_d_setup.c **** {
 1003              		.loc 1 122 1 is_stmt 1 view -0
 1004              		.cfi_startproc
 1005              		@ args = 0, pretend = 0, frame = 8
 1006              		@ frame_needed = 0, uses_anonymous_args = 0
 1007              		.loc 1 122 1 is_stmt 0 view .LVU183
 1008 0000 30B5     		push	{r4, r5, lr}
 1009              	.LCFI39:
 1010              		.cfi_def_cfa_offset 12
 1011              		.cfi_offset 4, -12
 1012              		.cfi_offset 5, -8
 1013              		.cfi_offset 14, -4
 1014 0002 85B0     		sub	sp, sp, #20
 1015              	.LCFI40:
 1016              		.cfi_def_cfa_offset 32
 1017 0004 0446     		mov	r4, r0
 1018 0006 0D46     		mov	r5, r1
 123:u8g2_lib/u8g2_d_setup.c ****   uint8_t tile_buf_height;
 1019              		.loc 1 123 3 is_stmt 1 view .LVU184
 124:u8g2_lib/u8g2_d_setup.c ****   uint8_t *buf;
 1020              		.loc 1 124 3 view .LVU185
 125:u8g2_lib/u8g2_d_setup.c ****   u8g2_SetupDisplay(u8g2, u8x8_d_ssd1305_128x64_adafruit, u8x8_cad_001, byte_cb, gpio_and_delay_cb)
 1021              		.loc 1 125 3 view .LVU186
 1022 0008 0093     		str	r3, [sp]
 1023 000a 1346     		mov	r3, r2
 1024              	.LVL131:
 1025              		.loc 1 125 3 is_stmt 0 view .LVU187
 1026 000c 084A     		ldr	r2, .L55
 1027              	.LVL132:
 1028              		.loc 1 125 3 view .LVU188
 1029 000e 0949     		ldr	r1, .L55+4
 1030              	.LVL133:
 1031              		.loc 1 125 3 view .LVU189
 1032 0010 FFF7FEFF 		bl	u8x8_Setup
 1033              	.LVL134:
 126:u8g2_lib/u8g2_d_setup.c ****   buf = u8g2_m_16_8_2(&tile_buf_height);
 1034              		.loc 1 126 3 is_stmt 1 view .LVU190
 1035              		.loc 1 126 9 is_stmt 0 view .LVU191
 1036 0014 0DF10F00 		add	r0, sp, #15
 1037 0018 FFF7FEFF 		bl	u8g2_m_16_8_2
 1038              	.LVL135:
 1039 001c 0146     		mov	r1, r0
 1040              	.LVL136:
 127:u8g2_lib/u8g2_d_setup.c ****   u8g2_SetupBuffer(u8g2, buf, tile_buf_height, u8g2_ll_hvline_vertical_top_lsb, rotation);
ARM GAS  C:\Users\GKQ\AppData\Local\Temp\ccROqQZ7.s 			page 21


 1041              		.loc 1 127 3 is_stmt 1 view .LVU192
 1042 001e 0095     		str	r5, [sp]
 1043 0020 054B     		ldr	r3, .L55+8
 1044 0022 9DF80F20 		ldrb	r2, [sp, #15]	@ zero_extendqisi2
 1045 0026 2046     		mov	r0, r4
 1046              	.LVL137:
 1047              		.loc 1 127 3 is_stmt 0 view .LVU193
 1048 0028 FFF7FEFF 		bl	u8g2_SetupBuffer
 1049              	.LVL138:
 128:u8g2_lib/u8g2_d_setup.c **** }
 1050              		.loc 1 128 1 view .LVU194
 1051 002c 05B0     		add	sp, sp, #20
 1052              	.LCFI41:
 1053              		.cfi_def_cfa_offset 12
 1054              		@ sp needed
 1055 002e 30BD     		pop	{r4, r5, pc}
 1056              	.LVL139:
 1057              	.L56:
 1058              		.loc 1 128 1 view .LVU195
 1059              		.align	2
 1060              	.L55:
 1061 0030 00000000 		.word	u8x8_cad_001
 1062 0034 00000000 		.word	u8x8_d_ssd1305_128x64_adafruit
 1063 0038 00000000 		.word	u8g2_ll_hvline_vertical_top_lsb
 1064              		.cfi_endproc
 1065              	.LFE13:
 1067              		.section	.text.u8g2_Setup_ssd1305_128x64_adafruit_f,"ax",%progbits
 1068              		.align	1
 1069              		.global	u8g2_Setup_ssd1305_128x64_adafruit_f
 1070              		.syntax unified
 1071              		.thumb
 1072              		.thumb_func
 1073              		.fpu softvfp
 1075              	u8g2_Setup_ssd1305_128x64_adafruit_f:
 1076              	.LVL140:
 1077              	.LFB14:
 129:u8g2_lib/u8g2_d_setup.c **** /* ssd1305 f */
 130:u8g2_lib/u8g2_d_setup.c **** void u8g2_Setup_ssd1305_128x64_adafruit_f(u8g2_t *u8g2, const u8g2_cb_t *rotation, u8x8_msg_cb byte
 131:u8g2_lib/u8g2_d_setup.c **** {
 1078              		.loc 1 131 1 is_stmt 1 view -0
 1079              		.cfi_startproc
 1080              		@ args = 0, pretend = 0, frame = 8
 1081              		@ frame_needed = 0, uses_anonymous_args = 0
 1082              		.loc 1 131 1 is_stmt 0 view .LVU197
 1083 0000 30B5     		push	{r4, r5, lr}
 1084              	.LCFI42:
 1085              		.cfi_def_cfa_offset 12
 1086              		.cfi_offset 4, -12
 1087              		.cfi_offset 5, -8
 1088              		.cfi_offset 14, -4
 1089 0002 85B0     		sub	sp, sp, #20
 1090              	.LCFI43:
 1091              		.cfi_def_cfa_offset 32
 1092 0004 0446     		mov	r4, r0
 1093 0006 0D46     		mov	r5, r1
 132:u8g2_lib/u8g2_d_setup.c ****   uint8_t tile_buf_height;
 1094              		.loc 1 132 3 is_stmt 1 view .LVU198
ARM GAS  C:\Users\GKQ\AppData\Local\Temp\ccROqQZ7.s 			page 22


 133:u8g2_lib/u8g2_d_setup.c ****   uint8_t *buf;
 1095              		.loc 1 133 3 view .LVU199
 134:u8g2_lib/u8g2_d_setup.c ****   u8g2_SetupDisplay(u8g2, u8x8_d_ssd1305_128x64_adafruit, u8x8_cad_001, byte_cb, gpio_and_delay_cb)
 1096              		.loc 1 134 3 view .LVU200
 1097 0008 0093     		str	r3, [sp]
 1098 000a 1346     		mov	r3, r2
 1099              	.LVL141:
 1100              		.loc 1 134 3 is_stmt 0 view .LVU201
 1101 000c 084A     		ldr	r2, .L59
 1102              	.LVL142:
 1103              		.loc 1 134 3 view .LVU202
 1104 000e 0949     		ldr	r1, .L59+4
 1105              	.LVL143:
 1106              		.loc 1 134 3 view .LVU203
 1107 0010 FFF7FEFF 		bl	u8x8_Setup
 1108              	.LVL144:
 135:u8g2_lib/u8g2_d_setup.c ****   buf = u8g2_m_16_8_f(&tile_buf_height);
 1109              		.loc 1 135 3 is_stmt 1 view .LVU204
 1110              		.loc 1 135 9 is_stmt 0 view .LVU205
 1111 0014 0DF10F00 		add	r0, sp, #15
 1112 0018 FFF7FEFF 		bl	u8g2_m_16_8_f
 1113              	.LVL145:
 1114 001c 0146     		mov	r1, r0
 1115              	.LVL146:
 136:u8g2_lib/u8g2_d_setup.c ****   u8g2_SetupBuffer(u8g2, buf, tile_buf_height, u8g2_ll_hvline_vertical_top_lsb, rotation);
 1116              		.loc 1 136 3 is_stmt 1 view .LVU206
 1117 001e 0095     		str	r5, [sp]
 1118 0020 054B     		ldr	r3, .L59+8
 1119 0022 9DF80F20 		ldrb	r2, [sp, #15]	@ zero_extendqisi2
 1120 0026 2046     		mov	r0, r4
 1121              	.LVL147:
 1122              		.loc 1 136 3 is_stmt 0 view .LVU207
 1123 0028 FFF7FEFF 		bl	u8g2_SetupBuffer
 1124              	.LVL148:
 137:u8g2_lib/u8g2_d_setup.c **** }
 1125              		.loc 1 137 1 view .LVU208
 1126 002c 05B0     		add	sp, sp, #20
 1127              	.LCFI44:
 1128              		.cfi_def_cfa_offset 12
 1129              		@ sp needed
 1130 002e 30BD     		pop	{r4, r5, pc}
 1131              	.LVL149:
 1132              	.L60:
 1133              		.loc 1 137 1 view .LVU209
 1134              		.align	2
 1135              	.L59:
 1136 0030 00000000 		.word	u8x8_cad_001
 1137 0034 00000000 		.word	u8x8_d_ssd1305_128x64_adafruit
 1138 0038 00000000 		.word	u8g2_ll_hvline_vertical_top_lsb
 1139              		.cfi_endproc
 1140              	.LFE14:
 1142              		.section	.text.u8g2_Setup_ssd1305_i2c_128x64_adafruit_1,"ax",%progbits
 1143              		.align	1
 1144              		.global	u8g2_Setup_ssd1305_i2c_128x64_adafruit_1
 1145              		.syntax unified
 1146              		.thumb
 1147              		.thumb_func
ARM GAS  C:\Users\GKQ\AppData\Local\Temp\ccROqQZ7.s 			page 23


 1148              		.fpu softvfp
 1150              	u8g2_Setup_ssd1305_i2c_128x64_adafruit_1:
 1151              	.LVL150:
 1152              	.LFB15:
 138:u8g2_lib/u8g2_d_setup.c **** /* ssd1305 */
 139:u8g2_lib/u8g2_d_setup.c **** /* ssd1305 1 */
 140:u8g2_lib/u8g2_d_setup.c **** void u8g2_Setup_ssd1305_i2c_128x64_adafruit_1(u8g2_t *u8g2, const u8g2_cb_t *rotation, u8x8_msg_cb 
 141:u8g2_lib/u8g2_d_setup.c **** {
 1153              		.loc 1 141 1 is_stmt 1 view -0
 1154              		.cfi_startproc
 1155              		@ args = 0, pretend = 0, frame = 8
 1156              		@ frame_needed = 0, uses_anonymous_args = 0
 1157              		.loc 1 141 1 is_stmt 0 view .LVU211
 1158 0000 30B5     		push	{r4, r5, lr}
 1159              	.LCFI45:
 1160              		.cfi_def_cfa_offset 12
 1161              		.cfi_offset 4, -12
 1162              		.cfi_offset 5, -8
 1163              		.cfi_offset 14, -4
 1164 0002 85B0     		sub	sp, sp, #20
 1165              	.LCFI46:
 1166              		.cfi_def_cfa_offset 32
 1167 0004 0446     		mov	r4, r0
 1168 0006 0D46     		mov	r5, r1
 142:u8g2_lib/u8g2_d_setup.c ****   uint8_t tile_buf_height;
 1169              		.loc 1 142 3 is_stmt 1 view .LVU212
 143:u8g2_lib/u8g2_d_setup.c ****   uint8_t *buf;
 1170              		.loc 1 143 3 view .LVU213
 144:u8g2_lib/u8g2_d_setup.c ****   u8g2_SetupDisplay(u8g2, u8x8_d_ssd1305_128x64_adafruit, u8x8_cad_ssd13xx_i2c, byte_cb, gpio_and_d
 1171              		.loc 1 144 3 view .LVU214
 1172 0008 0093     		str	r3, [sp]
 1173 000a 1346     		mov	r3, r2
 1174              	.LVL151:
 1175              		.loc 1 144 3 is_stmt 0 view .LVU215
 1176 000c 084A     		ldr	r2, .L63
 1177              	.LVL152:
 1178              		.loc 1 144 3 view .LVU216
 1179 000e 0949     		ldr	r1, .L63+4
 1180              	.LVL153:
 1181              		.loc 1 144 3 view .LVU217
 1182 0010 FFF7FEFF 		bl	u8x8_Setup
 1183              	.LVL154:
 145:u8g2_lib/u8g2_d_setup.c ****   buf = u8g2_m_16_8_1(&tile_buf_height);
 1184              		.loc 1 145 3 is_stmt 1 view .LVU218
 1185              		.loc 1 145 9 is_stmt 0 view .LVU219
 1186 0014 0DF10F00 		add	r0, sp, #15
 1187 0018 FFF7FEFF 		bl	u8g2_m_16_8_1
 1188              	.LVL155:
 1189 001c 0146     		mov	r1, r0
 1190              	.LVL156:
 146:u8g2_lib/u8g2_d_setup.c ****   u8g2_SetupBuffer(u8g2, buf, tile_buf_height, u8g2_ll_hvline_vertical_top_lsb, rotation);
 1191              		.loc 1 146 3 is_stmt 1 view .LVU220
 1192 001e 0095     		str	r5, [sp]
 1193 0020 054B     		ldr	r3, .L63+8
 1194 0022 9DF80F20 		ldrb	r2, [sp, #15]	@ zero_extendqisi2
 1195 0026 2046     		mov	r0, r4
 1196              	.LVL157:
ARM GAS  C:\Users\GKQ\AppData\Local\Temp\ccROqQZ7.s 			page 24


 1197              		.loc 1 146 3 is_stmt 0 view .LVU221
 1198 0028 FFF7FEFF 		bl	u8g2_SetupBuffer
 1199              	.LVL158:
 147:u8g2_lib/u8g2_d_setup.c **** }
 1200              		.loc 1 147 1 view .LVU222
 1201 002c 05B0     		add	sp, sp, #20
 1202              	.LCFI47:
 1203              		.cfi_def_cfa_offset 12
 1204              		@ sp needed
 1205 002e 30BD     		pop	{r4, r5, pc}
 1206              	.LVL159:
 1207              	.L64:
 1208              		.loc 1 147 1 view .LVU223
 1209              		.align	2
 1210              	.L63:
 1211 0030 00000000 		.word	u8x8_cad_ssd13xx_i2c
 1212 0034 00000000 		.word	u8x8_d_ssd1305_128x64_adafruit
 1213 0038 00000000 		.word	u8g2_ll_hvline_vertical_top_lsb
 1214              		.cfi_endproc
 1215              	.LFE15:
 1217              		.section	.text.u8g2_Setup_ssd1305_i2c_128x64_adafruit_2,"ax",%progbits
 1218              		.align	1
 1219              		.global	u8g2_Setup_ssd1305_i2c_128x64_adafruit_2
 1220              		.syntax unified
 1221              		.thumb
 1222              		.thumb_func
 1223              		.fpu softvfp
 1225              	u8g2_Setup_ssd1305_i2c_128x64_adafruit_2:
 1226              	.LVL160:
 1227              	.LFB16:
 148:u8g2_lib/u8g2_d_setup.c **** /* ssd1305 2 */
 149:u8g2_lib/u8g2_d_setup.c **** void u8g2_Setup_ssd1305_i2c_128x64_adafruit_2(u8g2_t *u8g2, const u8g2_cb_t *rotation, u8x8_msg_cb 
 150:u8g2_lib/u8g2_d_setup.c **** {
 1228              		.loc 1 150 1 is_stmt 1 view -0
 1229              		.cfi_startproc
 1230              		@ args = 0, pretend = 0, frame = 8
 1231              		@ frame_needed = 0, uses_anonymous_args = 0
 1232              		.loc 1 150 1 is_stmt 0 view .LVU225
 1233 0000 30B5     		push	{r4, r5, lr}
 1234              	.LCFI48:
 1235              		.cfi_def_cfa_offset 12
 1236              		.cfi_offset 4, -12
 1237              		.cfi_offset 5, -8
 1238              		.cfi_offset 14, -4
 1239 0002 85B0     		sub	sp, sp, #20
 1240              	.LCFI49:
 1241              		.cfi_def_cfa_offset 32
 1242 0004 0446     		mov	r4, r0
 1243 0006 0D46     		mov	r5, r1
 151:u8g2_lib/u8g2_d_setup.c ****   uint8_t tile_buf_height;
 1244              		.loc 1 151 3 is_stmt 1 view .LVU226
 152:u8g2_lib/u8g2_d_setup.c ****   uint8_t *buf;
 1245              		.loc 1 152 3 view .LVU227
 153:u8g2_lib/u8g2_d_setup.c ****   u8g2_SetupDisplay(u8g2, u8x8_d_ssd1305_128x64_adafruit, u8x8_cad_ssd13xx_i2c, byte_cb, gpio_and_d
 1246              		.loc 1 153 3 view .LVU228
 1247 0008 0093     		str	r3, [sp]
 1248 000a 1346     		mov	r3, r2
ARM GAS  C:\Users\GKQ\AppData\Local\Temp\ccROqQZ7.s 			page 25


 1249              	.LVL161:
 1250              		.loc 1 153 3 is_stmt 0 view .LVU229
 1251 000c 084A     		ldr	r2, .L67
 1252              	.LVL162:
 1253              		.loc 1 153 3 view .LVU230
 1254 000e 0949     		ldr	r1, .L67+4
 1255              	.LVL163:
 1256              		.loc 1 153 3 view .LVU231
 1257 0010 FFF7FEFF 		bl	u8x8_Setup
 1258              	.LVL164:
 154:u8g2_lib/u8g2_d_setup.c ****   buf = u8g2_m_16_8_2(&tile_buf_height);
 1259              		.loc 1 154 3 is_stmt 1 view .LVU232
 1260              		.loc 1 154 9 is_stmt 0 view .LVU233
 1261 0014 0DF10F00 		add	r0, sp, #15
 1262 0018 FFF7FEFF 		bl	u8g2_m_16_8_2
 1263              	.LVL165:
 1264 001c 0146     		mov	r1, r0
 1265              	.LVL166:
 155:u8g2_lib/u8g2_d_setup.c ****   u8g2_SetupBuffer(u8g2, buf, tile_buf_height, u8g2_ll_hvline_vertical_top_lsb, rotation);
 1266              		.loc 1 155 3 is_stmt 1 view .LVU234
 1267 001e 0095     		str	r5, [sp]
 1268 0020 054B     		ldr	r3, .L67+8
 1269 0022 9DF80F20 		ldrb	r2, [sp, #15]	@ zero_extendqisi2
 1270 0026 2046     		mov	r0, r4
 1271              	.LVL167:
 1272              		.loc 1 155 3 is_stmt 0 view .LVU235
 1273 0028 FFF7FEFF 		bl	u8g2_SetupBuffer
 1274              	.LVL168:
 156:u8g2_lib/u8g2_d_setup.c **** }
 1275              		.loc 1 156 1 view .LVU236
 1276 002c 05B0     		add	sp, sp, #20
 1277              	.LCFI50:
 1278              		.cfi_def_cfa_offset 12
 1279              		@ sp needed
 1280 002e 30BD     		pop	{r4, r5, pc}
 1281              	.LVL169:
 1282              	.L68:
 1283              		.loc 1 156 1 view .LVU237
 1284              		.align	2
 1285              	.L67:
 1286 0030 00000000 		.word	u8x8_cad_ssd13xx_i2c
 1287 0034 00000000 		.word	u8x8_d_ssd1305_128x64_adafruit
 1288 0038 00000000 		.word	u8g2_ll_hvline_vertical_top_lsb
 1289              		.cfi_endproc
 1290              	.LFE16:
 1292              		.section	.text.u8g2_Setup_ssd1305_i2c_128x64_adafruit_f,"ax",%progbits
 1293              		.align	1
 1294              		.global	u8g2_Setup_ssd1305_i2c_128x64_adafruit_f
 1295              		.syntax unified
 1296              		.thumb
 1297              		.thumb_func
 1298              		.fpu softvfp
 1300              	u8g2_Setup_ssd1305_i2c_128x64_adafruit_f:
 1301              	.LVL170:
 1302              	.LFB17:
 157:u8g2_lib/u8g2_d_setup.c **** /* ssd1305 f */
 158:u8g2_lib/u8g2_d_setup.c **** void u8g2_Setup_ssd1305_i2c_128x64_adafruit_f(u8g2_t *u8g2, const u8g2_cb_t *rotation, u8x8_msg_cb 
ARM GAS  C:\Users\GKQ\AppData\Local\Temp\ccROqQZ7.s 			page 26


 159:u8g2_lib/u8g2_d_setup.c **** {
 1303              		.loc 1 159 1 is_stmt 1 view -0
 1304              		.cfi_startproc
 1305              		@ args = 0, pretend = 0, frame = 8
 1306              		@ frame_needed = 0, uses_anonymous_args = 0
 1307              		.loc 1 159 1 is_stmt 0 view .LVU239
 1308 0000 30B5     		push	{r4, r5, lr}
 1309              	.LCFI51:
 1310              		.cfi_def_cfa_offset 12
 1311              		.cfi_offset 4, -12
 1312              		.cfi_offset 5, -8
 1313              		.cfi_offset 14, -4
 1314 0002 85B0     		sub	sp, sp, #20
 1315              	.LCFI52:
 1316              		.cfi_def_cfa_offset 32
 1317 0004 0446     		mov	r4, r0
 1318 0006 0D46     		mov	r5, r1
 160:u8g2_lib/u8g2_d_setup.c ****   uint8_t tile_buf_height;
 1319              		.loc 1 160 3 is_stmt 1 view .LVU240
 161:u8g2_lib/u8g2_d_setup.c ****   uint8_t *buf;
 1320              		.loc 1 161 3 view .LVU241
 162:u8g2_lib/u8g2_d_setup.c ****   u8g2_SetupDisplay(u8g2, u8x8_d_ssd1305_128x64_adafruit, u8x8_cad_ssd13xx_i2c, byte_cb, gpio_and_d
 1321              		.loc 1 162 3 view .LVU242
 1322 0008 0093     		str	r3, [sp]
 1323 000a 1346     		mov	r3, r2
 1324              	.LVL171:
 1325              		.loc 1 162 3 is_stmt 0 view .LVU243
 1326 000c 084A     		ldr	r2, .L71
 1327              	.LVL172:
 1328              		.loc 1 162 3 view .LVU244
 1329 000e 0949     		ldr	r1, .L71+4
 1330              	.LVL173:
 1331              		.loc 1 162 3 view .LVU245
 1332 0010 FFF7FEFF 		bl	u8x8_Setup
 1333              	.LVL174:
 163:u8g2_lib/u8g2_d_setup.c ****   buf = u8g2_m_16_8_f(&tile_buf_height);
 1334              		.loc 1 163 3 is_stmt 1 view .LVU246
 1335              		.loc 1 163 9 is_stmt 0 view .LVU247
 1336 0014 0DF10F00 		add	r0, sp, #15
 1337 0018 FFF7FEFF 		bl	u8g2_m_16_8_f
 1338              	.LVL175:
 1339 001c 0146     		mov	r1, r0
 1340              	.LVL176:
 164:u8g2_lib/u8g2_d_setup.c ****   u8g2_SetupBuffer(u8g2, buf, tile_buf_height, u8g2_ll_hvline_vertical_top_lsb, rotation);
 1341              		.loc 1 164 3 is_stmt 1 view .LVU248
 1342 001e 0095     		str	r5, [sp]
 1343 0020 054B     		ldr	r3, .L71+8
 1344 0022 9DF80F20 		ldrb	r2, [sp, #15]	@ zero_extendqisi2
 1345 0026 2046     		mov	r0, r4
 1346              	.LVL177:
 1347              		.loc 1 164 3 is_stmt 0 view .LVU249
 1348 0028 FFF7FEFF 		bl	u8g2_SetupBuffer
 1349              	.LVL178:
 165:u8g2_lib/u8g2_d_setup.c **** }
 1350              		.loc 1 165 1 view .LVU250
 1351 002c 05B0     		add	sp, sp, #20
 1352              	.LCFI53:
ARM GAS  C:\Users\GKQ\AppData\Local\Temp\ccROqQZ7.s 			page 27


 1353              		.cfi_def_cfa_offset 12
 1354              		@ sp needed
 1355 002e 30BD     		pop	{r4, r5, pc}
 1356              	.LVL179:
 1357              	.L72:
 1358              		.loc 1 165 1 view .LVU251
 1359              		.align	2
 1360              	.L71:
 1361 0030 00000000 		.word	u8x8_cad_ssd13xx_i2c
 1362 0034 00000000 		.word	u8x8_d_ssd1305_128x64_adafruit
 1363 0038 00000000 		.word	u8g2_ll_hvline_vertical_top_lsb
 1364              		.cfi_endproc
 1365              	.LFE17:
 1367              		.section	.text.u8g2_Setup_ssd1306_128x64_noname_1,"ax",%progbits
 1368              		.align	1
 1369              		.global	u8g2_Setup_ssd1306_128x64_noname_1
 1370              		.syntax unified
 1371              		.thumb
 1372              		.thumb_func
 1373              		.fpu softvfp
 1375              	u8g2_Setup_ssd1306_128x64_noname_1:
 1376              	.LVL180:
 1377              	.LFB18:
 166:u8g2_lib/u8g2_d_setup.c **** /* ssd1306 */
 167:u8g2_lib/u8g2_d_setup.c **** /* ssd1306 1 */
 168:u8g2_lib/u8g2_d_setup.c **** void u8g2_Setup_ssd1306_128x64_noname_1(u8g2_t *u8g2, const u8g2_cb_t *rotation, u8x8_msg_cb byte_c
 169:u8g2_lib/u8g2_d_setup.c **** {
 1378              		.loc 1 169 1 is_stmt 1 view -0
 1379              		.cfi_startproc
 1380              		@ args = 0, pretend = 0, frame = 8
 1381              		@ frame_needed = 0, uses_anonymous_args = 0
 1382              		.loc 1 169 1 is_stmt 0 view .LVU253
 1383 0000 30B5     		push	{r4, r5, lr}
 1384              	.LCFI54:
 1385              		.cfi_def_cfa_offset 12
 1386              		.cfi_offset 4, -12
 1387              		.cfi_offset 5, -8
 1388              		.cfi_offset 14, -4
 1389 0002 85B0     		sub	sp, sp, #20
 1390              	.LCFI55:
 1391              		.cfi_def_cfa_offset 32
 1392 0004 0446     		mov	r4, r0
 1393 0006 0D46     		mov	r5, r1
 170:u8g2_lib/u8g2_d_setup.c ****   uint8_t tile_buf_height;
 1394              		.loc 1 170 3 is_stmt 1 view .LVU254
 171:u8g2_lib/u8g2_d_setup.c ****   uint8_t *buf;
 1395              		.loc 1 171 3 view .LVU255
 172:u8g2_lib/u8g2_d_setup.c ****   u8g2_SetupDisplay(u8g2, u8x8_d_ssd1306_128x64_noname, u8x8_cad_001, byte_cb, gpio_and_delay_cb);
 1396              		.loc 1 172 3 view .LVU256
 1397 0008 0093     		str	r3, [sp]
 1398 000a 1346     		mov	r3, r2
 1399              	.LVL181:
 1400              		.loc 1 172 3 is_stmt 0 view .LVU257
 1401 000c 084A     		ldr	r2, .L75
 1402              	.LVL182:
 1403              		.loc 1 172 3 view .LVU258
 1404 000e 0949     		ldr	r1, .L75+4
ARM GAS  C:\Users\GKQ\AppData\Local\Temp\ccROqQZ7.s 			page 28


 1405              	.LVL183:
 1406              		.loc 1 172 3 view .LVU259
 1407 0010 FFF7FEFF 		bl	u8x8_Setup
 1408              	.LVL184:
 173:u8g2_lib/u8g2_d_setup.c ****   buf = u8g2_m_16_8_1(&tile_buf_height);
 1409              		.loc 1 173 3 is_stmt 1 view .LVU260
 1410              		.loc 1 173 9 is_stmt 0 view .LVU261
 1411 0014 0DF10F00 		add	r0, sp, #15
 1412 0018 FFF7FEFF 		bl	u8g2_m_16_8_1
 1413              	.LVL185:
 1414 001c 0146     		mov	r1, r0
 1415              	.LVL186:
 174:u8g2_lib/u8g2_d_setup.c ****   u8g2_SetupBuffer(u8g2, buf, tile_buf_height, u8g2_ll_hvline_vertical_top_lsb, rotation);
 1416              		.loc 1 174 3 is_stmt 1 view .LVU262
 1417 001e 0095     		str	r5, [sp]
 1418 0020 054B     		ldr	r3, .L75+8
 1419 0022 9DF80F20 		ldrb	r2, [sp, #15]	@ zero_extendqisi2
 1420 0026 2046     		mov	r0, r4
 1421              	.LVL187:
 1422              		.loc 1 174 3 is_stmt 0 view .LVU263
 1423 0028 FFF7FEFF 		bl	u8g2_SetupBuffer
 1424              	.LVL188:
 175:u8g2_lib/u8g2_d_setup.c **** }
 1425              		.loc 1 175 1 view .LVU264
 1426 002c 05B0     		add	sp, sp, #20
 1427              	.LCFI56:
 1428              		.cfi_def_cfa_offset 12
 1429              		@ sp needed
 1430 002e 30BD     		pop	{r4, r5, pc}
 1431              	.LVL189:
 1432              	.L76:
 1433              		.loc 1 175 1 view .LVU265
 1434              		.align	2
 1435              	.L75:
 1436 0030 00000000 		.word	u8x8_cad_001
 1437 0034 00000000 		.word	u8x8_d_ssd1306_128x64_noname
 1438 0038 00000000 		.word	u8g2_ll_hvline_vertical_top_lsb
 1439              		.cfi_endproc
 1440              	.LFE18:
 1442              		.section	.text.u8g2_Setup_ssd1306_128x64_vcomh0_1,"ax",%progbits
 1443              		.align	1
 1444              		.global	u8g2_Setup_ssd1306_128x64_vcomh0_1
 1445              		.syntax unified
 1446              		.thumb
 1447              		.thumb_func
 1448              		.fpu softvfp
 1450              	u8g2_Setup_ssd1306_128x64_vcomh0_1:
 1451              	.LVL190:
 1452              	.LFB19:
 176:u8g2_lib/u8g2_d_setup.c **** void u8g2_Setup_ssd1306_128x64_vcomh0_1(u8g2_t *u8g2, const u8g2_cb_t *rotation, u8x8_msg_cb byte_c
 177:u8g2_lib/u8g2_d_setup.c **** {
 1453              		.loc 1 177 1 is_stmt 1 view -0
 1454              		.cfi_startproc
 1455              		@ args = 0, pretend = 0, frame = 8
 1456              		@ frame_needed = 0, uses_anonymous_args = 0
 1457              		.loc 1 177 1 is_stmt 0 view .LVU267
 1458 0000 30B5     		push	{r4, r5, lr}
ARM GAS  C:\Users\GKQ\AppData\Local\Temp\ccROqQZ7.s 			page 29


 1459              	.LCFI57:
 1460              		.cfi_def_cfa_offset 12
 1461              		.cfi_offset 4, -12
 1462              		.cfi_offset 5, -8
 1463              		.cfi_offset 14, -4
 1464 0002 85B0     		sub	sp, sp, #20
 1465              	.LCFI58:
 1466              		.cfi_def_cfa_offset 32
 1467 0004 0446     		mov	r4, r0
 1468 0006 0D46     		mov	r5, r1
 178:u8g2_lib/u8g2_d_setup.c ****   uint8_t tile_buf_height;
 1469              		.loc 1 178 3 is_stmt 1 view .LVU268
 179:u8g2_lib/u8g2_d_setup.c ****   uint8_t *buf;
 1470              		.loc 1 179 3 view .LVU269
 180:u8g2_lib/u8g2_d_setup.c ****   u8g2_SetupDisplay(u8g2, u8x8_d_ssd1306_128x64_vcomh0, u8x8_cad_001, byte_cb, gpio_and_delay_cb);
 1471              		.loc 1 180 3 view .LVU270
 1472 0008 0093     		str	r3, [sp]
 1473 000a 1346     		mov	r3, r2
 1474              	.LVL191:
 1475              		.loc 1 180 3 is_stmt 0 view .LVU271
 1476 000c 084A     		ldr	r2, .L79
 1477              	.LVL192:
 1478              		.loc 1 180 3 view .LVU272
 1479 000e 0949     		ldr	r1, .L79+4
 1480              	.LVL193:
 1481              		.loc 1 180 3 view .LVU273
 1482 0010 FFF7FEFF 		bl	u8x8_Setup
 1483              	.LVL194:
 181:u8g2_lib/u8g2_d_setup.c ****   buf = u8g2_m_16_8_1(&tile_buf_height);
 1484              		.loc 1 181 3 is_stmt 1 view .LVU274
 1485              		.loc 1 181 9 is_stmt 0 view .LVU275
 1486 0014 0DF10F00 		add	r0, sp, #15
 1487 0018 FFF7FEFF 		bl	u8g2_m_16_8_1
 1488              	.LVL195:
 1489 001c 0146     		mov	r1, r0
 1490              	.LVL196:
 182:u8g2_lib/u8g2_d_setup.c ****   u8g2_SetupBuffer(u8g2, buf, tile_buf_height, u8g2_ll_hvline_vertical_top_lsb, rotation);
 1491              		.loc 1 182 3 is_stmt 1 view .LVU276
 1492 001e 0095     		str	r5, [sp]
 1493 0020 054B     		ldr	r3, .L79+8
 1494 0022 9DF80F20 		ldrb	r2, [sp, #15]	@ zero_extendqisi2
 1495 0026 2046     		mov	r0, r4
 1496              	.LVL197:
 1497              		.loc 1 182 3 is_stmt 0 view .LVU277
 1498 0028 FFF7FEFF 		bl	u8g2_SetupBuffer
 1499              	.LVL198:
 183:u8g2_lib/u8g2_d_setup.c **** }
 1500              		.loc 1 183 1 view .LVU278
 1501 002c 05B0     		add	sp, sp, #20
 1502              	.LCFI59:
 1503              		.cfi_def_cfa_offset 12
 1504              		@ sp needed
 1505 002e 30BD     		pop	{r4, r5, pc}
 1506              	.LVL199:
 1507              	.L80:
 1508              		.loc 1 183 1 view .LVU279
 1509              		.align	2
ARM GAS  C:\Users\GKQ\AppData\Local\Temp\ccROqQZ7.s 			page 30


 1510              	.L79:
 1511 0030 00000000 		.word	u8x8_cad_001
 1512 0034 00000000 		.word	u8x8_d_ssd1306_128x64_vcomh0
 1513 0038 00000000 		.word	u8g2_ll_hvline_vertical_top_lsb
 1514              		.cfi_endproc
 1515              	.LFE19:
 1517              		.section	.text.u8g2_Setup_ssd1306_128x64_alt0_1,"ax",%progbits
 1518              		.align	1
 1519              		.global	u8g2_Setup_ssd1306_128x64_alt0_1
 1520              		.syntax unified
 1521              		.thumb
 1522              		.thumb_func
 1523              		.fpu softvfp
 1525              	u8g2_Setup_ssd1306_128x64_alt0_1:
 1526              	.LVL200:
 1527              	.LFB20:
 184:u8g2_lib/u8g2_d_setup.c **** void u8g2_Setup_ssd1306_128x64_alt0_1(u8g2_t *u8g2, const u8g2_cb_t *rotation, u8x8_msg_cb byte_cb,
 185:u8g2_lib/u8g2_d_setup.c **** {
 1528              		.loc 1 185 1 is_stmt 1 view -0
 1529              		.cfi_startproc
 1530              		@ args = 0, pretend = 0, frame = 8
 1531              		@ frame_needed = 0, uses_anonymous_args = 0
 1532              		.loc 1 185 1 is_stmt 0 view .LVU281
 1533 0000 30B5     		push	{r4, r5, lr}
 1534              	.LCFI60:
 1535              		.cfi_def_cfa_offset 12
 1536              		.cfi_offset 4, -12
 1537              		.cfi_offset 5, -8
 1538              		.cfi_offset 14, -4
 1539 0002 85B0     		sub	sp, sp, #20
 1540              	.LCFI61:
 1541              		.cfi_def_cfa_offset 32
 1542 0004 0446     		mov	r4, r0
 1543 0006 0D46     		mov	r5, r1
 186:u8g2_lib/u8g2_d_setup.c ****   uint8_t tile_buf_height;
 1544              		.loc 1 186 3 is_stmt 1 view .LVU282
 187:u8g2_lib/u8g2_d_setup.c ****   uint8_t *buf;
 1545              		.loc 1 187 3 view .LVU283
 188:u8g2_lib/u8g2_d_setup.c ****   u8g2_SetupDisplay(u8g2, u8x8_d_ssd1306_128x64_alt0, u8x8_cad_001, byte_cb, gpio_and_delay_cb);
 1546              		.loc 1 188 3 view .LVU284
 1547 0008 0093     		str	r3, [sp]
 1548 000a 1346     		mov	r3, r2
 1549              	.LVL201:
 1550              		.loc 1 188 3 is_stmt 0 view .LVU285
 1551 000c 084A     		ldr	r2, .L83
 1552              	.LVL202:
 1553              		.loc 1 188 3 view .LVU286
 1554 000e 0949     		ldr	r1, .L83+4
 1555              	.LVL203:
 1556              		.loc 1 188 3 view .LVU287
 1557 0010 FFF7FEFF 		bl	u8x8_Setup
 1558              	.LVL204:
 189:u8g2_lib/u8g2_d_setup.c ****   buf = u8g2_m_16_8_1(&tile_buf_height);
 1559              		.loc 1 189 3 is_stmt 1 view .LVU288
 1560              		.loc 1 189 9 is_stmt 0 view .LVU289
 1561 0014 0DF10F00 		add	r0, sp, #15
 1562 0018 FFF7FEFF 		bl	u8g2_m_16_8_1
ARM GAS  C:\Users\GKQ\AppData\Local\Temp\ccROqQZ7.s 			page 31


 1563              	.LVL205:
 1564 001c 0146     		mov	r1, r0
 1565              	.LVL206:
 190:u8g2_lib/u8g2_d_setup.c ****   u8g2_SetupBuffer(u8g2, buf, tile_buf_height, u8g2_ll_hvline_vertical_top_lsb, rotation);
 1566              		.loc 1 190 3 is_stmt 1 view .LVU290
 1567 001e 0095     		str	r5, [sp]
 1568 0020 054B     		ldr	r3, .L83+8
 1569 0022 9DF80F20 		ldrb	r2, [sp, #15]	@ zero_extendqisi2
 1570 0026 2046     		mov	r0, r4
 1571              	.LVL207:
 1572              		.loc 1 190 3 is_stmt 0 view .LVU291
 1573 0028 FFF7FEFF 		bl	u8g2_SetupBuffer
 1574              	.LVL208:
 191:u8g2_lib/u8g2_d_setup.c **** }
 1575              		.loc 1 191 1 view .LVU292
 1576 002c 05B0     		add	sp, sp, #20
 1577              	.LCFI62:
 1578              		.cfi_def_cfa_offset 12
 1579              		@ sp needed
 1580 002e 30BD     		pop	{r4, r5, pc}
 1581              	.LVL209:
 1582              	.L84:
 1583              		.loc 1 191 1 view .LVU293
 1584              		.align	2
 1585              	.L83:
 1586 0030 00000000 		.word	u8x8_cad_001
 1587 0034 00000000 		.word	u8x8_d_ssd1306_128x64_alt0
 1588 0038 00000000 		.word	u8g2_ll_hvline_vertical_top_lsb
 1589              		.cfi_endproc
 1590              	.LFE20:
 1592              		.section	.text.u8g2_Setup_ssd1306_128x64_noname_2,"ax",%progbits
 1593              		.align	1
 1594              		.global	u8g2_Setup_ssd1306_128x64_noname_2
 1595              		.syntax unified
 1596              		.thumb
 1597              		.thumb_func
 1598              		.fpu softvfp
 1600              	u8g2_Setup_ssd1306_128x64_noname_2:
 1601              	.LVL210:
 1602              	.LFB21:
 192:u8g2_lib/u8g2_d_setup.c **** /* ssd1306 2 */
 193:u8g2_lib/u8g2_d_setup.c **** void u8g2_Setup_ssd1306_128x64_noname_2(u8g2_t *u8g2, const u8g2_cb_t *rotation, u8x8_msg_cb byte_c
 194:u8g2_lib/u8g2_d_setup.c **** {
 1603              		.loc 1 194 1 is_stmt 1 view -0
 1604              		.cfi_startproc
 1605              		@ args = 0, pretend = 0, frame = 8
 1606              		@ frame_needed = 0, uses_anonymous_args = 0
 1607              		.loc 1 194 1 is_stmt 0 view .LVU295
 1608 0000 30B5     		push	{r4, r5, lr}
 1609              	.LCFI63:
 1610              		.cfi_def_cfa_offset 12
 1611              		.cfi_offset 4, -12
 1612              		.cfi_offset 5, -8
 1613              		.cfi_offset 14, -4
 1614 0002 85B0     		sub	sp, sp, #20
 1615              	.LCFI64:
 1616              		.cfi_def_cfa_offset 32
ARM GAS  C:\Users\GKQ\AppData\Local\Temp\ccROqQZ7.s 			page 32


 1617 0004 0446     		mov	r4, r0
 1618 0006 0D46     		mov	r5, r1
 195:u8g2_lib/u8g2_d_setup.c ****   uint8_t tile_buf_height;
 1619              		.loc 1 195 3 is_stmt 1 view .LVU296
 196:u8g2_lib/u8g2_d_setup.c ****   uint8_t *buf;
 1620              		.loc 1 196 3 view .LVU297
 197:u8g2_lib/u8g2_d_setup.c ****   u8g2_SetupDisplay(u8g2, u8x8_d_ssd1306_128x64_noname, u8x8_cad_001, byte_cb, gpio_and_delay_cb);
 1621              		.loc 1 197 3 view .LVU298
 1622 0008 0093     		str	r3, [sp]
 1623 000a 1346     		mov	r3, r2
 1624              	.LVL211:
 1625              		.loc 1 197 3 is_stmt 0 view .LVU299
 1626 000c 084A     		ldr	r2, .L87
 1627              	.LVL212:
 1628              		.loc 1 197 3 view .LVU300
 1629 000e 0949     		ldr	r1, .L87+4
 1630              	.LVL213:
 1631              		.loc 1 197 3 view .LVU301
 1632 0010 FFF7FEFF 		bl	u8x8_Setup
 1633              	.LVL214:
 198:u8g2_lib/u8g2_d_setup.c ****   buf = u8g2_m_16_8_2(&tile_buf_height);
 1634              		.loc 1 198 3 is_stmt 1 view .LVU302
 1635              		.loc 1 198 9 is_stmt 0 view .LVU303
 1636 0014 0DF10F00 		add	r0, sp, #15
 1637 0018 FFF7FEFF 		bl	u8g2_m_16_8_2
 1638              	.LVL215:
 1639 001c 0146     		mov	r1, r0
 1640              	.LVL216:
 199:u8g2_lib/u8g2_d_setup.c ****   u8g2_SetupBuffer(u8g2, buf, tile_buf_height, u8g2_ll_hvline_vertical_top_lsb, rotation);
 1641              		.loc 1 199 3 is_stmt 1 view .LVU304
 1642 001e 0095     		str	r5, [sp]
 1643 0020 054B     		ldr	r3, .L87+8
 1644 0022 9DF80F20 		ldrb	r2, [sp, #15]	@ zero_extendqisi2
 1645 0026 2046     		mov	r0, r4
 1646              	.LVL217:
 1647              		.loc 1 199 3 is_stmt 0 view .LVU305
 1648 0028 FFF7FEFF 		bl	u8g2_SetupBuffer
 1649              	.LVL218:
 200:u8g2_lib/u8g2_d_setup.c **** }
 1650              		.loc 1 200 1 view .LVU306
 1651 002c 05B0     		add	sp, sp, #20
 1652              	.LCFI65:
 1653              		.cfi_def_cfa_offset 12
 1654              		@ sp needed
 1655 002e 30BD     		pop	{r4, r5, pc}
 1656              	.LVL219:
 1657              	.L88:
 1658              		.loc 1 200 1 view .LVU307
 1659              		.align	2
 1660              	.L87:
 1661 0030 00000000 		.word	u8x8_cad_001
 1662 0034 00000000 		.word	u8x8_d_ssd1306_128x64_noname
 1663 0038 00000000 		.word	u8g2_ll_hvline_vertical_top_lsb
 1664              		.cfi_endproc
 1665              	.LFE21:
 1667              		.section	.text.u8g2_Setup_ssd1306_128x64_vcomh0_2,"ax",%progbits
 1668              		.align	1
ARM GAS  C:\Users\GKQ\AppData\Local\Temp\ccROqQZ7.s 			page 33


 1669              		.global	u8g2_Setup_ssd1306_128x64_vcomh0_2
 1670              		.syntax unified
 1671              		.thumb
 1672              		.thumb_func
 1673              		.fpu softvfp
 1675              	u8g2_Setup_ssd1306_128x64_vcomh0_2:
 1676              	.LVL220:
 1677              	.LFB22:
 201:u8g2_lib/u8g2_d_setup.c **** void u8g2_Setup_ssd1306_128x64_vcomh0_2(u8g2_t *u8g2, const u8g2_cb_t *rotation, u8x8_msg_cb byte_c
 202:u8g2_lib/u8g2_d_setup.c **** {
 1678              		.loc 1 202 1 is_stmt 1 view -0
 1679              		.cfi_startproc
 1680              		@ args = 0, pretend = 0, frame = 8
 1681              		@ frame_needed = 0, uses_anonymous_args = 0
 1682              		.loc 1 202 1 is_stmt 0 view .LVU309
 1683 0000 30B5     		push	{r4, r5, lr}
 1684              	.LCFI66:
 1685              		.cfi_def_cfa_offset 12
 1686              		.cfi_offset 4, -12
 1687              		.cfi_offset 5, -8
 1688              		.cfi_offset 14, -4
 1689 0002 85B0     		sub	sp, sp, #20
 1690              	.LCFI67:
 1691              		.cfi_def_cfa_offset 32
 1692 0004 0446     		mov	r4, r0
 1693 0006 0D46     		mov	r5, r1
 203:u8g2_lib/u8g2_d_setup.c ****   uint8_t tile_buf_height;
 1694              		.loc 1 203 3 is_stmt 1 view .LVU310
 204:u8g2_lib/u8g2_d_setup.c ****   uint8_t *buf;
 1695              		.loc 1 204 3 view .LVU311
 205:u8g2_lib/u8g2_d_setup.c ****   u8g2_SetupDisplay(u8g2, u8x8_d_ssd1306_128x64_vcomh0, u8x8_cad_001, byte_cb, gpio_and_delay_cb);
 1696              		.loc 1 205 3 view .LVU312
 1697 0008 0093     		str	r3, [sp]
 1698 000a 1346     		mov	r3, r2
 1699              	.LVL221:
 1700              		.loc 1 205 3 is_stmt 0 view .LVU313
 1701 000c 084A     		ldr	r2, .L91
 1702              	.LVL222:
 1703              		.loc 1 205 3 view .LVU314
 1704 000e 0949     		ldr	r1, .L91+4
 1705              	.LVL223:
 1706              		.loc 1 205 3 view .LVU315
 1707 0010 FFF7FEFF 		bl	u8x8_Setup
 1708              	.LVL224:
 206:u8g2_lib/u8g2_d_setup.c ****   buf = u8g2_m_16_8_2(&tile_buf_height);
 1709              		.loc 1 206 3 is_stmt 1 view .LVU316
 1710              		.loc 1 206 9 is_stmt 0 view .LVU317
 1711 0014 0DF10F00 		add	r0, sp, #15
 1712 0018 FFF7FEFF 		bl	u8g2_m_16_8_2
 1713              	.LVL225:
 1714 001c 0146     		mov	r1, r0
 1715              	.LVL226:
 207:u8g2_lib/u8g2_d_setup.c ****   u8g2_SetupBuffer(u8g2, buf, tile_buf_height, u8g2_ll_hvline_vertical_top_lsb, rotation);
 1716              		.loc 1 207 3 is_stmt 1 view .LVU318
 1717 001e 0095     		str	r5, [sp]
 1718 0020 054B     		ldr	r3, .L91+8
 1719 0022 9DF80F20 		ldrb	r2, [sp, #15]	@ zero_extendqisi2
ARM GAS  C:\Users\GKQ\AppData\Local\Temp\ccROqQZ7.s 			page 34


 1720 0026 2046     		mov	r0, r4
 1721              	.LVL227:
 1722              		.loc 1 207 3 is_stmt 0 view .LVU319
 1723 0028 FFF7FEFF 		bl	u8g2_SetupBuffer
 1724              	.LVL228:
 208:u8g2_lib/u8g2_d_setup.c **** }
 1725              		.loc 1 208 1 view .LVU320
 1726 002c 05B0     		add	sp, sp, #20
 1727              	.LCFI68:
 1728              		.cfi_def_cfa_offset 12
 1729              		@ sp needed
 1730 002e 30BD     		pop	{r4, r5, pc}
 1731              	.LVL229:
 1732              	.L92:
 1733              		.loc 1 208 1 view .LVU321
 1734              		.align	2
 1735              	.L91:
 1736 0030 00000000 		.word	u8x8_cad_001
 1737 0034 00000000 		.word	u8x8_d_ssd1306_128x64_vcomh0
 1738 0038 00000000 		.word	u8g2_ll_hvline_vertical_top_lsb
 1739              		.cfi_endproc
 1740              	.LFE22:
 1742              		.section	.text.u8g2_Setup_ssd1306_128x64_alt0_2,"ax",%progbits
 1743              		.align	1
 1744              		.global	u8g2_Setup_ssd1306_128x64_alt0_2
 1745              		.syntax unified
 1746              		.thumb
 1747              		.thumb_func
 1748              		.fpu softvfp
 1750              	u8g2_Setup_ssd1306_128x64_alt0_2:
 1751              	.LVL230:
 1752              	.LFB23:
 209:u8g2_lib/u8g2_d_setup.c **** void u8g2_Setup_ssd1306_128x64_alt0_2(u8g2_t *u8g2, const u8g2_cb_t *rotation, u8x8_msg_cb byte_cb,
 210:u8g2_lib/u8g2_d_setup.c **** {
 1753              		.loc 1 210 1 is_stmt 1 view -0
 1754              		.cfi_startproc
 1755              		@ args = 0, pretend = 0, frame = 8
 1756              		@ frame_needed = 0, uses_anonymous_args = 0
 1757              		.loc 1 210 1 is_stmt 0 view .LVU323
 1758 0000 30B5     		push	{r4, r5, lr}
 1759              	.LCFI69:
 1760              		.cfi_def_cfa_offset 12
 1761              		.cfi_offset 4, -12
 1762              		.cfi_offset 5, -8
 1763              		.cfi_offset 14, -4
 1764 0002 85B0     		sub	sp, sp, #20
 1765              	.LCFI70:
 1766              		.cfi_def_cfa_offset 32
 1767 0004 0446     		mov	r4, r0
 1768 0006 0D46     		mov	r5, r1
 211:u8g2_lib/u8g2_d_setup.c ****   uint8_t tile_buf_height;
 1769              		.loc 1 211 3 is_stmt 1 view .LVU324
 212:u8g2_lib/u8g2_d_setup.c ****   uint8_t *buf;
 1770              		.loc 1 212 3 view .LVU325
 213:u8g2_lib/u8g2_d_setup.c ****   u8g2_SetupDisplay(u8g2, u8x8_d_ssd1306_128x64_alt0, u8x8_cad_001, byte_cb, gpio_and_delay_cb);
 1771              		.loc 1 213 3 view .LVU326
 1772 0008 0093     		str	r3, [sp]
ARM GAS  C:\Users\GKQ\AppData\Local\Temp\ccROqQZ7.s 			page 35


 1773 000a 1346     		mov	r3, r2
 1774              	.LVL231:
 1775              		.loc 1 213 3 is_stmt 0 view .LVU327
 1776 000c 084A     		ldr	r2, .L95
 1777              	.LVL232:
 1778              		.loc 1 213 3 view .LVU328
 1779 000e 0949     		ldr	r1, .L95+4
 1780              	.LVL233:
 1781              		.loc 1 213 3 view .LVU329
 1782 0010 FFF7FEFF 		bl	u8x8_Setup
 1783              	.LVL234:
 214:u8g2_lib/u8g2_d_setup.c ****   buf = u8g2_m_16_8_2(&tile_buf_height);
 1784              		.loc 1 214 3 is_stmt 1 view .LVU330
 1785              		.loc 1 214 9 is_stmt 0 view .LVU331
 1786 0014 0DF10F00 		add	r0, sp, #15
 1787 0018 FFF7FEFF 		bl	u8g2_m_16_8_2
 1788              	.LVL235:
 1789 001c 0146     		mov	r1, r0
 1790              	.LVL236:
 215:u8g2_lib/u8g2_d_setup.c ****   u8g2_SetupBuffer(u8g2, buf, tile_buf_height, u8g2_ll_hvline_vertical_top_lsb, rotation);
 1791              		.loc 1 215 3 is_stmt 1 view .LVU332
 1792 001e 0095     		str	r5, [sp]
 1793 0020 054B     		ldr	r3, .L95+8
 1794 0022 9DF80F20 		ldrb	r2, [sp, #15]	@ zero_extendqisi2
 1795 0026 2046     		mov	r0, r4
 1796              	.LVL237:
 1797              		.loc 1 215 3 is_stmt 0 view .LVU333
 1798 0028 FFF7FEFF 		bl	u8g2_SetupBuffer
 1799              	.LVL238:
 216:u8g2_lib/u8g2_d_setup.c **** }
 1800              		.loc 1 216 1 view .LVU334
 1801 002c 05B0     		add	sp, sp, #20
 1802              	.LCFI71:
 1803              		.cfi_def_cfa_offset 12
 1804              		@ sp needed
 1805 002e 30BD     		pop	{r4, r5, pc}
 1806              	.LVL239:
 1807              	.L96:
 1808              		.loc 1 216 1 view .LVU335
 1809              		.align	2
 1810              	.L95:
 1811 0030 00000000 		.word	u8x8_cad_001
 1812 0034 00000000 		.word	u8x8_d_ssd1306_128x64_alt0
 1813 0038 00000000 		.word	u8g2_ll_hvline_vertical_top_lsb
 1814              		.cfi_endproc
 1815              	.LFE23:
 1817              		.section	.text.u8g2_Setup_ssd1306_128x64_noname_f,"ax",%progbits
 1818              		.align	1
 1819              		.global	u8g2_Setup_ssd1306_128x64_noname_f
 1820              		.syntax unified
 1821              		.thumb
 1822              		.thumb_func
 1823              		.fpu softvfp
 1825              	u8g2_Setup_ssd1306_128x64_noname_f:
 1826              	.LVL240:
 1827              	.LFB24:
 217:u8g2_lib/u8g2_d_setup.c **** /* ssd1306 f */
ARM GAS  C:\Users\GKQ\AppData\Local\Temp\ccROqQZ7.s 			page 36


 218:u8g2_lib/u8g2_d_setup.c **** void u8g2_Setup_ssd1306_128x64_noname_f(u8g2_t *u8g2, const u8g2_cb_t *rotation, u8x8_msg_cb byte_c
 219:u8g2_lib/u8g2_d_setup.c **** {
 1828              		.loc 1 219 1 is_stmt 1 view -0
 1829              		.cfi_startproc
 1830              		@ args = 0, pretend = 0, frame = 8
 1831              		@ frame_needed = 0, uses_anonymous_args = 0
 1832              		.loc 1 219 1 is_stmt 0 view .LVU337
 1833 0000 30B5     		push	{r4, r5, lr}
 1834              	.LCFI72:
 1835              		.cfi_def_cfa_offset 12
 1836              		.cfi_offset 4, -12
 1837              		.cfi_offset 5, -8
 1838              		.cfi_offset 14, -4
 1839 0002 85B0     		sub	sp, sp, #20
 1840              	.LCFI73:
 1841              		.cfi_def_cfa_offset 32
 1842 0004 0446     		mov	r4, r0
 1843 0006 0D46     		mov	r5, r1
 220:u8g2_lib/u8g2_d_setup.c ****   uint8_t tile_buf_height;
 1844              		.loc 1 220 3 is_stmt 1 view .LVU338
 221:u8g2_lib/u8g2_d_setup.c ****   uint8_t *buf;
 1845              		.loc 1 221 3 view .LVU339
 222:u8g2_lib/u8g2_d_setup.c ****   u8g2_SetupDisplay(u8g2, u8x8_d_ssd1306_128x64_noname, u8x8_cad_001, byte_cb, gpio_and_delay_cb);
 1846              		.loc 1 222 3 view .LVU340
 1847 0008 0093     		str	r3, [sp]
 1848 000a 1346     		mov	r3, r2
 1849              	.LVL241:
 1850              		.loc 1 222 3 is_stmt 0 view .LVU341
 1851 000c 084A     		ldr	r2, .L99
 1852              	.LVL242:
 1853              		.loc 1 222 3 view .LVU342
 1854 000e 0949     		ldr	r1, .L99+4
 1855              	.LVL243:
 1856              		.loc 1 222 3 view .LVU343
 1857 0010 FFF7FEFF 		bl	u8x8_Setup
 1858              	.LVL244:
 223:u8g2_lib/u8g2_d_setup.c ****   buf = u8g2_m_16_8_f(&tile_buf_height);
 1859              		.loc 1 223 3 is_stmt 1 view .LVU344
 1860              		.loc 1 223 9 is_stmt 0 view .LVU345
 1861 0014 0DF10F00 		add	r0, sp, #15
 1862 0018 FFF7FEFF 		bl	u8g2_m_16_8_f
 1863              	.LVL245:
 1864 001c 0146     		mov	r1, r0
 1865              	.LVL246:
 224:u8g2_lib/u8g2_d_setup.c ****   u8g2_SetupBuffer(u8g2, buf, tile_buf_height, u8g2_ll_hvline_vertical_top_lsb, rotation);
 1866              		.loc 1 224 3 is_stmt 1 view .LVU346
 1867 001e 0095     		str	r5, [sp]
 1868 0020 054B     		ldr	r3, .L99+8
 1869 0022 9DF80F20 		ldrb	r2, [sp, #15]	@ zero_extendqisi2
 1870 0026 2046     		mov	r0, r4
 1871              	.LVL247:
 1872              		.loc 1 224 3 is_stmt 0 view .LVU347
 1873 0028 FFF7FEFF 		bl	u8g2_SetupBuffer
 1874              	.LVL248:
 225:u8g2_lib/u8g2_d_setup.c **** }
 1875              		.loc 1 225 1 view .LVU348
 1876 002c 05B0     		add	sp, sp, #20
ARM GAS  C:\Users\GKQ\AppData\Local\Temp\ccROqQZ7.s 			page 37


 1877              	.LCFI74:
 1878              		.cfi_def_cfa_offset 12
 1879              		@ sp needed
 1880 002e 30BD     		pop	{r4, r5, pc}
 1881              	.LVL249:
 1882              	.L100:
 1883              		.loc 1 225 1 view .LVU349
 1884              		.align	2
 1885              	.L99:
 1886 0030 00000000 		.word	u8x8_cad_001
 1887 0034 00000000 		.word	u8x8_d_ssd1306_128x64_noname
 1888 0038 00000000 		.word	u8g2_ll_hvline_vertical_top_lsb
 1889              		.cfi_endproc
 1890              	.LFE24:
 1892              		.section	.text.u8g2_Setup_ssd1306_128x64_vcomh0_f,"ax",%progbits
 1893              		.align	1
 1894              		.global	u8g2_Setup_ssd1306_128x64_vcomh0_f
 1895              		.syntax unified
 1896              		.thumb
 1897              		.thumb_func
 1898              		.fpu softvfp
 1900              	u8g2_Setup_ssd1306_128x64_vcomh0_f:
 1901              	.LVL250:
 1902              	.LFB25:
 226:u8g2_lib/u8g2_d_setup.c **** void u8g2_Setup_ssd1306_128x64_vcomh0_f(u8g2_t *u8g2, const u8g2_cb_t *rotation, u8x8_msg_cb byte_c
 227:u8g2_lib/u8g2_d_setup.c **** {
 1903              		.loc 1 227 1 is_stmt 1 view -0
 1904              		.cfi_startproc
 1905              		@ args = 0, pretend = 0, frame = 8
 1906              		@ frame_needed = 0, uses_anonymous_args = 0
 1907              		.loc 1 227 1 is_stmt 0 view .LVU351
 1908 0000 30B5     		push	{r4, r5, lr}
 1909              	.LCFI75:
 1910              		.cfi_def_cfa_offset 12
 1911              		.cfi_offset 4, -12
 1912              		.cfi_offset 5, -8
 1913              		.cfi_offset 14, -4
 1914 0002 85B0     		sub	sp, sp, #20
 1915              	.LCFI76:
 1916              		.cfi_def_cfa_offset 32
 1917 0004 0446     		mov	r4, r0
 1918 0006 0D46     		mov	r5, r1
 228:u8g2_lib/u8g2_d_setup.c ****   uint8_t tile_buf_height;
 1919              		.loc 1 228 3 is_stmt 1 view .LVU352
 229:u8g2_lib/u8g2_d_setup.c ****   uint8_t *buf;
 1920              		.loc 1 229 3 view .LVU353
 230:u8g2_lib/u8g2_d_setup.c ****   u8g2_SetupDisplay(u8g2, u8x8_d_ssd1306_128x64_vcomh0, u8x8_cad_001, byte_cb, gpio_and_delay_cb);
 1921              		.loc 1 230 3 view .LVU354
 1922 0008 0093     		str	r3, [sp]
 1923 000a 1346     		mov	r3, r2
 1924              	.LVL251:
 1925              		.loc 1 230 3 is_stmt 0 view .LVU355
 1926 000c 084A     		ldr	r2, .L103
 1927              	.LVL252:
 1928              		.loc 1 230 3 view .LVU356
 1929 000e 0949     		ldr	r1, .L103+4
 1930              	.LVL253:
ARM GAS  C:\Users\GKQ\AppData\Local\Temp\ccROqQZ7.s 			page 38


 1931              		.loc 1 230 3 view .LVU357
 1932 0010 FFF7FEFF 		bl	u8x8_Setup
 1933              	.LVL254:
 231:u8g2_lib/u8g2_d_setup.c ****   buf = u8g2_m_16_8_f(&tile_buf_height);
 1934              		.loc 1 231 3 is_stmt 1 view .LVU358
 1935              		.loc 1 231 9 is_stmt 0 view .LVU359
 1936 0014 0DF10F00 		add	r0, sp, #15
 1937 0018 FFF7FEFF 		bl	u8g2_m_16_8_f
 1938              	.LVL255:
 1939 001c 0146     		mov	r1, r0
 1940              	.LVL256:
 232:u8g2_lib/u8g2_d_setup.c ****   u8g2_SetupBuffer(u8g2, buf, tile_buf_height, u8g2_ll_hvline_vertical_top_lsb, rotation);
 1941              		.loc 1 232 3 is_stmt 1 view .LVU360
 1942 001e 0095     		str	r5, [sp]
 1943 0020 054B     		ldr	r3, .L103+8
 1944 0022 9DF80F20 		ldrb	r2, [sp, #15]	@ zero_extendqisi2
 1945 0026 2046     		mov	r0, r4
 1946              	.LVL257:
 1947              		.loc 1 232 3 is_stmt 0 view .LVU361
 1948 0028 FFF7FEFF 		bl	u8g2_SetupBuffer
 1949              	.LVL258:
 233:u8g2_lib/u8g2_d_setup.c **** }
 1950              		.loc 1 233 1 view .LVU362
 1951 002c 05B0     		add	sp, sp, #20
 1952              	.LCFI77:
 1953              		.cfi_def_cfa_offset 12
 1954              		@ sp needed
 1955 002e 30BD     		pop	{r4, r5, pc}
 1956              	.LVL259:
 1957              	.L104:
 1958              		.loc 1 233 1 view .LVU363
 1959              		.align	2
 1960              	.L103:
 1961 0030 00000000 		.word	u8x8_cad_001
 1962 0034 00000000 		.word	u8x8_d_ssd1306_128x64_vcomh0
 1963 0038 00000000 		.word	u8g2_ll_hvline_vertical_top_lsb
 1964              		.cfi_endproc
 1965              	.LFE25:
 1967              		.section	.text.u8g2_Setup_ssd1306_128x64_alt0_f,"ax",%progbits
 1968              		.align	1
 1969              		.global	u8g2_Setup_ssd1306_128x64_alt0_f
 1970              		.syntax unified
 1971              		.thumb
 1972              		.thumb_func
 1973              		.fpu softvfp
 1975              	u8g2_Setup_ssd1306_128x64_alt0_f:
 1976              	.LVL260:
 1977              	.LFB26:
 234:u8g2_lib/u8g2_d_setup.c **** void u8g2_Setup_ssd1306_128x64_alt0_f(u8g2_t *u8g2, const u8g2_cb_t *rotation, u8x8_msg_cb byte_cb,
 235:u8g2_lib/u8g2_d_setup.c **** {
 1978              		.loc 1 235 1 is_stmt 1 view -0
 1979              		.cfi_startproc
 1980              		@ args = 0, pretend = 0, frame = 8
 1981              		@ frame_needed = 0, uses_anonymous_args = 0
 1982              		.loc 1 235 1 is_stmt 0 view .LVU365
 1983 0000 30B5     		push	{r4, r5, lr}
 1984              	.LCFI78:
ARM GAS  C:\Users\GKQ\AppData\Local\Temp\ccROqQZ7.s 			page 39


 1985              		.cfi_def_cfa_offset 12
 1986              		.cfi_offset 4, -12
 1987              		.cfi_offset 5, -8
 1988              		.cfi_offset 14, -4
 1989 0002 85B0     		sub	sp, sp, #20
 1990              	.LCFI79:
 1991              		.cfi_def_cfa_offset 32
 1992 0004 0446     		mov	r4, r0
 1993 0006 0D46     		mov	r5, r1
 236:u8g2_lib/u8g2_d_setup.c ****   uint8_t tile_buf_height;
 1994              		.loc 1 236 3 is_stmt 1 view .LVU366
 237:u8g2_lib/u8g2_d_setup.c ****   uint8_t *buf;
 1995              		.loc 1 237 3 view .LVU367
 238:u8g2_lib/u8g2_d_setup.c ****   u8g2_SetupDisplay(u8g2, u8x8_d_ssd1306_128x64_alt0, u8x8_cad_001, byte_cb, gpio_and_delay_cb);
 1996              		.loc 1 238 3 view .LVU368
 1997 0008 0093     		str	r3, [sp]
 1998 000a 1346     		mov	r3, r2
 1999              	.LVL261:
 2000              		.loc 1 238 3 is_stmt 0 view .LVU369
 2001 000c 084A     		ldr	r2, .L107
 2002              	.LVL262:
 2003              		.loc 1 238 3 view .LVU370
 2004 000e 0949     		ldr	r1, .L107+4
 2005              	.LVL263:
 2006              		.loc 1 238 3 view .LVU371
 2007 0010 FFF7FEFF 		bl	u8x8_Setup
 2008              	.LVL264:
 239:u8g2_lib/u8g2_d_setup.c ****   buf = u8g2_m_16_8_f(&tile_buf_height);
 2009              		.loc 1 239 3 is_stmt 1 view .LVU372
 2010              		.loc 1 239 9 is_stmt 0 view .LVU373
 2011 0014 0DF10F00 		add	r0, sp, #15
 2012 0018 FFF7FEFF 		bl	u8g2_m_16_8_f
 2013              	.LVL265:
 2014 001c 0146     		mov	r1, r0
 2015              	.LVL266:
 240:u8g2_lib/u8g2_d_setup.c ****   u8g2_SetupBuffer(u8g2, buf, tile_buf_height, u8g2_ll_hvline_vertical_top_lsb, rotation);
 2016              		.loc 1 240 3 is_stmt 1 view .LVU374
 2017 001e 0095     		str	r5, [sp]
 2018 0020 054B     		ldr	r3, .L107+8
 2019 0022 9DF80F20 		ldrb	r2, [sp, #15]	@ zero_extendqisi2
 2020 0026 2046     		mov	r0, r4
 2021              	.LVL267:
 2022              		.loc 1 240 3 is_stmt 0 view .LVU375
 2023 0028 FFF7FEFF 		bl	u8g2_SetupBuffer
 2024              	.LVL268:
 241:u8g2_lib/u8g2_d_setup.c **** }
 2025              		.loc 1 241 1 view .LVU376
 2026 002c 05B0     		add	sp, sp, #20
 2027              	.LCFI80:
 2028              		.cfi_def_cfa_offset 12
 2029              		@ sp needed
 2030 002e 30BD     		pop	{r4, r5, pc}
 2031              	.LVL269:
 2032              	.L108:
 2033              		.loc 1 241 1 view .LVU377
 2034              		.align	2
 2035              	.L107:
ARM GAS  C:\Users\GKQ\AppData\Local\Temp\ccROqQZ7.s 			page 40


 2036 0030 00000000 		.word	u8x8_cad_001
 2037 0034 00000000 		.word	u8x8_d_ssd1306_128x64_alt0
 2038 0038 00000000 		.word	u8g2_ll_hvline_vertical_top_lsb
 2039              		.cfi_endproc
 2040              	.LFE26:
 2042              		.section	.text.u8g2_Setup_ssd1306_i2c_128x64_noname_1,"ax",%progbits
 2043              		.align	1
 2044              		.global	u8g2_Setup_ssd1306_i2c_128x64_noname_1
 2045              		.syntax unified
 2046              		.thumb
 2047              		.thumb_func
 2048              		.fpu softvfp
 2050              	u8g2_Setup_ssd1306_i2c_128x64_noname_1:
 2051              	.LVL270:
 2052              	.LFB27:
 242:u8g2_lib/u8g2_d_setup.c **** /* ssd1306 */
 243:u8g2_lib/u8g2_d_setup.c **** /* ssd1306 1 */
 244:u8g2_lib/u8g2_d_setup.c **** void u8g2_Setup_ssd1306_i2c_128x64_noname_1(u8g2_t *u8g2, const u8g2_cb_t *rotation, u8x8_msg_cb by
 245:u8g2_lib/u8g2_d_setup.c **** {
 2053              		.loc 1 245 1 is_stmt 1 view -0
 2054              		.cfi_startproc
 2055              		@ args = 0, pretend = 0, frame = 8
 2056              		@ frame_needed = 0, uses_anonymous_args = 0
 2057              		.loc 1 245 1 is_stmt 0 view .LVU379
 2058 0000 30B5     		push	{r4, r5, lr}
 2059              	.LCFI81:
 2060              		.cfi_def_cfa_offset 12
 2061              		.cfi_offset 4, -12
 2062              		.cfi_offset 5, -8
 2063              		.cfi_offset 14, -4
 2064 0002 85B0     		sub	sp, sp, #20
 2065              	.LCFI82:
 2066              		.cfi_def_cfa_offset 32
 2067 0004 0446     		mov	r4, r0
 2068 0006 0D46     		mov	r5, r1
 246:u8g2_lib/u8g2_d_setup.c ****   uint8_t tile_buf_height;
 2069              		.loc 1 246 3 is_stmt 1 view .LVU380
 247:u8g2_lib/u8g2_d_setup.c ****   uint8_t *buf;
 2070              		.loc 1 247 3 view .LVU381
 248:u8g2_lib/u8g2_d_setup.c ****   u8g2_SetupDisplay(u8g2, u8x8_d_ssd1306_128x64_noname, u8x8_cad_ssd13xx_fast_i2c, byte_cb, gpio_an
 2071              		.loc 1 248 3 view .LVU382
 2072 0008 0093     		str	r3, [sp]
 2073 000a 1346     		mov	r3, r2
 2074              	.LVL271:
 2075              		.loc 1 248 3 is_stmt 0 view .LVU383
 2076 000c 084A     		ldr	r2, .L111
 2077              	.LVL272:
 2078              		.loc 1 248 3 view .LVU384
 2079 000e 0949     		ldr	r1, .L111+4
 2080              	.LVL273:
 2081              		.loc 1 248 3 view .LVU385
 2082 0010 FFF7FEFF 		bl	u8x8_Setup
 2083              	.LVL274:
 249:u8g2_lib/u8g2_d_setup.c ****   buf = u8g2_m_16_8_1(&tile_buf_height);
 2084              		.loc 1 249 3 is_stmt 1 view .LVU386
 2085              		.loc 1 249 9 is_stmt 0 view .LVU387
 2086 0014 0DF10F00 		add	r0, sp, #15
ARM GAS  C:\Users\GKQ\AppData\Local\Temp\ccROqQZ7.s 			page 41


 2087 0018 FFF7FEFF 		bl	u8g2_m_16_8_1
 2088              	.LVL275:
 2089 001c 0146     		mov	r1, r0
 2090              	.LVL276:
 250:u8g2_lib/u8g2_d_setup.c ****   u8g2_SetupBuffer(u8g2, buf, tile_buf_height, u8g2_ll_hvline_vertical_top_lsb, rotation);
 2091              		.loc 1 250 3 is_stmt 1 view .LVU388
 2092 001e 0095     		str	r5, [sp]
 2093 0020 054B     		ldr	r3, .L111+8
 2094 0022 9DF80F20 		ldrb	r2, [sp, #15]	@ zero_extendqisi2
 2095 0026 2046     		mov	r0, r4
 2096              	.LVL277:
 2097              		.loc 1 250 3 is_stmt 0 view .LVU389
 2098 0028 FFF7FEFF 		bl	u8g2_SetupBuffer
 2099              	.LVL278:
 251:u8g2_lib/u8g2_d_setup.c **** }
 2100              		.loc 1 251 1 view .LVU390
 2101 002c 05B0     		add	sp, sp, #20
 2102              	.LCFI83:
 2103              		.cfi_def_cfa_offset 12
 2104              		@ sp needed
 2105 002e 30BD     		pop	{r4, r5, pc}
 2106              	.LVL279:
 2107              	.L112:
 2108              		.loc 1 251 1 view .LVU391
 2109              		.align	2
 2110              	.L111:
 2111 0030 00000000 		.word	u8x8_cad_ssd13xx_fast_i2c
 2112 0034 00000000 		.word	u8x8_d_ssd1306_128x64_noname
 2113 0038 00000000 		.word	u8g2_ll_hvline_vertical_top_lsb
 2114              		.cfi_endproc
 2115              	.LFE27:
 2117              		.section	.text.u8g2_Setup_ssd1306_i2c_128x64_vcomh0_1,"ax",%progbits
 2118              		.align	1
 2119              		.global	u8g2_Setup_ssd1306_i2c_128x64_vcomh0_1
 2120              		.syntax unified
 2121              		.thumb
 2122              		.thumb_func
 2123              		.fpu softvfp
 2125              	u8g2_Setup_ssd1306_i2c_128x64_vcomh0_1:
 2126              	.LVL280:
 2127              	.LFB28:
 252:u8g2_lib/u8g2_d_setup.c **** void u8g2_Setup_ssd1306_i2c_128x64_vcomh0_1(u8g2_t *u8g2, const u8g2_cb_t *rotation, u8x8_msg_cb by
 253:u8g2_lib/u8g2_d_setup.c **** {
 2128              		.loc 1 253 1 is_stmt 1 view -0
 2129              		.cfi_startproc
 2130              		@ args = 0, pretend = 0, frame = 8
 2131              		@ frame_needed = 0, uses_anonymous_args = 0
 2132              		.loc 1 253 1 is_stmt 0 view .LVU393
 2133 0000 30B5     		push	{r4, r5, lr}
 2134              	.LCFI84:
 2135              		.cfi_def_cfa_offset 12
 2136              		.cfi_offset 4, -12
 2137              		.cfi_offset 5, -8
 2138              		.cfi_offset 14, -4
 2139 0002 85B0     		sub	sp, sp, #20
 2140              	.LCFI85:
 2141              		.cfi_def_cfa_offset 32
ARM GAS  C:\Users\GKQ\AppData\Local\Temp\ccROqQZ7.s 			page 42


 2142 0004 0446     		mov	r4, r0
 2143 0006 0D46     		mov	r5, r1
 254:u8g2_lib/u8g2_d_setup.c ****   uint8_t tile_buf_height;
 2144              		.loc 1 254 3 is_stmt 1 view .LVU394
 255:u8g2_lib/u8g2_d_setup.c ****   uint8_t *buf;
 2145              		.loc 1 255 3 view .LVU395
 256:u8g2_lib/u8g2_d_setup.c ****   u8g2_SetupDisplay(u8g2, u8x8_d_ssd1306_128x64_vcomh0, u8x8_cad_ssd13xx_fast_i2c, byte_cb, gpio_an
 2146              		.loc 1 256 3 view .LVU396
 2147 0008 0093     		str	r3, [sp]
 2148 000a 1346     		mov	r3, r2
 2149              	.LVL281:
 2150              		.loc 1 256 3 is_stmt 0 view .LVU397
 2151 000c 084A     		ldr	r2, .L115
 2152              	.LVL282:
 2153              		.loc 1 256 3 view .LVU398
 2154 000e 0949     		ldr	r1, .L115+4
 2155              	.LVL283:
 2156              		.loc 1 256 3 view .LVU399
 2157 0010 FFF7FEFF 		bl	u8x8_Setup
 2158              	.LVL284:
 257:u8g2_lib/u8g2_d_setup.c ****   buf = u8g2_m_16_8_1(&tile_buf_height);
 2159              		.loc 1 257 3 is_stmt 1 view .LVU400
 2160              		.loc 1 257 9 is_stmt 0 view .LVU401
 2161 0014 0DF10F00 		add	r0, sp, #15
 2162 0018 FFF7FEFF 		bl	u8g2_m_16_8_1
 2163              	.LVL285:
 2164 001c 0146     		mov	r1, r0
 2165              	.LVL286:
 258:u8g2_lib/u8g2_d_setup.c ****   u8g2_SetupBuffer(u8g2, buf, tile_buf_height, u8g2_ll_hvline_vertical_top_lsb, rotation);
 2166              		.loc 1 258 3 is_stmt 1 view .LVU402
 2167 001e 0095     		str	r5, [sp]
 2168 0020 054B     		ldr	r3, .L115+8
 2169 0022 9DF80F20 		ldrb	r2, [sp, #15]	@ zero_extendqisi2
 2170 0026 2046     		mov	r0, r4
 2171              	.LVL287:
 2172              		.loc 1 258 3 is_stmt 0 view .LVU403
 2173 0028 FFF7FEFF 		bl	u8g2_SetupBuffer
 2174              	.LVL288:
 259:u8g2_lib/u8g2_d_setup.c **** }
 2175              		.loc 1 259 1 view .LVU404
 2176 002c 05B0     		add	sp, sp, #20
 2177              	.LCFI86:
 2178              		.cfi_def_cfa_offset 12
 2179              		@ sp needed
 2180 002e 30BD     		pop	{r4, r5, pc}
 2181              	.LVL289:
 2182              	.L116:
 2183              		.loc 1 259 1 view .LVU405
 2184              		.align	2
 2185              	.L115:
 2186 0030 00000000 		.word	u8x8_cad_ssd13xx_fast_i2c
 2187 0034 00000000 		.word	u8x8_d_ssd1306_128x64_vcomh0
 2188 0038 00000000 		.word	u8g2_ll_hvline_vertical_top_lsb
 2189              		.cfi_endproc
 2190              	.LFE28:
 2192              		.section	.text.u8g2_Setup_ssd1306_i2c_128x64_alt0_1,"ax",%progbits
 2193              		.align	1
ARM GAS  C:\Users\GKQ\AppData\Local\Temp\ccROqQZ7.s 			page 43


 2194              		.global	u8g2_Setup_ssd1306_i2c_128x64_alt0_1
 2195              		.syntax unified
 2196              		.thumb
 2197              		.thumb_func
 2198              		.fpu softvfp
 2200              	u8g2_Setup_ssd1306_i2c_128x64_alt0_1:
 2201              	.LVL290:
 2202              	.LFB29:
 260:u8g2_lib/u8g2_d_setup.c **** void u8g2_Setup_ssd1306_i2c_128x64_alt0_1(u8g2_t *u8g2, const u8g2_cb_t *rotation, u8x8_msg_cb byte
 261:u8g2_lib/u8g2_d_setup.c **** {
 2203              		.loc 1 261 1 is_stmt 1 view -0
 2204              		.cfi_startproc
 2205              		@ args = 0, pretend = 0, frame = 8
 2206              		@ frame_needed = 0, uses_anonymous_args = 0
 2207              		.loc 1 261 1 is_stmt 0 view .LVU407
 2208 0000 30B5     		push	{r4, r5, lr}
 2209              	.LCFI87:
 2210              		.cfi_def_cfa_offset 12
 2211              		.cfi_offset 4, -12
 2212              		.cfi_offset 5, -8
 2213              		.cfi_offset 14, -4
 2214 0002 85B0     		sub	sp, sp, #20
 2215              	.LCFI88:
 2216              		.cfi_def_cfa_offset 32
 2217 0004 0446     		mov	r4, r0
 2218 0006 0D46     		mov	r5, r1
 262:u8g2_lib/u8g2_d_setup.c ****   uint8_t tile_buf_height;
 2219              		.loc 1 262 3 is_stmt 1 view .LVU408
 263:u8g2_lib/u8g2_d_setup.c ****   uint8_t *buf;
 2220              		.loc 1 263 3 view .LVU409
 264:u8g2_lib/u8g2_d_setup.c ****   u8g2_SetupDisplay(u8g2, u8x8_d_ssd1306_128x64_alt0, u8x8_cad_ssd13xx_fast_i2c, byte_cb, gpio_and_
 2221              		.loc 1 264 3 view .LVU410
 2222 0008 0093     		str	r3, [sp]
 2223 000a 1346     		mov	r3, r2
 2224              	.LVL291:
 2225              		.loc 1 264 3 is_stmt 0 view .LVU411
 2226 000c 084A     		ldr	r2, .L119
 2227              	.LVL292:
 2228              		.loc 1 264 3 view .LVU412
 2229 000e 0949     		ldr	r1, .L119+4
 2230              	.LVL293:
 2231              		.loc 1 264 3 view .LVU413
 2232 0010 FFF7FEFF 		bl	u8x8_Setup
 2233              	.LVL294:
 265:u8g2_lib/u8g2_d_setup.c ****   buf = u8g2_m_16_8_1(&tile_buf_height);
 2234              		.loc 1 265 3 is_stmt 1 view .LVU414
 2235              		.loc 1 265 9 is_stmt 0 view .LVU415
 2236 0014 0DF10F00 		add	r0, sp, #15
 2237 0018 FFF7FEFF 		bl	u8g2_m_16_8_1
 2238              	.LVL295:
 2239 001c 0146     		mov	r1, r0
 2240              	.LVL296:
 266:u8g2_lib/u8g2_d_setup.c ****   u8g2_SetupBuffer(u8g2, buf, tile_buf_height, u8g2_ll_hvline_vertical_top_lsb, rotation);
 2241              		.loc 1 266 3 is_stmt 1 view .LVU416
 2242 001e 0095     		str	r5, [sp]
 2243 0020 054B     		ldr	r3, .L119+8
 2244 0022 9DF80F20 		ldrb	r2, [sp, #15]	@ zero_extendqisi2
ARM GAS  C:\Users\GKQ\AppData\Local\Temp\ccROqQZ7.s 			page 44


 2245 0026 2046     		mov	r0, r4
 2246              	.LVL297:
 2247              		.loc 1 266 3 is_stmt 0 view .LVU417
 2248 0028 FFF7FEFF 		bl	u8g2_SetupBuffer
 2249              	.LVL298:
 267:u8g2_lib/u8g2_d_setup.c **** }
 2250              		.loc 1 267 1 view .LVU418
 2251 002c 05B0     		add	sp, sp, #20
 2252              	.LCFI89:
 2253              		.cfi_def_cfa_offset 12
 2254              		@ sp needed
 2255 002e 30BD     		pop	{r4, r5, pc}
 2256              	.LVL299:
 2257              	.L120:
 2258              		.loc 1 267 1 view .LVU419
 2259              		.align	2
 2260              	.L119:
 2261 0030 00000000 		.word	u8x8_cad_ssd13xx_fast_i2c
 2262 0034 00000000 		.word	u8x8_d_ssd1306_128x64_alt0
 2263 0038 00000000 		.word	u8g2_ll_hvline_vertical_top_lsb
 2264              		.cfi_endproc
 2265              	.LFE29:
 2267              		.section	.text.u8g2_Setup_ssd1306_i2c_128x64_noname_2,"ax",%progbits
 2268              		.align	1
 2269              		.global	u8g2_Setup_ssd1306_i2c_128x64_noname_2
 2270              		.syntax unified
 2271              		.thumb
 2272              		.thumb_func
 2273              		.fpu softvfp
 2275              	u8g2_Setup_ssd1306_i2c_128x64_noname_2:
 2276              	.LVL300:
 2277              	.LFB30:
 268:u8g2_lib/u8g2_d_setup.c **** /* ssd1306 2 */
 269:u8g2_lib/u8g2_d_setup.c **** void u8g2_Setup_ssd1306_i2c_128x64_noname_2(u8g2_t *u8g2, const u8g2_cb_t *rotation, u8x8_msg_cb by
 270:u8g2_lib/u8g2_d_setup.c **** {
 2278              		.loc 1 270 1 is_stmt 1 view -0
 2279              		.cfi_startproc
 2280              		@ args = 0, pretend = 0, frame = 8
 2281              		@ frame_needed = 0, uses_anonymous_args = 0
 2282              		.loc 1 270 1 is_stmt 0 view .LVU421
 2283 0000 30B5     		push	{r4, r5, lr}
 2284              	.LCFI90:
 2285              		.cfi_def_cfa_offset 12
 2286              		.cfi_offset 4, -12
 2287              		.cfi_offset 5, -8
 2288              		.cfi_offset 14, -4
 2289 0002 85B0     		sub	sp, sp, #20
 2290              	.LCFI91:
 2291              		.cfi_def_cfa_offset 32
 2292 0004 0446     		mov	r4, r0
 2293 0006 0D46     		mov	r5, r1
 271:u8g2_lib/u8g2_d_setup.c ****   uint8_t tile_buf_height;
 2294              		.loc 1 271 3 is_stmt 1 view .LVU422
 272:u8g2_lib/u8g2_d_setup.c ****   uint8_t *buf;
 2295              		.loc 1 272 3 view .LVU423
 273:u8g2_lib/u8g2_d_setup.c ****   u8g2_SetupDisplay(u8g2, u8x8_d_ssd1306_128x64_noname, u8x8_cad_ssd13xx_fast_i2c, byte_cb, gpio_an
 2296              		.loc 1 273 3 view .LVU424
ARM GAS  C:\Users\GKQ\AppData\Local\Temp\ccROqQZ7.s 			page 45


 2297 0008 0093     		str	r3, [sp]
 2298 000a 1346     		mov	r3, r2
 2299              	.LVL301:
 2300              		.loc 1 273 3 is_stmt 0 view .LVU425
 2301 000c 084A     		ldr	r2, .L123
 2302              	.LVL302:
 2303              		.loc 1 273 3 view .LVU426
 2304 000e 0949     		ldr	r1, .L123+4
 2305              	.LVL303:
 2306              		.loc 1 273 3 view .LVU427
 2307 0010 FFF7FEFF 		bl	u8x8_Setup
 2308              	.LVL304:
 274:u8g2_lib/u8g2_d_setup.c ****   buf = u8g2_m_16_8_2(&tile_buf_height);
 2309              		.loc 1 274 3 is_stmt 1 view .LVU428
 2310              		.loc 1 274 9 is_stmt 0 view .LVU429
 2311 0014 0DF10F00 		add	r0, sp, #15
 2312 0018 FFF7FEFF 		bl	u8g2_m_16_8_2
 2313              	.LVL305:
 2314 001c 0146     		mov	r1, r0
 2315              	.LVL306:
 275:u8g2_lib/u8g2_d_setup.c ****   u8g2_SetupBuffer(u8g2, buf, tile_buf_height, u8g2_ll_hvline_vertical_top_lsb, rotation);
 2316              		.loc 1 275 3 is_stmt 1 view .LVU430
 2317 001e 0095     		str	r5, [sp]
 2318 0020 054B     		ldr	r3, .L123+8
 2319 0022 9DF80F20 		ldrb	r2, [sp, #15]	@ zero_extendqisi2
 2320 0026 2046     		mov	r0, r4
 2321              	.LVL307:
 2322              		.loc 1 275 3 is_stmt 0 view .LVU431
 2323 0028 FFF7FEFF 		bl	u8g2_SetupBuffer
 2324              	.LVL308:
 276:u8g2_lib/u8g2_d_setup.c **** }
 2325              		.loc 1 276 1 view .LVU432
 2326 002c 05B0     		add	sp, sp, #20
 2327              	.LCFI92:
 2328              		.cfi_def_cfa_offset 12
 2329              		@ sp needed
 2330 002e 30BD     		pop	{r4, r5, pc}
 2331              	.LVL309:
 2332              	.L124:
 2333              		.loc 1 276 1 view .LVU433
 2334              		.align	2
 2335              	.L123:
 2336 0030 00000000 		.word	u8x8_cad_ssd13xx_fast_i2c
 2337 0034 00000000 		.word	u8x8_d_ssd1306_128x64_noname
 2338 0038 00000000 		.word	u8g2_ll_hvline_vertical_top_lsb
 2339              		.cfi_endproc
 2340              	.LFE30:
 2342              		.section	.text.u8g2_Setup_ssd1306_i2c_128x64_vcomh0_2,"ax",%progbits
 2343              		.align	1
 2344              		.global	u8g2_Setup_ssd1306_i2c_128x64_vcomh0_2
 2345              		.syntax unified
 2346              		.thumb
 2347              		.thumb_func
 2348              		.fpu softvfp
 2350              	u8g2_Setup_ssd1306_i2c_128x64_vcomh0_2:
 2351              	.LVL310:
 2352              	.LFB31:
ARM GAS  C:\Users\GKQ\AppData\Local\Temp\ccROqQZ7.s 			page 46


 277:u8g2_lib/u8g2_d_setup.c **** void u8g2_Setup_ssd1306_i2c_128x64_vcomh0_2(u8g2_t *u8g2, const u8g2_cb_t *rotation, u8x8_msg_cb by
 278:u8g2_lib/u8g2_d_setup.c **** {
 2353              		.loc 1 278 1 is_stmt 1 view -0
 2354              		.cfi_startproc
 2355              		@ args = 0, pretend = 0, frame = 8
 2356              		@ frame_needed = 0, uses_anonymous_args = 0
 2357              		.loc 1 278 1 is_stmt 0 view .LVU435
 2358 0000 30B5     		push	{r4, r5, lr}
 2359              	.LCFI93:
 2360              		.cfi_def_cfa_offset 12
 2361              		.cfi_offset 4, -12
 2362              		.cfi_offset 5, -8
 2363              		.cfi_offset 14, -4
 2364 0002 85B0     		sub	sp, sp, #20
 2365              	.LCFI94:
 2366              		.cfi_def_cfa_offset 32
 2367 0004 0446     		mov	r4, r0
 2368 0006 0D46     		mov	r5, r1
 279:u8g2_lib/u8g2_d_setup.c ****   uint8_t tile_buf_height;
 2369              		.loc 1 279 3 is_stmt 1 view .LVU436
 280:u8g2_lib/u8g2_d_setup.c ****   uint8_t *buf;
 2370              		.loc 1 280 3 view .LVU437
 281:u8g2_lib/u8g2_d_setup.c ****   u8g2_SetupDisplay(u8g2, u8x8_d_ssd1306_128x64_vcomh0, u8x8_cad_ssd13xx_fast_i2c, byte_cb, gpio_an
 2371              		.loc 1 281 3 view .LVU438
 2372 0008 0093     		str	r3, [sp]
 2373 000a 1346     		mov	r3, r2
 2374              	.LVL311:
 2375              		.loc 1 281 3 is_stmt 0 view .LVU439
 2376 000c 084A     		ldr	r2, .L127
 2377              	.LVL312:
 2378              		.loc 1 281 3 view .LVU440
 2379 000e 0949     		ldr	r1, .L127+4
 2380              	.LVL313:
 2381              		.loc 1 281 3 view .LVU441
 2382 0010 FFF7FEFF 		bl	u8x8_Setup
 2383              	.LVL314:
 282:u8g2_lib/u8g2_d_setup.c ****   buf = u8g2_m_16_8_2(&tile_buf_height);
 2384              		.loc 1 282 3 is_stmt 1 view .LVU442
 2385              		.loc 1 282 9 is_stmt 0 view .LVU443
 2386 0014 0DF10F00 		add	r0, sp, #15
 2387 0018 FFF7FEFF 		bl	u8g2_m_16_8_2
 2388              	.LVL315:
 2389 001c 0146     		mov	r1, r0
 2390              	.LVL316:
 283:u8g2_lib/u8g2_d_setup.c ****   u8g2_SetupBuffer(u8g2, buf, tile_buf_height, u8g2_ll_hvline_vertical_top_lsb, rotation);
 2391              		.loc 1 283 3 is_stmt 1 view .LVU444
 2392 001e 0095     		str	r5, [sp]
 2393 0020 054B     		ldr	r3, .L127+8
 2394 0022 9DF80F20 		ldrb	r2, [sp, #15]	@ zero_extendqisi2
 2395 0026 2046     		mov	r0, r4
 2396              	.LVL317:
 2397              		.loc 1 283 3 is_stmt 0 view .LVU445
 2398 0028 FFF7FEFF 		bl	u8g2_SetupBuffer
 2399              	.LVL318:
 284:u8g2_lib/u8g2_d_setup.c **** }
 2400              		.loc 1 284 1 view .LVU446
 2401 002c 05B0     		add	sp, sp, #20
ARM GAS  C:\Users\GKQ\AppData\Local\Temp\ccROqQZ7.s 			page 47


 2402              	.LCFI95:
 2403              		.cfi_def_cfa_offset 12
 2404              		@ sp needed
 2405 002e 30BD     		pop	{r4, r5, pc}
 2406              	.LVL319:
 2407              	.L128:
 2408              		.loc 1 284 1 view .LVU447
 2409              		.align	2
 2410              	.L127:
 2411 0030 00000000 		.word	u8x8_cad_ssd13xx_fast_i2c
 2412 0034 00000000 		.word	u8x8_d_ssd1306_128x64_vcomh0
 2413 0038 00000000 		.word	u8g2_ll_hvline_vertical_top_lsb
 2414              		.cfi_endproc
 2415              	.LFE31:
 2417              		.section	.text.u8g2_Setup_ssd1306_i2c_128x64_alt0_2,"ax",%progbits
 2418              		.align	1
 2419              		.global	u8g2_Setup_ssd1306_i2c_128x64_alt0_2
 2420              		.syntax unified
 2421              		.thumb
 2422              		.thumb_func
 2423              		.fpu softvfp
 2425              	u8g2_Setup_ssd1306_i2c_128x64_alt0_2:
 2426              	.LVL320:
 2427              	.LFB32:
 285:u8g2_lib/u8g2_d_setup.c **** void u8g2_Setup_ssd1306_i2c_128x64_alt0_2(u8g2_t *u8g2, const u8g2_cb_t *rotation, u8x8_msg_cb byte
 286:u8g2_lib/u8g2_d_setup.c **** {
 2428              		.loc 1 286 1 is_stmt 1 view -0
 2429              		.cfi_startproc
 2430              		@ args = 0, pretend = 0, frame = 8
 2431              		@ frame_needed = 0, uses_anonymous_args = 0
 2432              		.loc 1 286 1 is_stmt 0 view .LVU449
 2433 0000 30B5     		push	{r4, r5, lr}
 2434              	.LCFI96:
 2435              		.cfi_def_cfa_offset 12
 2436              		.cfi_offset 4, -12
 2437              		.cfi_offset 5, -8
 2438              		.cfi_offset 14, -4
 2439 0002 85B0     		sub	sp, sp, #20
 2440              	.LCFI97:
 2441              		.cfi_def_cfa_offset 32
 2442 0004 0446     		mov	r4, r0
 2443 0006 0D46     		mov	r5, r1
 287:u8g2_lib/u8g2_d_setup.c ****   uint8_t tile_buf_height;
 2444              		.loc 1 287 3 is_stmt 1 view .LVU450
 288:u8g2_lib/u8g2_d_setup.c ****   uint8_t *buf;
 2445              		.loc 1 288 3 view .LVU451
 289:u8g2_lib/u8g2_d_setup.c ****   u8g2_SetupDisplay(u8g2, u8x8_d_ssd1306_128x64_alt0, u8x8_cad_ssd13xx_fast_i2c, byte_cb, gpio_and_
 2446              		.loc 1 289 3 view .LVU452
 2447 0008 0093     		str	r3, [sp]
 2448 000a 1346     		mov	r3, r2
 2449              	.LVL321:
 2450              		.loc 1 289 3 is_stmt 0 view .LVU453
 2451 000c 084A     		ldr	r2, .L131
 2452              	.LVL322:
 2453              		.loc 1 289 3 view .LVU454
 2454 000e 0949     		ldr	r1, .L131+4
 2455              	.LVL323:
ARM GAS  C:\Users\GKQ\AppData\Local\Temp\ccROqQZ7.s 			page 48


 2456              		.loc 1 289 3 view .LVU455
 2457 0010 FFF7FEFF 		bl	u8x8_Setup
 2458              	.LVL324:
 290:u8g2_lib/u8g2_d_setup.c ****   buf = u8g2_m_16_8_2(&tile_buf_height);
 2459              		.loc 1 290 3 is_stmt 1 view .LVU456
 2460              		.loc 1 290 9 is_stmt 0 view .LVU457
 2461 0014 0DF10F00 		add	r0, sp, #15
 2462 0018 FFF7FEFF 		bl	u8g2_m_16_8_2
 2463              	.LVL325:
 2464 001c 0146     		mov	r1, r0
 2465              	.LVL326:
 291:u8g2_lib/u8g2_d_setup.c ****   u8g2_SetupBuffer(u8g2, buf, tile_buf_height, u8g2_ll_hvline_vertical_top_lsb, rotation);
 2466              		.loc 1 291 3 is_stmt 1 view .LVU458
 2467 001e 0095     		str	r5, [sp]
 2468 0020 054B     		ldr	r3, .L131+8
 2469 0022 9DF80F20 		ldrb	r2, [sp, #15]	@ zero_extendqisi2
 2470 0026 2046     		mov	r0, r4
 2471              	.LVL327:
 2472              		.loc 1 291 3 is_stmt 0 view .LVU459
 2473 0028 FFF7FEFF 		bl	u8g2_SetupBuffer
 2474              	.LVL328:
 292:u8g2_lib/u8g2_d_setup.c **** }
 2475              		.loc 1 292 1 view .LVU460
 2476 002c 05B0     		add	sp, sp, #20
 2477              	.LCFI98:
 2478              		.cfi_def_cfa_offset 12
 2479              		@ sp needed
 2480 002e 30BD     		pop	{r4, r5, pc}
 2481              	.LVL329:
 2482              	.L132:
 2483              		.loc 1 292 1 view .LVU461
 2484              		.align	2
 2485              	.L131:
 2486 0030 00000000 		.word	u8x8_cad_ssd13xx_fast_i2c
 2487 0034 00000000 		.word	u8x8_d_ssd1306_128x64_alt0
 2488 0038 00000000 		.word	u8g2_ll_hvline_vertical_top_lsb
 2489              		.cfi_endproc
 2490              	.LFE32:
 2492              		.section	.text.u8g2_Setup_ssd1306_i2c_128x64_noname_f,"ax",%progbits
 2493              		.align	1
 2494              		.global	u8g2_Setup_ssd1306_i2c_128x64_noname_f
 2495              		.syntax unified
 2496              		.thumb
 2497              		.thumb_func
 2498              		.fpu softvfp
 2500              	u8g2_Setup_ssd1306_i2c_128x64_noname_f:
 2501              	.LVL330:
 2502              	.LFB33:
 293:u8g2_lib/u8g2_d_setup.c **** /* ssd1306 f */
 294:u8g2_lib/u8g2_d_setup.c **** void u8g2_Setup_ssd1306_i2c_128x64_noname_f(u8g2_t *u8g2, const u8g2_cb_t *rotation, u8x8_msg_cb by
 295:u8g2_lib/u8g2_d_setup.c **** {
 2503              		.loc 1 295 1 is_stmt 1 view -0
 2504              		.cfi_startproc
 2505              		@ args = 0, pretend = 0, frame = 8
 2506              		@ frame_needed = 0, uses_anonymous_args = 0
 2507              		.loc 1 295 1 is_stmt 0 view .LVU463
 2508 0000 30B5     		push	{r4, r5, lr}
ARM GAS  C:\Users\GKQ\AppData\Local\Temp\ccROqQZ7.s 			page 49


 2509              	.LCFI99:
 2510              		.cfi_def_cfa_offset 12
 2511              		.cfi_offset 4, -12
 2512              		.cfi_offset 5, -8
 2513              		.cfi_offset 14, -4
 2514 0002 85B0     		sub	sp, sp, #20
 2515              	.LCFI100:
 2516              		.cfi_def_cfa_offset 32
 2517 0004 0446     		mov	r4, r0
 2518 0006 0D46     		mov	r5, r1
 296:u8g2_lib/u8g2_d_setup.c ****   uint8_t tile_buf_height;
 2519              		.loc 1 296 3 is_stmt 1 view .LVU464
 297:u8g2_lib/u8g2_d_setup.c ****   uint8_t *buf;
 2520              		.loc 1 297 3 view .LVU465
 298:u8g2_lib/u8g2_d_setup.c ****   u8g2_SetupDisplay(u8g2, u8x8_d_ssd1306_128x64_noname, u8x8_cad_ssd13xx_fast_i2c, byte_cb, gpio_an
 2521              		.loc 1 298 3 view .LVU466
 2522 0008 0093     		str	r3, [sp]
 2523 000a 1346     		mov	r3, r2
 2524              	.LVL331:
 2525              		.loc 1 298 3 is_stmt 0 view .LVU467
 2526 000c 084A     		ldr	r2, .L135
 2527              	.LVL332:
 2528              		.loc 1 298 3 view .LVU468
 2529 000e 0949     		ldr	r1, .L135+4
 2530              	.LVL333:
 2531              		.loc 1 298 3 view .LVU469
 2532 0010 FFF7FEFF 		bl	u8x8_Setup
 2533              	.LVL334:
 299:u8g2_lib/u8g2_d_setup.c ****   buf = u8g2_m_16_8_f(&tile_buf_height);
 2534              		.loc 1 299 3 is_stmt 1 view .LVU470
 2535              		.loc 1 299 9 is_stmt 0 view .LVU471
 2536 0014 0DF10F00 		add	r0, sp, #15
 2537 0018 FFF7FEFF 		bl	u8g2_m_16_8_f
 2538              	.LVL335:
 2539 001c 0146     		mov	r1, r0
 2540              	.LVL336:
 300:u8g2_lib/u8g2_d_setup.c ****   u8g2_SetupBuffer(u8g2, buf, tile_buf_height, u8g2_ll_hvline_vertical_top_lsb, rotation);
 2541              		.loc 1 300 3 is_stmt 1 view .LVU472
 2542 001e 0095     		str	r5, [sp]
 2543 0020 054B     		ldr	r3, .L135+8
 2544 0022 9DF80F20 		ldrb	r2, [sp, #15]	@ zero_extendqisi2
 2545 0026 2046     		mov	r0, r4
 2546              	.LVL337:
 2547              		.loc 1 300 3 is_stmt 0 view .LVU473
 2548 0028 FFF7FEFF 		bl	u8g2_SetupBuffer
 2549              	.LVL338:
 301:u8g2_lib/u8g2_d_setup.c **** }
 2550              		.loc 1 301 1 view .LVU474
 2551 002c 05B0     		add	sp, sp, #20
 2552              	.LCFI101:
 2553              		.cfi_def_cfa_offset 12
 2554              		@ sp needed
 2555 002e 30BD     		pop	{r4, r5, pc}
 2556              	.LVL339:
 2557              	.L136:
 2558              		.loc 1 301 1 view .LVU475
 2559              		.align	2
ARM GAS  C:\Users\GKQ\AppData\Local\Temp\ccROqQZ7.s 			page 50


 2560              	.L135:
 2561 0030 00000000 		.word	u8x8_cad_ssd13xx_fast_i2c
 2562 0034 00000000 		.word	u8x8_d_ssd1306_128x64_noname
 2563 0038 00000000 		.word	u8g2_ll_hvline_vertical_top_lsb
 2564              		.cfi_endproc
 2565              	.LFE33:
 2567              		.section	.text.u8g2_Setup_ssd1306_i2c_128x64_vcomh0_f,"ax",%progbits
 2568              		.align	1
 2569              		.global	u8g2_Setup_ssd1306_i2c_128x64_vcomh0_f
 2570              		.syntax unified
 2571              		.thumb
 2572              		.thumb_func
 2573              		.fpu softvfp
 2575              	u8g2_Setup_ssd1306_i2c_128x64_vcomh0_f:
 2576              	.LVL340:
 2577              	.LFB34:
 302:u8g2_lib/u8g2_d_setup.c **** void u8g2_Setup_ssd1306_i2c_128x64_vcomh0_f(u8g2_t *u8g2, const u8g2_cb_t *rotation, u8x8_msg_cb by
 303:u8g2_lib/u8g2_d_setup.c **** {
 2578              		.loc 1 303 1 is_stmt 1 view -0
 2579              		.cfi_startproc
 2580              		@ args = 0, pretend = 0, frame = 8
 2581              		@ frame_needed = 0, uses_anonymous_args = 0
 2582              		.loc 1 303 1 is_stmt 0 view .LVU477
 2583 0000 30B5     		push	{r4, r5, lr}
 2584              	.LCFI102:
 2585              		.cfi_def_cfa_offset 12
 2586              		.cfi_offset 4, -12
 2587              		.cfi_offset 5, -8
 2588              		.cfi_offset 14, -4
 2589 0002 85B0     		sub	sp, sp, #20
 2590              	.LCFI103:
 2591              		.cfi_def_cfa_offset 32
 2592 0004 0446     		mov	r4, r0
 2593 0006 0D46     		mov	r5, r1
 304:u8g2_lib/u8g2_d_setup.c ****   uint8_t tile_buf_height;
 2594              		.loc 1 304 3 is_stmt 1 view .LVU478
 305:u8g2_lib/u8g2_d_setup.c ****   uint8_t *buf;
 2595              		.loc 1 305 3 view .LVU479
 306:u8g2_lib/u8g2_d_setup.c ****   u8g2_SetupDisplay(u8g2, u8x8_d_ssd1306_128x64_vcomh0, u8x8_cad_ssd13xx_fast_i2c, byte_cb, gpio_an
 2596              		.loc 1 306 3 view .LVU480
 2597 0008 0093     		str	r3, [sp]
 2598 000a 1346     		mov	r3, r2
 2599              	.LVL341:
 2600              		.loc 1 306 3 is_stmt 0 view .LVU481
 2601 000c 084A     		ldr	r2, .L139
 2602              	.LVL342:
 2603              		.loc 1 306 3 view .LVU482
 2604 000e 0949     		ldr	r1, .L139+4
 2605              	.LVL343:
 2606              		.loc 1 306 3 view .LVU483
 2607 0010 FFF7FEFF 		bl	u8x8_Setup
 2608              	.LVL344:
 307:u8g2_lib/u8g2_d_setup.c ****   buf = u8g2_m_16_8_f(&tile_buf_height);
 2609              		.loc 1 307 3 is_stmt 1 view .LVU484
 2610              		.loc 1 307 9 is_stmt 0 view .LVU485
 2611 0014 0DF10F00 		add	r0, sp, #15
 2612 0018 FFF7FEFF 		bl	u8g2_m_16_8_f
ARM GAS  C:\Users\GKQ\AppData\Local\Temp\ccROqQZ7.s 			page 51


 2613              	.LVL345:
 2614 001c 0146     		mov	r1, r0
 2615              	.LVL346:
 308:u8g2_lib/u8g2_d_setup.c ****   u8g2_SetupBuffer(u8g2, buf, tile_buf_height, u8g2_ll_hvline_vertical_top_lsb, rotation);
 2616              		.loc 1 308 3 is_stmt 1 view .LVU486
 2617 001e 0095     		str	r5, [sp]
 2618 0020 054B     		ldr	r3, .L139+8
 2619 0022 9DF80F20 		ldrb	r2, [sp, #15]	@ zero_extendqisi2
 2620 0026 2046     		mov	r0, r4
 2621              	.LVL347:
 2622              		.loc 1 308 3 is_stmt 0 view .LVU487
 2623 0028 FFF7FEFF 		bl	u8g2_SetupBuffer
 2624              	.LVL348:
 309:u8g2_lib/u8g2_d_setup.c **** }
 2625              		.loc 1 309 1 view .LVU488
 2626 002c 05B0     		add	sp, sp, #20
 2627              	.LCFI104:
 2628              		.cfi_def_cfa_offset 12
 2629              		@ sp needed
 2630 002e 30BD     		pop	{r4, r5, pc}
 2631              	.LVL349:
 2632              	.L140:
 2633              		.loc 1 309 1 view .LVU489
 2634              		.align	2
 2635              	.L139:
 2636 0030 00000000 		.word	u8x8_cad_ssd13xx_fast_i2c
 2637 0034 00000000 		.word	u8x8_d_ssd1306_128x64_vcomh0
 2638 0038 00000000 		.word	u8g2_ll_hvline_vertical_top_lsb
 2639              		.cfi_endproc
 2640              	.LFE34:
 2642              		.section	.text.u8g2_Setup_ssd1306_i2c_128x64_alt0_f,"ax",%progbits
 2643              		.align	1
 2644              		.global	u8g2_Setup_ssd1306_i2c_128x64_alt0_f
 2645              		.syntax unified
 2646              		.thumb
 2647              		.thumb_func
 2648              		.fpu softvfp
 2650              	u8g2_Setup_ssd1306_i2c_128x64_alt0_f:
 2651              	.LVL350:
 2652              	.LFB35:
 310:u8g2_lib/u8g2_d_setup.c **** void u8g2_Setup_ssd1306_i2c_128x64_alt0_f(u8g2_t *u8g2, const u8g2_cb_t *rotation, u8x8_msg_cb byte
 311:u8g2_lib/u8g2_d_setup.c **** {
 2653              		.loc 1 311 1 is_stmt 1 view -0
 2654              		.cfi_startproc
 2655              		@ args = 0, pretend = 0, frame = 8
 2656              		@ frame_needed = 0, uses_anonymous_args = 0
 2657              		.loc 1 311 1 is_stmt 0 view .LVU491
 2658 0000 30B5     		push	{r4, r5, lr}
 2659              	.LCFI105:
 2660              		.cfi_def_cfa_offset 12
 2661              		.cfi_offset 4, -12
 2662              		.cfi_offset 5, -8
 2663              		.cfi_offset 14, -4
 2664 0002 85B0     		sub	sp, sp, #20
 2665              	.LCFI106:
 2666              		.cfi_def_cfa_offset 32
 2667 0004 0446     		mov	r4, r0
ARM GAS  C:\Users\GKQ\AppData\Local\Temp\ccROqQZ7.s 			page 52


 2668 0006 0D46     		mov	r5, r1
 312:u8g2_lib/u8g2_d_setup.c ****   uint8_t tile_buf_height;
 2669              		.loc 1 312 3 is_stmt 1 view .LVU492
 313:u8g2_lib/u8g2_d_setup.c ****   uint8_t *buf;
 2670              		.loc 1 313 3 view .LVU493
 314:u8g2_lib/u8g2_d_setup.c ****   u8g2_SetupDisplay(u8g2, u8x8_d_ssd1306_128x64_alt0, u8x8_cad_ssd13xx_fast_i2c, byte_cb, gpio_and_
 2671              		.loc 1 314 3 view .LVU494
 2672 0008 0093     		str	r3, [sp]
 2673 000a 1346     		mov	r3, r2
 2674              	.LVL351:
 2675              		.loc 1 314 3 is_stmt 0 view .LVU495
 2676 000c 084A     		ldr	r2, .L143
 2677              	.LVL352:
 2678              		.loc 1 314 3 view .LVU496
 2679 000e 0949     		ldr	r1, .L143+4
 2680              	.LVL353:
 2681              		.loc 1 314 3 view .LVU497
 2682 0010 FFF7FEFF 		bl	u8x8_Setup
 2683              	.LVL354:
 315:u8g2_lib/u8g2_d_setup.c ****   buf = u8g2_m_16_8_f(&tile_buf_height);
 2684              		.loc 1 315 3 is_stmt 1 view .LVU498
 2685              		.loc 1 315 9 is_stmt 0 view .LVU499
 2686 0014 0DF10F00 		add	r0, sp, #15
 2687 0018 FFF7FEFF 		bl	u8g2_m_16_8_f
 2688              	.LVL355:
 2689 001c 0146     		mov	r1, r0
 2690              	.LVL356:
 316:u8g2_lib/u8g2_d_setup.c ****   u8g2_SetupBuffer(u8g2, buf, tile_buf_height, u8g2_ll_hvline_vertical_top_lsb, rotation);
 2691              		.loc 1 316 3 is_stmt 1 view .LVU500
 2692 001e 0095     		str	r5, [sp]
 2693 0020 054B     		ldr	r3, .L143+8
 2694 0022 9DF80F20 		ldrb	r2, [sp, #15]	@ zero_extendqisi2
 2695 0026 2046     		mov	r0, r4
 2696              	.LVL357:
 2697              		.loc 1 316 3 is_stmt 0 view .LVU501
 2698 0028 FFF7FEFF 		bl	u8g2_SetupBuffer
 2699              	.LVL358:
 317:u8g2_lib/u8g2_d_setup.c **** }
 2700              		.loc 1 317 1 view .LVU502
 2701 002c 05B0     		add	sp, sp, #20
 2702              	.LCFI107:
 2703              		.cfi_def_cfa_offset 12
 2704              		@ sp needed
 2705 002e 30BD     		pop	{r4, r5, pc}
 2706              	.LVL359:
 2707              	.L144:
 2708              		.loc 1 317 1 view .LVU503
 2709              		.align	2
 2710              	.L143:
 2711 0030 00000000 		.word	u8x8_cad_ssd13xx_fast_i2c
 2712 0034 00000000 		.word	u8x8_d_ssd1306_128x64_alt0
 2713 0038 00000000 		.word	u8g2_ll_hvline_vertical_top_lsb
 2714              		.cfi_endproc
 2715              	.LFE35:
 2717              		.section	.text.u8g2_Setup_ssd1306_72x40_er_1,"ax",%progbits
 2718              		.align	1
 2719              		.global	u8g2_Setup_ssd1306_72x40_er_1
ARM GAS  C:\Users\GKQ\AppData\Local\Temp\ccROqQZ7.s 			page 53


 2720              		.syntax unified
 2721              		.thumb
 2722              		.thumb_func
 2723              		.fpu softvfp
 2725              	u8g2_Setup_ssd1306_72x40_er_1:
 2726              	.LVL360:
 2727              	.LFB36:
 318:u8g2_lib/u8g2_d_setup.c **** /* ssd1306 */
 319:u8g2_lib/u8g2_d_setup.c **** /* ssd1306 1 */
 320:u8g2_lib/u8g2_d_setup.c **** void u8g2_Setup_ssd1306_72x40_er_1(u8g2_t *u8g2, const u8g2_cb_t *rotation, u8x8_msg_cb byte_cb, u8
 321:u8g2_lib/u8g2_d_setup.c **** {
 2728              		.loc 1 321 1 is_stmt 1 view -0
 2729              		.cfi_startproc
 2730              		@ args = 0, pretend = 0, frame = 8
 2731              		@ frame_needed = 0, uses_anonymous_args = 0
 2732              		.loc 1 321 1 is_stmt 0 view .LVU505
 2733 0000 30B5     		push	{r4, r5, lr}
 2734              	.LCFI108:
 2735              		.cfi_def_cfa_offset 12
 2736              		.cfi_offset 4, -12
 2737              		.cfi_offset 5, -8
 2738              		.cfi_offset 14, -4
 2739 0002 85B0     		sub	sp, sp, #20
 2740              	.LCFI109:
 2741              		.cfi_def_cfa_offset 32
 2742 0004 0446     		mov	r4, r0
 2743 0006 0D46     		mov	r5, r1
 322:u8g2_lib/u8g2_d_setup.c ****   uint8_t tile_buf_height;
 2744              		.loc 1 322 3 is_stmt 1 view .LVU506
 323:u8g2_lib/u8g2_d_setup.c ****   uint8_t *buf;
 2745              		.loc 1 323 3 view .LVU507
 324:u8g2_lib/u8g2_d_setup.c ****   u8g2_SetupDisplay(u8g2, u8x8_d_ssd1306_72x40_er, u8x8_cad_001, byte_cb, gpio_and_delay_cb);
 2746              		.loc 1 324 3 view .LVU508
 2747 0008 0093     		str	r3, [sp]
 2748 000a 1346     		mov	r3, r2
 2749              	.LVL361:
 2750              		.loc 1 324 3 is_stmt 0 view .LVU509
 2751 000c 084A     		ldr	r2, .L147
 2752              	.LVL362:
 2753              		.loc 1 324 3 view .LVU510
 2754 000e 0949     		ldr	r1, .L147+4
 2755              	.LVL363:
 2756              		.loc 1 324 3 view .LVU511
 2757 0010 FFF7FEFF 		bl	u8x8_Setup
 2758              	.LVL364:
 325:u8g2_lib/u8g2_d_setup.c ****   buf = u8g2_m_9_5_1(&tile_buf_height);
 2759              		.loc 1 325 3 is_stmt 1 view .LVU512
 2760              		.loc 1 325 9 is_stmt 0 view .LVU513
 2761 0014 0DF10F00 		add	r0, sp, #15
 2762 0018 FFF7FEFF 		bl	u8g2_m_9_5_1
 2763              	.LVL365:
 2764 001c 0146     		mov	r1, r0
 2765              	.LVL366:
 326:u8g2_lib/u8g2_d_setup.c ****   u8g2_SetupBuffer(u8g2, buf, tile_buf_height, u8g2_ll_hvline_vertical_top_lsb, rotation);
 2766              		.loc 1 326 3 is_stmt 1 view .LVU514
 2767 001e 0095     		str	r5, [sp]
 2768 0020 054B     		ldr	r3, .L147+8
ARM GAS  C:\Users\GKQ\AppData\Local\Temp\ccROqQZ7.s 			page 54


 2769 0022 9DF80F20 		ldrb	r2, [sp, #15]	@ zero_extendqisi2
 2770 0026 2046     		mov	r0, r4
 2771              	.LVL367:
 2772              		.loc 1 326 3 is_stmt 0 view .LVU515
 2773 0028 FFF7FEFF 		bl	u8g2_SetupBuffer
 2774              	.LVL368:
 327:u8g2_lib/u8g2_d_setup.c **** }
 2775              		.loc 1 327 1 view .LVU516
 2776 002c 05B0     		add	sp, sp, #20
 2777              	.LCFI110:
 2778              		.cfi_def_cfa_offset 12
 2779              		@ sp needed
 2780 002e 30BD     		pop	{r4, r5, pc}
 2781              	.LVL369:
 2782              	.L148:
 2783              		.loc 1 327 1 view .LVU517
 2784              		.align	2
 2785              	.L147:
 2786 0030 00000000 		.word	u8x8_cad_001
 2787 0034 00000000 		.word	u8x8_d_ssd1306_72x40_er
 2788 0038 00000000 		.word	u8g2_ll_hvline_vertical_top_lsb
 2789              		.cfi_endproc
 2790              	.LFE36:
 2792              		.section	.text.u8g2_Setup_ssd1306_72x40_er_2,"ax",%progbits
 2793              		.align	1
 2794              		.global	u8g2_Setup_ssd1306_72x40_er_2
 2795              		.syntax unified
 2796              		.thumb
 2797              		.thumb_func
 2798              		.fpu softvfp
 2800              	u8g2_Setup_ssd1306_72x40_er_2:
 2801              	.LVL370:
 2802              	.LFB37:
 328:u8g2_lib/u8g2_d_setup.c **** /* ssd1306 2 */
 329:u8g2_lib/u8g2_d_setup.c **** void u8g2_Setup_ssd1306_72x40_er_2(u8g2_t *u8g2, const u8g2_cb_t *rotation, u8x8_msg_cb byte_cb, u8
 330:u8g2_lib/u8g2_d_setup.c **** {
 2803              		.loc 1 330 1 is_stmt 1 view -0
 2804              		.cfi_startproc
 2805              		@ args = 0, pretend = 0, frame = 8
 2806              		@ frame_needed = 0, uses_anonymous_args = 0
 2807              		.loc 1 330 1 is_stmt 0 view .LVU519
 2808 0000 30B5     		push	{r4, r5, lr}
 2809              	.LCFI111:
 2810              		.cfi_def_cfa_offset 12
 2811              		.cfi_offset 4, -12
 2812              		.cfi_offset 5, -8
 2813              		.cfi_offset 14, -4
 2814 0002 85B0     		sub	sp, sp, #20
 2815              	.LCFI112:
 2816              		.cfi_def_cfa_offset 32
 2817 0004 0446     		mov	r4, r0
 2818 0006 0D46     		mov	r5, r1
 331:u8g2_lib/u8g2_d_setup.c ****   uint8_t tile_buf_height;
 2819              		.loc 1 331 3 is_stmt 1 view .LVU520
 332:u8g2_lib/u8g2_d_setup.c ****   uint8_t *buf;
 2820              		.loc 1 332 3 view .LVU521
 333:u8g2_lib/u8g2_d_setup.c ****   u8g2_SetupDisplay(u8g2, u8x8_d_ssd1306_72x40_er, u8x8_cad_001, byte_cb, gpio_and_delay_cb);
ARM GAS  C:\Users\GKQ\AppData\Local\Temp\ccROqQZ7.s 			page 55


 2821              		.loc 1 333 3 view .LVU522
 2822 0008 0093     		str	r3, [sp]
 2823 000a 1346     		mov	r3, r2
 2824              	.LVL371:
 2825              		.loc 1 333 3 is_stmt 0 view .LVU523
 2826 000c 084A     		ldr	r2, .L151
 2827              	.LVL372:
 2828              		.loc 1 333 3 view .LVU524
 2829 000e 0949     		ldr	r1, .L151+4
 2830              	.LVL373:
 2831              		.loc 1 333 3 view .LVU525
 2832 0010 FFF7FEFF 		bl	u8x8_Setup
 2833              	.LVL374:
 334:u8g2_lib/u8g2_d_setup.c ****   buf = u8g2_m_9_5_2(&tile_buf_height);
 2834              		.loc 1 334 3 is_stmt 1 view .LVU526
 2835              		.loc 1 334 9 is_stmt 0 view .LVU527
 2836 0014 0DF10F00 		add	r0, sp, #15
 2837 0018 FFF7FEFF 		bl	u8g2_m_9_5_2
 2838              	.LVL375:
 2839 001c 0146     		mov	r1, r0
 2840              	.LVL376:
 335:u8g2_lib/u8g2_d_setup.c ****   u8g2_SetupBuffer(u8g2, buf, tile_buf_height, u8g2_ll_hvline_vertical_top_lsb, rotation);
 2841              		.loc 1 335 3 is_stmt 1 view .LVU528
 2842 001e 0095     		str	r5, [sp]
 2843 0020 054B     		ldr	r3, .L151+8
 2844 0022 9DF80F20 		ldrb	r2, [sp, #15]	@ zero_extendqisi2
 2845 0026 2046     		mov	r0, r4
 2846              	.LVL377:
 2847              		.loc 1 335 3 is_stmt 0 view .LVU529
 2848 0028 FFF7FEFF 		bl	u8g2_SetupBuffer
 2849              	.LVL378:
 336:u8g2_lib/u8g2_d_setup.c **** }
 2850              		.loc 1 336 1 view .LVU530
 2851 002c 05B0     		add	sp, sp, #20
 2852              	.LCFI113:
 2853              		.cfi_def_cfa_offset 12
 2854              		@ sp needed
 2855 002e 30BD     		pop	{r4, r5, pc}
 2856              	.LVL379:
 2857              	.L152:
 2858              		.loc 1 336 1 view .LVU531
 2859              		.align	2
 2860              	.L151:
 2861 0030 00000000 		.word	u8x8_cad_001
 2862 0034 00000000 		.word	u8x8_d_ssd1306_72x40_er
 2863 0038 00000000 		.word	u8g2_ll_hvline_vertical_top_lsb
 2864              		.cfi_endproc
 2865              	.LFE37:
 2867              		.section	.text.u8g2_Setup_ssd1306_72x40_er_f,"ax",%progbits
 2868              		.align	1
 2869              		.global	u8g2_Setup_ssd1306_72x40_er_f
 2870              		.syntax unified
 2871              		.thumb
 2872              		.thumb_func
 2873              		.fpu softvfp
 2875              	u8g2_Setup_ssd1306_72x40_er_f:
 2876              	.LVL380:
ARM GAS  C:\Users\GKQ\AppData\Local\Temp\ccROqQZ7.s 			page 56


 2877              	.LFB38:
 337:u8g2_lib/u8g2_d_setup.c **** /* ssd1306 f */
 338:u8g2_lib/u8g2_d_setup.c **** void u8g2_Setup_ssd1306_72x40_er_f(u8g2_t *u8g2, const u8g2_cb_t *rotation, u8x8_msg_cb byte_cb, u8
 339:u8g2_lib/u8g2_d_setup.c **** {
 2878              		.loc 1 339 1 is_stmt 1 view -0
 2879              		.cfi_startproc
 2880              		@ args = 0, pretend = 0, frame = 8
 2881              		@ frame_needed = 0, uses_anonymous_args = 0
 2882              		.loc 1 339 1 is_stmt 0 view .LVU533
 2883 0000 30B5     		push	{r4, r5, lr}
 2884              	.LCFI114:
 2885              		.cfi_def_cfa_offset 12
 2886              		.cfi_offset 4, -12
 2887              		.cfi_offset 5, -8
 2888              		.cfi_offset 14, -4
 2889 0002 85B0     		sub	sp, sp, #20
 2890              	.LCFI115:
 2891              		.cfi_def_cfa_offset 32
 2892 0004 0446     		mov	r4, r0
 2893 0006 0D46     		mov	r5, r1
 340:u8g2_lib/u8g2_d_setup.c ****   uint8_t tile_buf_height;
 2894              		.loc 1 340 3 is_stmt 1 view .LVU534
 341:u8g2_lib/u8g2_d_setup.c ****   uint8_t *buf;
 2895              		.loc 1 341 3 view .LVU535
 342:u8g2_lib/u8g2_d_setup.c ****   u8g2_SetupDisplay(u8g2, u8x8_d_ssd1306_72x40_er, u8x8_cad_001, byte_cb, gpio_and_delay_cb);
 2896              		.loc 1 342 3 view .LVU536
 2897 0008 0093     		str	r3, [sp]
 2898 000a 1346     		mov	r3, r2
 2899              	.LVL381:
 2900              		.loc 1 342 3 is_stmt 0 view .LVU537
 2901 000c 084A     		ldr	r2, .L155
 2902              	.LVL382:
 2903              		.loc 1 342 3 view .LVU538
 2904 000e 0949     		ldr	r1, .L155+4
 2905              	.LVL383:
 2906              		.loc 1 342 3 view .LVU539
 2907 0010 FFF7FEFF 		bl	u8x8_Setup
 2908              	.LVL384:
 343:u8g2_lib/u8g2_d_setup.c ****   buf = u8g2_m_9_5_f(&tile_buf_height);
 2909              		.loc 1 343 3 is_stmt 1 view .LVU540
 2910              		.loc 1 343 9 is_stmt 0 view .LVU541
 2911 0014 0DF10F00 		add	r0, sp, #15
 2912 0018 FFF7FEFF 		bl	u8g2_m_9_5_f
 2913              	.LVL385:
 2914 001c 0146     		mov	r1, r0
 2915              	.LVL386:
 344:u8g2_lib/u8g2_d_setup.c ****   u8g2_SetupBuffer(u8g2, buf, tile_buf_height, u8g2_ll_hvline_vertical_top_lsb, rotation);
 2916              		.loc 1 344 3 is_stmt 1 view .LVU542
 2917 001e 0095     		str	r5, [sp]
 2918 0020 054B     		ldr	r3, .L155+8
 2919 0022 9DF80F20 		ldrb	r2, [sp, #15]	@ zero_extendqisi2
 2920 0026 2046     		mov	r0, r4
 2921              	.LVL387:
 2922              		.loc 1 344 3 is_stmt 0 view .LVU543
 2923 0028 FFF7FEFF 		bl	u8g2_SetupBuffer
 2924              	.LVL388:
 345:u8g2_lib/u8g2_d_setup.c **** }
ARM GAS  C:\Users\GKQ\AppData\Local\Temp\ccROqQZ7.s 			page 57


 2925              		.loc 1 345 1 view .LVU544
 2926 002c 05B0     		add	sp, sp, #20
 2927              	.LCFI116:
 2928              		.cfi_def_cfa_offset 12
 2929              		@ sp needed
 2930 002e 30BD     		pop	{r4, r5, pc}
 2931              	.LVL389:
 2932              	.L156:
 2933              		.loc 1 345 1 view .LVU545
 2934              		.align	2
 2935              	.L155:
 2936 0030 00000000 		.word	u8x8_cad_001
 2937 0034 00000000 		.word	u8x8_d_ssd1306_72x40_er
 2938 0038 00000000 		.word	u8g2_ll_hvline_vertical_top_lsb
 2939              		.cfi_endproc
 2940              	.LFE38:
 2942              		.section	.text.u8g2_Setup_ssd1306_i2c_72x40_er_1,"ax",%progbits
 2943              		.align	1
 2944              		.global	u8g2_Setup_ssd1306_i2c_72x40_er_1
 2945              		.syntax unified
 2946              		.thumb
 2947              		.thumb_func
 2948              		.fpu softvfp
 2950              	u8g2_Setup_ssd1306_i2c_72x40_er_1:
 2951              	.LVL390:
 2952              	.LFB39:
 346:u8g2_lib/u8g2_d_setup.c **** /* ssd1306 */
 347:u8g2_lib/u8g2_d_setup.c **** /* ssd1306 1 */
 348:u8g2_lib/u8g2_d_setup.c **** void u8g2_Setup_ssd1306_i2c_72x40_er_1(u8g2_t *u8g2, const u8g2_cb_t *rotation, u8x8_msg_cb byte_cb
 349:u8g2_lib/u8g2_d_setup.c **** {
 2953              		.loc 1 349 1 is_stmt 1 view -0
 2954              		.cfi_startproc
 2955              		@ args = 0, pretend = 0, frame = 8
 2956              		@ frame_needed = 0, uses_anonymous_args = 0
 2957              		.loc 1 349 1 is_stmt 0 view .LVU547
 2958 0000 30B5     		push	{r4, r5, lr}
 2959              	.LCFI117:
 2960              		.cfi_def_cfa_offset 12
 2961              		.cfi_offset 4, -12
 2962              		.cfi_offset 5, -8
 2963              		.cfi_offset 14, -4
 2964 0002 85B0     		sub	sp, sp, #20
 2965              	.LCFI118:
 2966              		.cfi_def_cfa_offset 32
 2967 0004 0446     		mov	r4, r0
 2968 0006 0D46     		mov	r5, r1
 350:u8g2_lib/u8g2_d_setup.c ****   uint8_t tile_buf_height;
 2969              		.loc 1 350 3 is_stmt 1 view .LVU548
 351:u8g2_lib/u8g2_d_setup.c ****   uint8_t *buf;
 2970              		.loc 1 351 3 view .LVU549
 352:u8g2_lib/u8g2_d_setup.c ****   u8g2_SetupDisplay(u8g2, u8x8_d_ssd1306_72x40_er, u8x8_cad_ssd13xx_fast_i2c, byte_cb, gpio_and_del
 2971              		.loc 1 352 3 view .LVU550
 2972 0008 0093     		str	r3, [sp]
 2973 000a 1346     		mov	r3, r2
 2974              	.LVL391:
 2975              		.loc 1 352 3 is_stmt 0 view .LVU551
 2976 000c 084A     		ldr	r2, .L159
ARM GAS  C:\Users\GKQ\AppData\Local\Temp\ccROqQZ7.s 			page 58


 2977              	.LVL392:
 2978              		.loc 1 352 3 view .LVU552
 2979 000e 0949     		ldr	r1, .L159+4
 2980              	.LVL393:
 2981              		.loc 1 352 3 view .LVU553
 2982 0010 FFF7FEFF 		bl	u8x8_Setup
 2983              	.LVL394:
 353:u8g2_lib/u8g2_d_setup.c ****   buf = u8g2_m_9_5_1(&tile_buf_height);
 2984              		.loc 1 353 3 is_stmt 1 view .LVU554
 2985              		.loc 1 353 9 is_stmt 0 view .LVU555
 2986 0014 0DF10F00 		add	r0, sp, #15
 2987 0018 FFF7FEFF 		bl	u8g2_m_9_5_1
 2988              	.LVL395:
 2989 001c 0146     		mov	r1, r0
 2990              	.LVL396:
 354:u8g2_lib/u8g2_d_setup.c ****   u8g2_SetupBuffer(u8g2, buf, tile_buf_height, u8g2_ll_hvline_vertical_top_lsb, rotation);
 2991              		.loc 1 354 3 is_stmt 1 view .LVU556
 2992 001e 0095     		str	r5, [sp]
 2993 0020 054B     		ldr	r3, .L159+8
 2994 0022 9DF80F20 		ldrb	r2, [sp, #15]	@ zero_extendqisi2
 2995 0026 2046     		mov	r0, r4
 2996              	.LVL397:
 2997              		.loc 1 354 3 is_stmt 0 view .LVU557
 2998 0028 FFF7FEFF 		bl	u8g2_SetupBuffer
 2999              	.LVL398:
 355:u8g2_lib/u8g2_d_setup.c **** }
 3000              		.loc 1 355 1 view .LVU558
 3001 002c 05B0     		add	sp, sp, #20
 3002              	.LCFI119:
 3003              		.cfi_def_cfa_offset 12
 3004              		@ sp needed
 3005 002e 30BD     		pop	{r4, r5, pc}
 3006              	.LVL399:
 3007              	.L160:
 3008              		.loc 1 355 1 view .LVU559
 3009              		.align	2
 3010              	.L159:
 3011 0030 00000000 		.word	u8x8_cad_ssd13xx_fast_i2c
 3012 0034 00000000 		.word	u8x8_d_ssd1306_72x40_er
 3013 0038 00000000 		.word	u8g2_ll_hvline_vertical_top_lsb
 3014              		.cfi_endproc
 3015              	.LFE39:
 3017              		.section	.text.u8g2_Setup_ssd1306_i2c_72x40_er_2,"ax",%progbits
 3018              		.align	1
 3019              		.global	u8g2_Setup_ssd1306_i2c_72x40_er_2
 3020              		.syntax unified
 3021              		.thumb
 3022              		.thumb_func
 3023              		.fpu softvfp
 3025              	u8g2_Setup_ssd1306_i2c_72x40_er_2:
 3026              	.LVL400:
 3027              	.LFB40:
 356:u8g2_lib/u8g2_d_setup.c **** /* ssd1306 2 */
 357:u8g2_lib/u8g2_d_setup.c **** void u8g2_Setup_ssd1306_i2c_72x40_er_2(u8g2_t *u8g2, const u8g2_cb_t *rotation, u8x8_msg_cb byte_cb
 358:u8g2_lib/u8g2_d_setup.c **** {
 3028              		.loc 1 358 1 is_stmt 1 view -0
 3029              		.cfi_startproc
ARM GAS  C:\Users\GKQ\AppData\Local\Temp\ccROqQZ7.s 			page 59


 3030              		@ args = 0, pretend = 0, frame = 8
 3031              		@ frame_needed = 0, uses_anonymous_args = 0
 3032              		.loc 1 358 1 is_stmt 0 view .LVU561
 3033 0000 30B5     		push	{r4, r5, lr}
 3034              	.LCFI120:
 3035              		.cfi_def_cfa_offset 12
 3036              		.cfi_offset 4, -12
 3037              		.cfi_offset 5, -8
 3038              		.cfi_offset 14, -4
 3039 0002 85B0     		sub	sp, sp, #20
 3040              	.LCFI121:
 3041              		.cfi_def_cfa_offset 32
 3042 0004 0446     		mov	r4, r0
 3043 0006 0D46     		mov	r5, r1
 359:u8g2_lib/u8g2_d_setup.c ****   uint8_t tile_buf_height;
 3044              		.loc 1 359 3 is_stmt 1 view .LVU562
 360:u8g2_lib/u8g2_d_setup.c ****   uint8_t *buf;
 3045              		.loc 1 360 3 view .LVU563
 361:u8g2_lib/u8g2_d_setup.c ****   u8g2_SetupDisplay(u8g2, u8x8_d_ssd1306_72x40_er, u8x8_cad_ssd13xx_fast_i2c, byte_cb, gpio_and_del
 3046              		.loc 1 361 3 view .LVU564
 3047 0008 0093     		str	r3, [sp]
 3048 000a 1346     		mov	r3, r2
 3049              	.LVL401:
 3050              		.loc 1 361 3 is_stmt 0 view .LVU565
 3051 000c 084A     		ldr	r2, .L163
 3052              	.LVL402:
 3053              		.loc 1 361 3 view .LVU566
 3054 000e 0949     		ldr	r1, .L163+4
 3055              	.LVL403:
 3056              		.loc 1 361 3 view .LVU567
 3057 0010 FFF7FEFF 		bl	u8x8_Setup
 3058              	.LVL404:
 362:u8g2_lib/u8g2_d_setup.c ****   buf = u8g2_m_9_5_2(&tile_buf_height);
 3059              		.loc 1 362 3 is_stmt 1 view .LVU568
 3060              		.loc 1 362 9 is_stmt 0 view .LVU569
 3061 0014 0DF10F00 		add	r0, sp, #15
 3062 0018 FFF7FEFF 		bl	u8g2_m_9_5_2
 3063              	.LVL405:
 3064 001c 0146     		mov	r1, r0
 3065              	.LVL406:
 363:u8g2_lib/u8g2_d_setup.c ****   u8g2_SetupBuffer(u8g2, buf, tile_buf_height, u8g2_ll_hvline_vertical_top_lsb, rotation);
 3066              		.loc 1 363 3 is_stmt 1 view .LVU570
 3067 001e 0095     		str	r5, [sp]
 3068 0020 054B     		ldr	r3, .L163+8
 3069 0022 9DF80F20 		ldrb	r2, [sp, #15]	@ zero_extendqisi2
 3070 0026 2046     		mov	r0, r4
 3071              	.LVL407:
 3072              		.loc 1 363 3 is_stmt 0 view .LVU571
 3073 0028 FFF7FEFF 		bl	u8g2_SetupBuffer
 3074              	.LVL408:
 364:u8g2_lib/u8g2_d_setup.c **** }
 3075              		.loc 1 364 1 view .LVU572
 3076 002c 05B0     		add	sp, sp, #20
 3077              	.LCFI122:
 3078              		.cfi_def_cfa_offset 12
 3079              		@ sp needed
 3080 002e 30BD     		pop	{r4, r5, pc}
ARM GAS  C:\Users\GKQ\AppData\Local\Temp\ccROqQZ7.s 			page 60


 3081              	.LVL409:
 3082              	.L164:
 3083              		.loc 1 364 1 view .LVU573
 3084              		.align	2
 3085              	.L163:
 3086 0030 00000000 		.word	u8x8_cad_ssd13xx_fast_i2c
 3087 0034 00000000 		.word	u8x8_d_ssd1306_72x40_er
 3088 0038 00000000 		.word	u8g2_ll_hvline_vertical_top_lsb
 3089              		.cfi_endproc
 3090              	.LFE40:
 3092              		.section	.text.u8g2_Setup_ssd1306_i2c_72x40_er_f,"ax",%progbits
 3093              		.align	1
 3094              		.global	u8g2_Setup_ssd1306_i2c_72x40_er_f
 3095              		.syntax unified
 3096              		.thumb
 3097              		.thumb_func
 3098              		.fpu softvfp
 3100              	u8g2_Setup_ssd1306_i2c_72x40_er_f:
 3101              	.LVL410:
 3102              	.LFB41:
 365:u8g2_lib/u8g2_d_setup.c **** /* ssd1306 f */
 366:u8g2_lib/u8g2_d_setup.c **** void u8g2_Setup_ssd1306_i2c_72x40_er_f(u8g2_t *u8g2, const u8g2_cb_t *rotation, u8x8_msg_cb byte_cb
 367:u8g2_lib/u8g2_d_setup.c **** {
 3103              		.loc 1 367 1 is_stmt 1 view -0
 3104              		.cfi_startproc
 3105              		@ args = 0, pretend = 0, frame = 8
 3106              		@ frame_needed = 0, uses_anonymous_args = 0
 3107              		.loc 1 367 1 is_stmt 0 view .LVU575
 3108 0000 30B5     		push	{r4, r5, lr}
 3109              	.LCFI123:
 3110              		.cfi_def_cfa_offset 12
 3111              		.cfi_offset 4, -12
 3112              		.cfi_offset 5, -8
 3113              		.cfi_offset 14, -4
 3114 0002 85B0     		sub	sp, sp, #20
 3115              	.LCFI124:
 3116              		.cfi_def_cfa_offset 32
 3117 0004 0446     		mov	r4, r0
 3118 0006 0D46     		mov	r5, r1
 368:u8g2_lib/u8g2_d_setup.c ****   uint8_t tile_buf_height;
 3119              		.loc 1 368 3 is_stmt 1 view .LVU576
 369:u8g2_lib/u8g2_d_setup.c ****   uint8_t *buf;
 3120              		.loc 1 369 3 view .LVU577
 370:u8g2_lib/u8g2_d_setup.c ****   u8g2_SetupDisplay(u8g2, u8x8_d_ssd1306_72x40_er, u8x8_cad_ssd13xx_fast_i2c, byte_cb, gpio_and_del
 3121              		.loc 1 370 3 view .LVU578
 3122 0008 0093     		str	r3, [sp]
 3123 000a 1346     		mov	r3, r2
 3124              	.LVL411:
 3125              		.loc 1 370 3 is_stmt 0 view .LVU579
 3126 000c 084A     		ldr	r2, .L167
 3127              	.LVL412:
 3128              		.loc 1 370 3 view .LVU580
 3129 000e 0949     		ldr	r1, .L167+4
 3130              	.LVL413:
 3131              		.loc 1 370 3 view .LVU581
 3132 0010 FFF7FEFF 		bl	u8x8_Setup
 3133              	.LVL414:
ARM GAS  C:\Users\GKQ\AppData\Local\Temp\ccROqQZ7.s 			page 61


 371:u8g2_lib/u8g2_d_setup.c ****   buf = u8g2_m_9_5_f(&tile_buf_height);
 3134              		.loc 1 371 3 is_stmt 1 view .LVU582
 3135              		.loc 1 371 9 is_stmt 0 view .LVU583
 3136 0014 0DF10F00 		add	r0, sp, #15
 3137 0018 FFF7FEFF 		bl	u8g2_m_9_5_f
 3138              	.LVL415:
 3139 001c 0146     		mov	r1, r0
 3140              	.LVL416:
 372:u8g2_lib/u8g2_d_setup.c ****   u8g2_SetupBuffer(u8g2, buf, tile_buf_height, u8g2_ll_hvline_vertical_top_lsb, rotation);
 3141              		.loc 1 372 3 is_stmt 1 view .LVU584
 3142 001e 0095     		str	r5, [sp]
 3143 0020 054B     		ldr	r3, .L167+8
 3144 0022 9DF80F20 		ldrb	r2, [sp, #15]	@ zero_extendqisi2
 3145 0026 2046     		mov	r0, r4
 3146              	.LVL417:
 3147              		.loc 1 372 3 is_stmt 0 view .LVU585
 3148 0028 FFF7FEFF 		bl	u8g2_SetupBuffer
 3149              	.LVL418:
 373:u8g2_lib/u8g2_d_setup.c **** }
 3150              		.loc 1 373 1 view .LVU586
 3151 002c 05B0     		add	sp, sp, #20
 3152              	.LCFI125:
 3153              		.cfi_def_cfa_offset 12
 3154              		@ sp needed
 3155 002e 30BD     		pop	{r4, r5, pc}
 3156              	.LVL419:
 3157              	.L168:
 3158              		.loc 1 373 1 view .LVU587
 3159              		.align	2
 3160              	.L167:
 3161 0030 00000000 		.word	u8x8_cad_ssd13xx_fast_i2c
 3162 0034 00000000 		.word	u8x8_d_ssd1306_72x40_er
 3163 0038 00000000 		.word	u8g2_ll_hvline_vertical_top_lsb
 3164              		.cfi_endproc
 3165              	.LFE41:
 3167              		.section	.text.u8g2_Setup_sh1106_128x64_noname_1,"ax",%progbits
 3168              		.align	1
 3169              		.global	u8g2_Setup_sh1106_128x64_noname_1
 3170              		.syntax unified
 3171              		.thumb
 3172              		.thumb_func
 3173              		.fpu softvfp
 3175              	u8g2_Setup_sh1106_128x64_noname_1:
 3176              	.LVL420:
 3177              	.LFB42:
 374:u8g2_lib/u8g2_d_setup.c **** /* sh1106 */
 375:u8g2_lib/u8g2_d_setup.c **** /* sh1106 1 */
 376:u8g2_lib/u8g2_d_setup.c **** void u8g2_Setup_sh1106_128x64_noname_1(u8g2_t *u8g2, const u8g2_cb_t *rotation, u8x8_msg_cb byte_cb
 377:u8g2_lib/u8g2_d_setup.c **** {
 3178              		.loc 1 377 1 is_stmt 1 view -0
 3179              		.cfi_startproc
 3180              		@ args = 0, pretend = 0, frame = 8
 3181              		@ frame_needed = 0, uses_anonymous_args = 0
 3182              		.loc 1 377 1 is_stmt 0 view .LVU589
 3183 0000 30B5     		push	{r4, r5, lr}
 3184              	.LCFI126:
 3185              		.cfi_def_cfa_offset 12
ARM GAS  C:\Users\GKQ\AppData\Local\Temp\ccROqQZ7.s 			page 62


 3186              		.cfi_offset 4, -12
 3187              		.cfi_offset 5, -8
 3188              		.cfi_offset 14, -4
 3189 0002 85B0     		sub	sp, sp, #20
 3190              	.LCFI127:
 3191              		.cfi_def_cfa_offset 32
 3192 0004 0446     		mov	r4, r0
 3193 0006 0D46     		mov	r5, r1
 378:u8g2_lib/u8g2_d_setup.c ****   uint8_t tile_buf_height;
 3194              		.loc 1 378 3 is_stmt 1 view .LVU590
 379:u8g2_lib/u8g2_d_setup.c ****   uint8_t *buf;
 3195              		.loc 1 379 3 view .LVU591
 380:u8g2_lib/u8g2_d_setup.c ****   u8g2_SetupDisplay(u8g2, u8x8_d_sh1106_128x64_noname, u8x8_cad_001, byte_cb, gpio_and_delay_cb);
 3196              		.loc 1 380 3 view .LVU592
 3197 0008 0093     		str	r3, [sp]
 3198 000a 1346     		mov	r3, r2
 3199              	.LVL421:
 3200              		.loc 1 380 3 is_stmt 0 view .LVU593
 3201 000c 084A     		ldr	r2, .L171
 3202              	.LVL422:
 3203              		.loc 1 380 3 view .LVU594
 3204 000e 0949     		ldr	r1, .L171+4
 3205              	.LVL423:
 3206              		.loc 1 380 3 view .LVU595
 3207 0010 FFF7FEFF 		bl	u8x8_Setup
 3208              	.LVL424:
 381:u8g2_lib/u8g2_d_setup.c ****   buf = u8g2_m_16_8_1(&tile_buf_height);
 3209              		.loc 1 381 3 is_stmt 1 view .LVU596
 3210              		.loc 1 381 9 is_stmt 0 view .LVU597
 3211 0014 0DF10F00 		add	r0, sp, #15
 3212 0018 FFF7FEFF 		bl	u8g2_m_16_8_1
 3213              	.LVL425:
 3214 001c 0146     		mov	r1, r0
 3215              	.LVL426:
 382:u8g2_lib/u8g2_d_setup.c ****   u8g2_SetupBuffer(u8g2, buf, tile_buf_height, u8g2_ll_hvline_vertical_top_lsb, rotation);
 3216              		.loc 1 382 3 is_stmt 1 view .LVU598
 3217 001e 0095     		str	r5, [sp]
 3218 0020 054B     		ldr	r3, .L171+8
 3219 0022 9DF80F20 		ldrb	r2, [sp, #15]	@ zero_extendqisi2
 3220 0026 2046     		mov	r0, r4
 3221              	.LVL427:
 3222              		.loc 1 382 3 is_stmt 0 view .LVU599
 3223 0028 FFF7FEFF 		bl	u8g2_SetupBuffer
 3224              	.LVL428:
 383:u8g2_lib/u8g2_d_setup.c **** }
 3225              		.loc 1 383 1 view .LVU600
 3226 002c 05B0     		add	sp, sp, #20
 3227              	.LCFI128:
 3228              		.cfi_def_cfa_offset 12
 3229              		@ sp needed
 3230 002e 30BD     		pop	{r4, r5, pc}
 3231              	.LVL429:
 3232              	.L172:
 3233              		.loc 1 383 1 view .LVU601
 3234              		.align	2
 3235              	.L171:
 3236 0030 00000000 		.word	u8x8_cad_001
ARM GAS  C:\Users\GKQ\AppData\Local\Temp\ccROqQZ7.s 			page 63


 3237 0034 00000000 		.word	u8x8_d_sh1106_128x64_noname
 3238 0038 00000000 		.word	u8g2_ll_hvline_vertical_top_lsb
 3239              		.cfi_endproc
 3240              	.LFE42:
 3242              		.section	.text.u8g2_Setup_sh1106_128x64_vcomh0_1,"ax",%progbits
 3243              		.align	1
 3244              		.global	u8g2_Setup_sh1106_128x64_vcomh0_1
 3245              		.syntax unified
 3246              		.thumb
 3247              		.thumb_func
 3248              		.fpu softvfp
 3250              	u8g2_Setup_sh1106_128x64_vcomh0_1:
 3251              	.LVL430:
 3252              	.LFB43:
 384:u8g2_lib/u8g2_d_setup.c **** void u8g2_Setup_sh1106_128x64_vcomh0_1(u8g2_t *u8g2, const u8g2_cb_t *rotation, u8x8_msg_cb byte_cb
 385:u8g2_lib/u8g2_d_setup.c **** {
 3253              		.loc 1 385 1 is_stmt 1 view -0
 3254              		.cfi_startproc
 3255              		@ args = 0, pretend = 0, frame = 8
 3256              		@ frame_needed = 0, uses_anonymous_args = 0
 3257              		.loc 1 385 1 is_stmt 0 view .LVU603
 3258 0000 30B5     		push	{r4, r5, lr}
 3259              	.LCFI129:
 3260              		.cfi_def_cfa_offset 12
 3261              		.cfi_offset 4, -12
 3262              		.cfi_offset 5, -8
 3263              		.cfi_offset 14, -4
 3264 0002 85B0     		sub	sp, sp, #20
 3265              	.LCFI130:
 3266              		.cfi_def_cfa_offset 32
 3267 0004 0446     		mov	r4, r0
 3268 0006 0D46     		mov	r5, r1
 386:u8g2_lib/u8g2_d_setup.c ****   uint8_t tile_buf_height;
 3269              		.loc 1 386 3 is_stmt 1 view .LVU604
 387:u8g2_lib/u8g2_d_setup.c ****   uint8_t *buf;
 3270              		.loc 1 387 3 view .LVU605
 388:u8g2_lib/u8g2_d_setup.c ****   u8g2_SetupDisplay(u8g2, u8x8_d_sh1106_128x64_vcomh0, u8x8_cad_001, byte_cb, gpio_and_delay_cb);
 3271              		.loc 1 388 3 view .LVU606
 3272 0008 0093     		str	r3, [sp]
 3273 000a 1346     		mov	r3, r2
 3274              	.LVL431:
 3275              		.loc 1 388 3 is_stmt 0 view .LVU607
 3276 000c 084A     		ldr	r2, .L175
 3277              	.LVL432:
 3278              		.loc 1 388 3 view .LVU608
 3279 000e 0949     		ldr	r1, .L175+4
 3280              	.LVL433:
 3281              		.loc 1 388 3 view .LVU609
 3282 0010 FFF7FEFF 		bl	u8x8_Setup
 3283              	.LVL434:
 389:u8g2_lib/u8g2_d_setup.c ****   buf = u8g2_m_16_8_1(&tile_buf_height);
 3284              		.loc 1 389 3 is_stmt 1 view .LVU610
 3285              		.loc 1 389 9 is_stmt 0 view .LVU611
 3286 0014 0DF10F00 		add	r0, sp, #15
 3287 0018 FFF7FEFF 		bl	u8g2_m_16_8_1
 3288              	.LVL435:
 3289 001c 0146     		mov	r1, r0
ARM GAS  C:\Users\GKQ\AppData\Local\Temp\ccROqQZ7.s 			page 64


 3290              	.LVL436:
 390:u8g2_lib/u8g2_d_setup.c ****   u8g2_SetupBuffer(u8g2, buf, tile_buf_height, u8g2_ll_hvline_vertical_top_lsb, rotation);
 3291              		.loc 1 390 3 is_stmt 1 view .LVU612
 3292 001e 0095     		str	r5, [sp]
 3293 0020 054B     		ldr	r3, .L175+8
 3294 0022 9DF80F20 		ldrb	r2, [sp, #15]	@ zero_extendqisi2
 3295 0026 2046     		mov	r0, r4
 3296              	.LVL437:
 3297              		.loc 1 390 3 is_stmt 0 view .LVU613
 3298 0028 FFF7FEFF 		bl	u8g2_SetupBuffer
 3299              	.LVL438:
 391:u8g2_lib/u8g2_d_setup.c **** }
 3300              		.loc 1 391 1 view .LVU614
 3301 002c 05B0     		add	sp, sp, #20
 3302              	.LCFI131:
 3303              		.cfi_def_cfa_offset 12
 3304              		@ sp needed
 3305 002e 30BD     		pop	{r4, r5, pc}
 3306              	.LVL439:
 3307              	.L176:
 3308              		.loc 1 391 1 view .LVU615
 3309              		.align	2
 3310              	.L175:
 3311 0030 00000000 		.word	u8x8_cad_001
 3312 0034 00000000 		.word	u8x8_d_sh1106_128x64_vcomh0
 3313 0038 00000000 		.word	u8g2_ll_hvline_vertical_top_lsb
 3314              		.cfi_endproc
 3315              	.LFE43:
 3317              		.section	.text.u8g2_Setup_sh1106_128x64_winstar_1,"ax",%progbits
 3318              		.align	1
 3319              		.global	u8g2_Setup_sh1106_128x64_winstar_1
 3320              		.syntax unified
 3321              		.thumb
 3322              		.thumb_func
 3323              		.fpu softvfp
 3325              	u8g2_Setup_sh1106_128x64_winstar_1:
 3326              	.LVL440:
 3327              	.LFB44:
 392:u8g2_lib/u8g2_d_setup.c **** void u8g2_Setup_sh1106_128x64_winstar_1(u8g2_t *u8g2, const u8g2_cb_t *rotation, u8x8_msg_cb byte_c
 393:u8g2_lib/u8g2_d_setup.c **** {
 3328              		.loc 1 393 1 is_stmt 1 view -0
 3329              		.cfi_startproc
 3330              		@ args = 0, pretend = 0, frame = 8
 3331              		@ frame_needed = 0, uses_anonymous_args = 0
 3332              		.loc 1 393 1 is_stmt 0 view .LVU617
 3333 0000 30B5     		push	{r4, r5, lr}
 3334              	.LCFI132:
 3335              		.cfi_def_cfa_offset 12
 3336              		.cfi_offset 4, -12
 3337              		.cfi_offset 5, -8
 3338              		.cfi_offset 14, -4
 3339 0002 85B0     		sub	sp, sp, #20
 3340              	.LCFI133:
 3341              		.cfi_def_cfa_offset 32
 3342 0004 0446     		mov	r4, r0
 3343 0006 0D46     		mov	r5, r1
 394:u8g2_lib/u8g2_d_setup.c ****   uint8_t tile_buf_height;
ARM GAS  C:\Users\GKQ\AppData\Local\Temp\ccROqQZ7.s 			page 65


 3344              		.loc 1 394 3 is_stmt 1 view .LVU618
 395:u8g2_lib/u8g2_d_setup.c ****   uint8_t *buf;
 3345              		.loc 1 395 3 view .LVU619
 396:u8g2_lib/u8g2_d_setup.c ****   u8g2_SetupDisplay(u8g2, u8x8_d_sh1106_128x64_winstar, u8x8_cad_001, byte_cb, gpio_and_delay_cb);
 3346              		.loc 1 396 3 view .LVU620
 3347 0008 0093     		str	r3, [sp]
 3348 000a 1346     		mov	r3, r2
 3349              	.LVL441:
 3350              		.loc 1 396 3 is_stmt 0 view .LVU621
 3351 000c 084A     		ldr	r2, .L179
 3352              	.LVL442:
 3353              		.loc 1 396 3 view .LVU622
 3354 000e 0949     		ldr	r1, .L179+4
 3355              	.LVL443:
 3356              		.loc 1 396 3 view .LVU623
 3357 0010 FFF7FEFF 		bl	u8x8_Setup
 3358              	.LVL444:
 397:u8g2_lib/u8g2_d_setup.c ****   buf = u8g2_m_16_8_1(&tile_buf_height);
 3359              		.loc 1 397 3 is_stmt 1 view .LVU624
 3360              		.loc 1 397 9 is_stmt 0 view .LVU625
 3361 0014 0DF10F00 		add	r0, sp, #15
 3362 0018 FFF7FEFF 		bl	u8g2_m_16_8_1
 3363              	.LVL445:
 3364 001c 0146     		mov	r1, r0
 3365              	.LVL446:
 398:u8g2_lib/u8g2_d_setup.c ****   u8g2_SetupBuffer(u8g2, buf, tile_buf_height, u8g2_ll_hvline_vertical_top_lsb, rotation);
 3366              		.loc 1 398 3 is_stmt 1 view .LVU626
 3367 001e 0095     		str	r5, [sp]
 3368 0020 054B     		ldr	r3, .L179+8
 3369 0022 9DF80F20 		ldrb	r2, [sp, #15]	@ zero_extendqisi2
 3370 0026 2046     		mov	r0, r4
 3371              	.LVL447:
 3372              		.loc 1 398 3 is_stmt 0 view .LVU627
 3373 0028 FFF7FEFF 		bl	u8g2_SetupBuffer
 3374              	.LVL448:
 399:u8g2_lib/u8g2_d_setup.c **** }
 3375              		.loc 1 399 1 view .LVU628
 3376 002c 05B0     		add	sp, sp, #20
 3377              	.LCFI134:
 3378              		.cfi_def_cfa_offset 12
 3379              		@ sp needed
 3380 002e 30BD     		pop	{r4, r5, pc}
 3381              	.LVL449:
 3382              	.L180:
 3383              		.loc 1 399 1 view .LVU629
 3384              		.align	2
 3385              	.L179:
 3386 0030 00000000 		.word	u8x8_cad_001
 3387 0034 00000000 		.word	u8x8_d_sh1106_128x64_winstar
 3388 0038 00000000 		.word	u8g2_ll_hvline_vertical_top_lsb
 3389              		.cfi_endproc
 3390              	.LFE44:
 3392              		.section	.text.u8g2_Setup_sh1106_128x64_noname_2,"ax",%progbits
 3393              		.align	1
 3394              		.global	u8g2_Setup_sh1106_128x64_noname_2
 3395              		.syntax unified
 3396              		.thumb
ARM GAS  C:\Users\GKQ\AppData\Local\Temp\ccROqQZ7.s 			page 66


 3397              		.thumb_func
 3398              		.fpu softvfp
 3400              	u8g2_Setup_sh1106_128x64_noname_2:
 3401              	.LVL450:
 3402              	.LFB45:
 400:u8g2_lib/u8g2_d_setup.c **** /* sh1106 2 */
 401:u8g2_lib/u8g2_d_setup.c **** void u8g2_Setup_sh1106_128x64_noname_2(u8g2_t *u8g2, const u8g2_cb_t *rotation, u8x8_msg_cb byte_cb
 402:u8g2_lib/u8g2_d_setup.c **** {
 3403              		.loc 1 402 1 is_stmt 1 view -0
 3404              		.cfi_startproc
 3405              		@ args = 0, pretend = 0, frame = 8
 3406              		@ frame_needed = 0, uses_anonymous_args = 0
 3407              		.loc 1 402 1 is_stmt 0 view .LVU631
 3408 0000 30B5     		push	{r4, r5, lr}
 3409              	.LCFI135:
 3410              		.cfi_def_cfa_offset 12
 3411              		.cfi_offset 4, -12
 3412              		.cfi_offset 5, -8
 3413              		.cfi_offset 14, -4
 3414 0002 85B0     		sub	sp, sp, #20
 3415              	.LCFI136:
 3416              		.cfi_def_cfa_offset 32
 3417 0004 0446     		mov	r4, r0
 3418 0006 0D46     		mov	r5, r1
 403:u8g2_lib/u8g2_d_setup.c ****   uint8_t tile_buf_height;
 3419              		.loc 1 403 3 is_stmt 1 view .LVU632
 404:u8g2_lib/u8g2_d_setup.c ****   uint8_t *buf;
 3420              		.loc 1 404 3 view .LVU633
 405:u8g2_lib/u8g2_d_setup.c ****   u8g2_SetupDisplay(u8g2, u8x8_d_sh1106_128x64_noname, u8x8_cad_001, byte_cb, gpio_and_delay_cb);
 3421              		.loc 1 405 3 view .LVU634
 3422 0008 0093     		str	r3, [sp]
 3423 000a 1346     		mov	r3, r2
 3424              	.LVL451:
 3425              		.loc 1 405 3 is_stmt 0 view .LVU635
 3426 000c 084A     		ldr	r2, .L183
 3427              	.LVL452:
 3428              		.loc 1 405 3 view .LVU636
 3429 000e 0949     		ldr	r1, .L183+4
 3430              	.LVL453:
 3431              		.loc 1 405 3 view .LVU637
 3432 0010 FFF7FEFF 		bl	u8x8_Setup
 3433              	.LVL454:
 406:u8g2_lib/u8g2_d_setup.c ****   buf = u8g2_m_16_8_2(&tile_buf_height);
 3434              		.loc 1 406 3 is_stmt 1 view .LVU638
 3435              		.loc 1 406 9 is_stmt 0 view .LVU639
 3436 0014 0DF10F00 		add	r0, sp, #15
 3437 0018 FFF7FEFF 		bl	u8g2_m_16_8_2
 3438              	.LVL455:
 3439 001c 0146     		mov	r1, r0
 3440              	.LVL456:
 407:u8g2_lib/u8g2_d_setup.c ****   u8g2_SetupBuffer(u8g2, buf, tile_buf_height, u8g2_ll_hvline_vertical_top_lsb, rotation);
 3441              		.loc 1 407 3 is_stmt 1 view .LVU640
 3442 001e 0095     		str	r5, [sp]
 3443 0020 054B     		ldr	r3, .L183+8
 3444 0022 9DF80F20 		ldrb	r2, [sp, #15]	@ zero_extendqisi2
 3445 0026 2046     		mov	r0, r4
 3446              	.LVL457:
ARM GAS  C:\Users\GKQ\AppData\Local\Temp\ccROqQZ7.s 			page 67


 3447              		.loc 1 407 3 is_stmt 0 view .LVU641
 3448 0028 FFF7FEFF 		bl	u8g2_SetupBuffer
 3449              	.LVL458:
 408:u8g2_lib/u8g2_d_setup.c **** }
 3450              		.loc 1 408 1 view .LVU642
 3451 002c 05B0     		add	sp, sp, #20
 3452              	.LCFI137:
 3453              		.cfi_def_cfa_offset 12
 3454              		@ sp needed
 3455 002e 30BD     		pop	{r4, r5, pc}
 3456              	.LVL459:
 3457              	.L184:
 3458              		.loc 1 408 1 view .LVU643
 3459              		.align	2
 3460              	.L183:
 3461 0030 00000000 		.word	u8x8_cad_001
 3462 0034 00000000 		.word	u8x8_d_sh1106_128x64_noname
 3463 0038 00000000 		.word	u8g2_ll_hvline_vertical_top_lsb
 3464              		.cfi_endproc
 3465              	.LFE45:
 3467              		.section	.text.u8g2_Setup_sh1106_128x64_vcomh0_2,"ax",%progbits
 3468              		.align	1
 3469              		.global	u8g2_Setup_sh1106_128x64_vcomh0_2
 3470              		.syntax unified
 3471              		.thumb
 3472              		.thumb_func
 3473              		.fpu softvfp
 3475              	u8g2_Setup_sh1106_128x64_vcomh0_2:
 3476              	.LVL460:
 3477              	.LFB46:
 409:u8g2_lib/u8g2_d_setup.c **** void u8g2_Setup_sh1106_128x64_vcomh0_2(u8g2_t *u8g2, const u8g2_cb_t *rotation, u8x8_msg_cb byte_cb
 410:u8g2_lib/u8g2_d_setup.c **** {
 3478              		.loc 1 410 1 is_stmt 1 view -0
 3479              		.cfi_startproc
 3480              		@ args = 0, pretend = 0, frame = 8
 3481              		@ frame_needed = 0, uses_anonymous_args = 0
 3482              		.loc 1 410 1 is_stmt 0 view .LVU645
 3483 0000 30B5     		push	{r4, r5, lr}
 3484              	.LCFI138:
 3485              		.cfi_def_cfa_offset 12
 3486              		.cfi_offset 4, -12
 3487              		.cfi_offset 5, -8
 3488              		.cfi_offset 14, -4
 3489 0002 85B0     		sub	sp, sp, #20
 3490              	.LCFI139:
 3491              		.cfi_def_cfa_offset 32
 3492 0004 0446     		mov	r4, r0
 3493 0006 0D46     		mov	r5, r1
 411:u8g2_lib/u8g2_d_setup.c ****   uint8_t tile_buf_height;
 3494              		.loc 1 411 3 is_stmt 1 view .LVU646
 412:u8g2_lib/u8g2_d_setup.c ****   uint8_t *buf;
 3495              		.loc 1 412 3 view .LVU647
 413:u8g2_lib/u8g2_d_setup.c ****   u8g2_SetupDisplay(u8g2, u8x8_d_sh1106_128x64_vcomh0, u8x8_cad_001, byte_cb, gpio_and_delay_cb);
 3496              		.loc 1 413 3 view .LVU648
 3497 0008 0093     		str	r3, [sp]
 3498 000a 1346     		mov	r3, r2
 3499              	.LVL461:
ARM GAS  C:\Users\GKQ\AppData\Local\Temp\ccROqQZ7.s 			page 68


 3500              		.loc 1 413 3 is_stmt 0 view .LVU649
 3501 000c 084A     		ldr	r2, .L187
 3502              	.LVL462:
 3503              		.loc 1 413 3 view .LVU650
 3504 000e 0949     		ldr	r1, .L187+4
 3505              	.LVL463:
 3506              		.loc 1 413 3 view .LVU651
 3507 0010 FFF7FEFF 		bl	u8x8_Setup
 3508              	.LVL464:
 414:u8g2_lib/u8g2_d_setup.c ****   buf = u8g2_m_16_8_2(&tile_buf_height);
 3509              		.loc 1 414 3 is_stmt 1 view .LVU652
 3510              		.loc 1 414 9 is_stmt 0 view .LVU653
 3511 0014 0DF10F00 		add	r0, sp, #15
 3512 0018 FFF7FEFF 		bl	u8g2_m_16_8_2
 3513              	.LVL465:
 3514 001c 0146     		mov	r1, r0
 3515              	.LVL466:
 415:u8g2_lib/u8g2_d_setup.c ****   u8g2_SetupBuffer(u8g2, buf, tile_buf_height, u8g2_ll_hvline_vertical_top_lsb, rotation);
 3516              		.loc 1 415 3 is_stmt 1 view .LVU654
 3517 001e 0095     		str	r5, [sp]
 3518 0020 054B     		ldr	r3, .L187+8
 3519 0022 9DF80F20 		ldrb	r2, [sp, #15]	@ zero_extendqisi2
 3520 0026 2046     		mov	r0, r4
 3521              	.LVL467:
 3522              		.loc 1 415 3 is_stmt 0 view .LVU655
 3523 0028 FFF7FEFF 		bl	u8g2_SetupBuffer
 3524              	.LVL468:
 416:u8g2_lib/u8g2_d_setup.c **** }
 3525              		.loc 1 416 1 view .LVU656
 3526 002c 05B0     		add	sp, sp, #20
 3527              	.LCFI140:
 3528              		.cfi_def_cfa_offset 12
 3529              		@ sp needed
 3530 002e 30BD     		pop	{r4, r5, pc}
 3531              	.LVL469:
 3532              	.L188:
 3533              		.loc 1 416 1 view .LVU657
 3534              		.align	2
 3535              	.L187:
 3536 0030 00000000 		.word	u8x8_cad_001
 3537 0034 00000000 		.word	u8x8_d_sh1106_128x64_vcomh0
 3538 0038 00000000 		.word	u8g2_ll_hvline_vertical_top_lsb
 3539              		.cfi_endproc
 3540              	.LFE46:
 3542              		.section	.text.u8g2_Setup_sh1106_128x64_winstar_2,"ax",%progbits
 3543              		.align	1
 3544              		.global	u8g2_Setup_sh1106_128x64_winstar_2
 3545              		.syntax unified
 3546              		.thumb
 3547              		.thumb_func
 3548              		.fpu softvfp
 3550              	u8g2_Setup_sh1106_128x64_winstar_2:
 3551              	.LVL470:
 3552              	.LFB47:
 417:u8g2_lib/u8g2_d_setup.c **** void u8g2_Setup_sh1106_128x64_winstar_2(u8g2_t *u8g2, const u8g2_cb_t *rotation, u8x8_msg_cb byte_c
 418:u8g2_lib/u8g2_d_setup.c **** {
 3553              		.loc 1 418 1 is_stmt 1 view -0
ARM GAS  C:\Users\GKQ\AppData\Local\Temp\ccROqQZ7.s 			page 69


 3554              		.cfi_startproc
 3555              		@ args = 0, pretend = 0, frame = 8
 3556              		@ frame_needed = 0, uses_anonymous_args = 0
 3557              		.loc 1 418 1 is_stmt 0 view .LVU659
 3558 0000 30B5     		push	{r4, r5, lr}
 3559              	.LCFI141:
 3560              		.cfi_def_cfa_offset 12
 3561              		.cfi_offset 4, -12
 3562              		.cfi_offset 5, -8
 3563              		.cfi_offset 14, -4
 3564 0002 85B0     		sub	sp, sp, #20
 3565              	.LCFI142:
 3566              		.cfi_def_cfa_offset 32
 3567 0004 0446     		mov	r4, r0
 3568 0006 0D46     		mov	r5, r1
 419:u8g2_lib/u8g2_d_setup.c ****   uint8_t tile_buf_height;
 3569              		.loc 1 419 3 is_stmt 1 view .LVU660
 420:u8g2_lib/u8g2_d_setup.c ****   uint8_t *buf;
 3570              		.loc 1 420 3 view .LVU661
 421:u8g2_lib/u8g2_d_setup.c ****   u8g2_SetupDisplay(u8g2, u8x8_d_sh1106_128x64_winstar, u8x8_cad_001, byte_cb, gpio_and_delay_cb);
 3571              		.loc 1 421 3 view .LVU662
 3572 0008 0093     		str	r3, [sp]
 3573 000a 1346     		mov	r3, r2
 3574              	.LVL471:
 3575              		.loc 1 421 3 is_stmt 0 view .LVU663
 3576 000c 084A     		ldr	r2, .L191
 3577              	.LVL472:
 3578              		.loc 1 421 3 view .LVU664
 3579 000e 0949     		ldr	r1, .L191+4
 3580              	.LVL473:
 3581              		.loc 1 421 3 view .LVU665
 3582 0010 FFF7FEFF 		bl	u8x8_Setup
 3583              	.LVL474:
 422:u8g2_lib/u8g2_d_setup.c ****   buf = u8g2_m_16_8_2(&tile_buf_height);
 3584              		.loc 1 422 3 is_stmt 1 view .LVU666
 3585              		.loc 1 422 9 is_stmt 0 view .LVU667
 3586 0014 0DF10F00 		add	r0, sp, #15
 3587 0018 FFF7FEFF 		bl	u8g2_m_16_8_2
 3588              	.LVL475:
 3589 001c 0146     		mov	r1, r0
 3590              	.LVL476:
 423:u8g2_lib/u8g2_d_setup.c ****   u8g2_SetupBuffer(u8g2, buf, tile_buf_height, u8g2_ll_hvline_vertical_top_lsb, rotation);
 3591              		.loc 1 423 3 is_stmt 1 view .LVU668
 3592 001e 0095     		str	r5, [sp]
 3593 0020 054B     		ldr	r3, .L191+8
 3594 0022 9DF80F20 		ldrb	r2, [sp, #15]	@ zero_extendqisi2
 3595 0026 2046     		mov	r0, r4
 3596              	.LVL477:
 3597              		.loc 1 423 3 is_stmt 0 view .LVU669
 3598 0028 FFF7FEFF 		bl	u8g2_SetupBuffer
 3599              	.LVL478:
 424:u8g2_lib/u8g2_d_setup.c **** }
 3600              		.loc 1 424 1 view .LVU670
 3601 002c 05B0     		add	sp, sp, #20
 3602              	.LCFI143:
 3603              		.cfi_def_cfa_offset 12
 3604              		@ sp needed
ARM GAS  C:\Users\GKQ\AppData\Local\Temp\ccROqQZ7.s 			page 70


 3605 002e 30BD     		pop	{r4, r5, pc}
 3606              	.LVL479:
 3607              	.L192:
 3608              		.loc 1 424 1 view .LVU671
 3609              		.align	2
 3610              	.L191:
 3611 0030 00000000 		.word	u8x8_cad_001
 3612 0034 00000000 		.word	u8x8_d_sh1106_128x64_winstar
 3613 0038 00000000 		.word	u8g2_ll_hvline_vertical_top_lsb
 3614              		.cfi_endproc
 3615              	.LFE47:
 3617              		.section	.text.u8g2_Setup_sh1106_128x64_noname_f,"ax",%progbits
 3618              		.align	1
 3619              		.global	u8g2_Setup_sh1106_128x64_noname_f
 3620              		.syntax unified
 3621              		.thumb
 3622              		.thumb_func
 3623              		.fpu softvfp
 3625              	u8g2_Setup_sh1106_128x64_noname_f:
 3626              	.LVL480:
 3627              	.LFB48:
 425:u8g2_lib/u8g2_d_setup.c **** /* sh1106 f */
 426:u8g2_lib/u8g2_d_setup.c **** void u8g2_Setup_sh1106_128x64_noname_f(u8g2_t *u8g2, const u8g2_cb_t *rotation, u8x8_msg_cb byte_cb
 427:u8g2_lib/u8g2_d_setup.c **** {
 3628              		.loc 1 427 1 is_stmt 1 view -0
 3629              		.cfi_startproc
 3630              		@ args = 0, pretend = 0, frame = 8
 3631              		@ frame_needed = 0, uses_anonymous_args = 0
 3632              		.loc 1 427 1 is_stmt 0 view .LVU673
 3633 0000 30B5     		push	{r4, r5, lr}
 3634              	.LCFI144:
 3635              		.cfi_def_cfa_offset 12
 3636              		.cfi_offset 4, -12
 3637              		.cfi_offset 5, -8
 3638              		.cfi_offset 14, -4
 3639 0002 85B0     		sub	sp, sp, #20
 3640              	.LCFI145:
 3641              		.cfi_def_cfa_offset 32
 3642 0004 0446     		mov	r4, r0
 3643 0006 0D46     		mov	r5, r1
 428:u8g2_lib/u8g2_d_setup.c ****   uint8_t tile_buf_height;
 3644              		.loc 1 428 3 is_stmt 1 view .LVU674
 429:u8g2_lib/u8g2_d_setup.c ****   uint8_t *buf;
 3645              		.loc 1 429 3 view .LVU675
 430:u8g2_lib/u8g2_d_setup.c ****   u8g2_SetupDisplay(u8g2, u8x8_d_sh1106_128x64_noname, u8x8_cad_001, byte_cb, gpio_and_delay_cb);
 3646              		.loc 1 430 3 view .LVU676
 3647 0008 0093     		str	r3, [sp]
 3648 000a 1346     		mov	r3, r2
 3649              	.LVL481:
 3650              		.loc 1 430 3 is_stmt 0 view .LVU677
 3651 000c 084A     		ldr	r2, .L195
 3652              	.LVL482:
 3653              		.loc 1 430 3 view .LVU678
 3654 000e 0949     		ldr	r1, .L195+4
 3655              	.LVL483:
 3656              		.loc 1 430 3 view .LVU679
 3657 0010 FFF7FEFF 		bl	u8x8_Setup
ARM GAS  C:\Users\GKQ\AppData\Local\Temp\ccROqQZ7.s 			page 71


 3658              	.LVL484:
 431:u8g2_lib/u8g2_d_setup.c ****   buf = u8g2_m_16_8_f(&tile_buf_height);
 3659              		.loc 1 431 3 is_stmt 1 view .LVU680
 3660              		.loc 1 431 9 is_stmt 0 view .LVU681
 3661 0014 0DF10F00 		add	r0, sp, #15
 3662 0018 FFF7FEFF 		bl	u8g2_m_16_8_f
 3663              	.LVL485:
 3664 001c 0146     		mov	r1, r0
 3665              	.LVL486:
 432:u8g2_lib/u8g2_d_setup.c ****   u8g2_SetupBuffer(u8g2, buf, tile_buf_height, u8g2_ll_hvline_vertical_top_lsb, rotation);
 3666              		.loc 1 432 3 is_stmt 1 view .LVU682
 3667 001e 0095     		str	r5, [sp]
 3668 0020 054B     		ldr	r3, .L195+8
 3669 0022 9DF80F20 		ldrb	r2, [sp, #15]	@ zero_extendqisi2
 3670 0026 2046     		mov	r0, r4
 3671              	.LVL487:
 3672              		.loc 1 432 3 is_stmt 0 view .LVU683
 3673 0028 FFF7FEFF 		bl	u8g2_SetupBuffer
 3674              	.LVL488:
 433:u8g2_lib/u8g2_d_setup.c **** }
 3675              		.loc 1 433 1 view .LVU684
 3676 002c 05B0     		add	sp, sp, #20
 3677              	.LCFI146:
 3678              		.cfi_def_cfa_offset 12
 3679              		@ sp needed
 3680 002e 30BD     		pop	{r4, r5, pc}
 3681              	.LVL489:
 3682              	.L196:
 3683              		.loc 1 433 1 view .LVU685
 3684              		.align	2
 3685              	.L195:
 3686 0030 00000000 		.word	u8x8_cad_001
 3687 0034 00000000 		.word	u8x8_d_sh1106_128x64_noname
 3688 0038 00000000 		.word	u8g2_ll_hvline_vertical_top_lsb
 3689              		.cfi_endproc
 3690              	.LFE48:
 3692              		.section	.text.u8g2_Setup_sh1106_128x64_vcomh0_f,"ax",%progbits
 3693              		.align	1
 3694              		.global	u8g2_Setup_sh1106_128x64_vcomh0_f
 3695              		.syntax unified
 3696              		.thumb
 3697              		.thumb_func
 3698              		.fpu softvfp
 3700              	u8g2_Setup_sh1106_128x64_vcomh0_f:
 3701              	.LVL490:
 3702              	.LFB49:
 434:u8g2_lib/u8g2_d_setup.c **** void u8g2_Setup_sh1106_128x64_vcomh0_f(u8g2_t *u8g2, const u8g2_cb_t *rotation, u8x8_msg_cb byte_cb
 435:u8g2_lib/u8g2_d_setup.c **** {
 3703              		.loc 1 435 1 is_stmt 1 view -0
 3704              		.cfi_startproc
 3705              		@ args = 0, pretend = 0, frame = 8
 3706              		@ frame_needed = 0, uses_anonymous_args = 0
 3707              		.loc 1 435 1 is_stmt 0 view .LVU687
 3708 0000 30B5     		push	{r4, r5, lr}
 3709              	.LCFI147:
 3710              		.cfi_def_cfa_offset 12
 3711              		.cfi_offset 4, -12
ARM GAS  C:\Users\GKQ\AppData\Local\Temp\ccROqQZ7.s 			page 72


 3712              		.cfi_offset 5, -8
 3713              		.cfi_offset 14, -4
 3714 0002 85B0     		sub	sp, sp, #20
 3715              	.LCFI148:
 3716              		.cfi_def_cfa_offset 32
 3717 0004 0446     		mov	r4, r0
 3718 0006 0D46     		mov	r5, r1
 436:u8g2_lib/u8g2_d_setup.c ****   uint8_t tile_buf_height;
 3719              		.loc 1 436 3 is_stmt 1 view .LVU688
 437:u8g2_lib/u8g2_d_setup.c ****   uint8_t *buf;
 3720              		.loc 1 437 3 view .LVU689
 438:u8g2_lib/u8g2_d_setup.c ****   u8g2_SetupDisplay(u8g2, u8x8_d_sh1106_128x64_vcomh0, u8x8_cad_001, byte_cb, gpio_and_delay_cb);
 3721              		.loc 1 438 3 view .LVU690
 3722 0008 0093     		str	r3, [sp]
 3723 000a 1346     		mov	r3, r2
 3724              	.LVL491:
 3725              		.loc 1 438 3 is_stmt 0 view .LVU691
 3726 000c 084A     		ldr	r2, .L199
 3727              	.LVL492:
 3728              		.loc 1 438 3 view .LVU692
 3729 000e 0949     		ldr	r1, .L199+4
 3730              	.LVL493:
 3731              		.loc 1 438 3 view .LVU693
 3732 0010 FFF7FEFF 		bl	u8x8_Setup
 3733              	.LVL494:
 439:u8g2_lib/u8g2_d_setup.c ****   buf = u8g2_m_16_8_f(&tile_buf_height);
 3734              		.loc 1 439 3 is_stmt 1 view .LVU694
 3735              		.loc 1 439 9 is_stmt 0 view .LVU695
 3736 0014 0DF10F00 		add	r0, sp, #15
 3737 0018 FFF7FEFF 		bl	u8g2_m_16_8_f
 3738              	.LVL495:
 3739 001c 0146     		mov	r1, r0
 3740              	.LVL496:
 440:u8g2_lib/u8g2_d_setup.c ****   u8g2_SetupBuffer(u8g2, buf, tile_buf_height, u8g2_ll_hvline_vertical_top_lsb, rotation);
 3741              		.loc 1 440 3 is_stmt 1 view .LVU696
 3742 001e 0095     		str	r5, [sp]
 3743 0020 054B     		ldr	r3, .L199+8
 3744 0022 9DF80F20 		ldrb	r2, [sp, #15]	@ zero_extendqisi2
 3745 0026 2046     		mov	r0, r4
 3746              	.LVL497:
 3747              		.loc 1 440 3 is_stmt 0 view .LVU697
 3748 0028 FFF7FEFF 		bl	u8g2_SetupBuffer
 3749              	.LVL498:
 441:u8g2_lib/u8g2_d_setup.c **** }
 3750              		.loc 1 441 1 view .LVU698
 3751 002c 05B0     		add	sp, sp, #20
 3752              	.LCFI149:
 3753              		.cfi_def_cfa_offset 12
 3754              		@ sp needed
 3755 002e 30BD     		pop	{r4, r5, pc}
 3756              	.LVL499:
 3757              	.L200:
 3758              		.loc 1 441 1 view .LVU699
 3759              		.align	2
 3760              	.L199:
 3761 0030 00000000 		.word	u8x8_cad_001
 3762 0034 00000000 		.word	u8x8_d_sh1106_128x64_vcomh0
ARM GAS  C:\Users\GKQ\AppData\Local\Temp\ccROqQZ7.s 			page 73


 3763 0038 00000000 		.word	u8g2_ll_hvline_vertical_top_lsb
 3764              		.cfi_endproc
 3765              	.LFE49:
 3767              		.section	.text.u8g2_Setup_sh1106_128x64_winstar_f,"ax",%progbits
 3768              		.align	1
 3769              		.global	u8g2_Setup_sh1106_128x64_winstar_f
 3770              		.syntax unified
 3771              		.thumb
 3772              		.thumb_func
 3773              		.fpu softvfp
 3775              	u8g2_Setup_sh1106_128x64_winstar_f:
 3776              	.LVL500:
 3777              	.LFB50:
 442:u8g2_lib/u8g2_d_setup.c **** void u8g2_Setup_sh1106_128x64_winstar_f(u8g2_t *u8g2, const u8g2_cb_t *rotation, u8x8_msg_cb byte_c
 443:u8g2_lib/u8g2_d_setup.c **** {
 3778              		.loc 1 443 1 is_stmt 1 view -0
 3779              		.cfi_startproc
 3780              		@ args = 0, pretend = 0, frame = 8
 3781              		@ frame_needed = 0, uses_anonymous_args = 0
 3782              		.loc 1 443 1 is_stmt 0 view .LVU701
 3783 0000 30B5     		push	{r4, r5, lr}
 3784              	.LCFI150:
 3785              		.cfi_def_cfa_offset 12
 3786              		.cfi_offset 4, -12
 3787              		.cfi_offset 5, -8
 3788              		.cfi_offset 14, -4
 3789 0002 85B0     		sub	sp, sp, #20
 3790              	.LCFI151:
 3791              		.cfi_def_cfa_offset 32
 3792 0004 0446     		mov	r4, r0
 3793 0006 0D46     		mov	r5, r1
 444:u8g2_lib/u8g2_d_setup.c ****   uint8_t tile_buf_height;
 3794              		.loc 1 444 3 is_stmt 1 view .LVU702
 445:u8g2_lib/u8g2_d_setup.c ****   uint8_t *buf;
 3795              		.loc 1 445 3 view .LVU703
 446:u8g2_lib/u8g2_d_setup.c ****   u8g2_SetupDisplay(u8g2, u8x8_d_sh1106_128x64_winstar, u8x8_cad_001, byte_cb, gpio_and_delay_cb);
 3796              		.loc 1 446 3 view .LVU704
 3797 0008 0093     		str	r3, [sp]
 3798 000a 1346     		mov	r3, r2
 3799              	.LVL501:
 3800              		.loc 1 446 3 is_stmt 0 view .LVU705
 3801 000c 084A     		ldr	r2, .L203
 3802              	.LVL502:
 3803              		.loc 1 446 3 view .LVU706
 3804 000e 0949     		ldr	r1, .L203+4
 3805              	.LVL503:
 3806              		.loc 1 446 3 view .LVU707
 3807 0010 FFF7FEFF 		bl	u8x8_Setup
 3808              	.LVL504:
 447:u8g2_lib/u8g2_d_setup.c ****   buf = u8g2_m_16_8_f(&tile_buf_height);
 3809              		.loc 1 447 3 is_stmt 1 view .LVU708
 3810              		.loc 1 447 9 is_stmt 0 view .LVU709
 3811 0014 0DF10F00 		add	r0, sp, #15
 3812 0018 FFF7FEFF 		bl	u8g2_m_16_8_f
 3813              	.LVL505:
 3814 001c 0146     		mov	r1, r0
 3815              	.LVL506:
ARM GAS  C:\Users\GKQ\AppData\Local\Temp\ccROqQZ7.s 			page 74


 448:u8g2_lib/u8g2_d_setup.c ****   u8g2_SetupBuffer(u8g2, buf, tile_buf_height, u8g2_ll_hvline_vertical_top_lsb, rotation);
 3816              		.loc 1 448 3 is_stmt 1 view .LVU710
 3817 001e 0095     		str	r5, [sp]
 3818 0020 054B     		ldr	r3, .L203+8
 3819 0022 9DF80F20 		ldrb	r2, [sp, #15]	@ zero_extendqisi2
 3820 0026 2046     		mov	r0, r4
 3821              	.LVL507:
 3822              		.loc 1 448 3 is_stmt 0 view .LVU711
 3823 0028 FFF7FEFF 		bl	u8g2_SetupBuffer
 3824              	.LVL508:
 449:u8g2_lib/u8g2_d_setup.c **** }
 3825              		.loc 1 449 1 view .LVU712
 3826 002c 05B0     		add	sp, sp, #20
 3827              	.LCFI152:
 3828              		.cfi_def_cfa_offset 12
 3829              		@ sp needed
 3830 002e 30BD     		pop	{r4, r5, pc}
 3831              	.LVL509:
 3832              	.L204:
 3833              		.loc 1 449 1 view .LVU713
 3834              		.align	2
 3835              	.L203:
 3836 0030 00000000 		.word	u8x8_cad_001
 3837 0034 00000000 		.word	u8x8_d_sh1106_128x64_winstar
 3838 0038 00000000 		.word	u8g2_ll_hvline_vertical_top_lsb
 3839              		.cfi_endproc
 3840              	.LFE50:
 3842              		.section	.text.u8g2_Setup_sh1106_i2c_128x64_noname_1,"ax",%progbits
 3843              		.align	1
 3844              		.global	u8g2_Setup_sh1106_i2c_128x64_noname_1
 3845              		.syntax unified
 3846              		.thumb
 3847              		.thumb_func
 3848              		.fpu softvfp
 3850              	u8g2_Setup_sh1106_i2c_128x64_noname_1:
 3851              	.LVL510:
 3852              	.LFB51:
 450:u8g2_lib/u8g2_d_setup.c **** /* sh1106 */
 451:u8g2_lib/u8g2_d_setup.c **** /* sh1106 1 */
 452:u8g2_lib/u8g2_d_setup.c **** void u8g2_Setup_sh1106_i2c_128x64_noname_1(u8g2_t *u8g2, const u8g2_cb_t *rotation, u8x8_msg_cb byt
 453:u8g2_lib/u8g2_d_setup.c **** {
 3853              		.loc 1 453 1 is_stmt 1 view -0
 3854              		.cfi_startproc
 3855              		@ args = 0, pretend = 0, frame = 8
 3856              		@ frame_needed = 0, uses_anonymous_args = 0
 3857              		.loc 1 453 1 is_stmt 0 view .LVU715
 3858 0000 30B5     		push	{r4, r5, lr}
 3859              	.LCFI153:
 3860              		.cfi_def_cfa_offset 12
 3861              		.cfi_offset 4, -12
 3862              		.cfi_offset 5, -8
 3863              		.cfi_offset 14, -4
 3864 0002 85B0     		sub	sp, sp, #20
 3865              	.LCFI154:
 3866              		.cfi_def_cfa_offset 32
 3867 0004 0446     		mov	r4, r0
 3868 0006 0D46     		mov	r5, r1
ARM GAS  C:\Users\GKQ\AppData\Local\Temp\ccROqQZ7.s 			page 75


 454:u8g2_lib/u8g2_d_setup.c ****   uint8_t tile_buf_height;
 3869              		.loc 1 454 3 is_stmt 1 view .LVU716
 455:u8g2_lib/u8g2_d_setup.c ****   uint8_t *buf;
 3870              		.loc 1 455 3 view .LVU717
 456:u8g2_lib/u8g2_d_setup.c ****   u8g2_SetupDisplay(u8g2, u8x8_d_sh1106_128x64_noname, u8x8_cad_ssd13xx_i2c, byte_cb, gpio_and_dela
 3871              		.loc 1 456 3 view .LVU718
 3872 0008 0093     		str	r3, [sp]
 3873 000a 1346     		mov	r3, r2
 3874              	.LVL511:
 3875              		.loc 1 456 3 is_stmt 0 view .LVU719
 3876 000c 084A     		ldr	r2, .L207
 3877              	.LVL512:
 3878              		.loc 1 456 3 view .LVU720
 3879 000e 0949     		ldr	r1, .L207+4
 3880              	.LVL513:
 3881              		.loc 1 456 3 view .LVU721
 3882 0010 FFF7FEFF 		bl	u8x8_Setup
 3883              	.LVL514:
 457:u8g2_lib/u8g2_d_setup.c ****   buf = u8g2_m_16_8_1(&tile_buf_height);
 3884              		.loc 1 457 3 is_stmt 1 view .LVU722
 3885              		.loc 1 457 9 is_stmt 0 view .LVU723
 3886 0014 0DF10F00 		add	r0, sp, #15
 3887 0018 FFF7FEFF 		bl	u8g2_m_16_8_1
 3888              	.LVL515:
 3889 001c 0146     		mov	r1, r0
 3890              	.LVL516:
 458:u8g2_lib/u8g2_d_setup.c ****   u8g2_SetupBuffer(u8g2, buf, tile_buf_height, u8g2_ll_hvline_vertical_top_lsb, rotation);
 3891              		.loc 1 458 3 is_stmt 1 view .LVU724
 3892 001e 0095     		str	r5, [sp]
 3893 0020 054B     		ldr	r3, .L207+8
 3894 0022 9DF80F20 		ldrb	r2, [sp, #15]	@ zero_extendqisi2
 3895 0026 2046     		mov	r0, r4
 3896              	.LVL517:
 3897              		.loc 1 458 3 is_stmt 0 view .LVU725
 3898 0028 FFF7FEFF 		bl	u8g2_SetupBuffer
 3899              	.LVL518:
 459:u8g2_lib/u8g2_d_setup.c **** }
 3900              		.loc 1 459 1 view .LVU726
 3901 002c 05B0     		add	sp, sp, #20
 3902              	.LCFI155:
 3903              		.cfi_def_cfa_offset 12
 3904              		@ sp needed
 3905 002e 30BD     		pop	{r4, r5, pc}
 3906              	.LVL519:
 3907              	.L208:
 3908              		.loc 1 459 1 view .LVU727
 3909              		.align	2
 3910              	.L207:
 3911 0030 00000000 		.word	u8x8_cad_ssd13xx_i2c
 3912 0034 00000000 		.word	u8x8_d_sh1106_128x64_noname
 3913 0038 00000000 		.word	u8g2_ll_hvline_vertical_top_lsb
 3914              		.cfi_endproc
 3915              	.LFE51:
 3917              		.section	.text.u8g2_Setup_sh1106_i2c_128x64_vcomh0_1,"ax",%progbits
 3918              		.align	1
 3919              		.global	u8g2_Setup_sh1106_i2c_128x64_vcomh0_1
 3920              		.syntax unified
ARM GAS  C:\Users\GKQ\AppData\Local\Temp\ccROqQZ7.s 			page 76


 3921              		.thumb
 3922              		.thumb_func
 3923              		.fpu softvfp
 3925              	u8g2_Setup_sh1106_i2c_128x64_vcomh0_1:
 3926              	.LVL520:
 3927              	.LFB52:
 460:u8g2_lib/u8g2_d_setup.c **** void u8g2_Setup_sh1106_i2c_128x64_vcomh0_1(u8g2_t *u8g2, const u8g2_cb_t *rotation, u8x8_msg_cb byt
 461:u8g2_lib/u8g2_d_setup.c **** {
 3928              		.loc 1 461 1 is_stmt 1 view -0
 3929              		.cfi_startproc
 3930              		@ args = 0, pretend = 0, frame = 8
 3931              		@ frame_needed = 0, uses_anonymous_args = 0
 3932              		.loc 1 461 1 is_stmt 0 view .LVU729
 3933 0000 30B5     		push	{r4, r5, lr}
 3934              	.LCFI156:
 3935              		.cfi_def_cfa_offset 12
 3936              		.cfi_offset 4, -12
 3937              		.cfi_offset 5, -8
 3938              		.cfi_offset 14, -4
 3939 0002 85B0     		sub	sp, sp, #20
 3940              	.LCFI157:
 3941              		.cfi_def_cfa_offset 32
 3942 0004 0446     		mov	r4, r0
 3943 0006 0D46     		mov	r5, r1
 462:u8g2_lib/u8g2_d_setup.c ****   uint8_t tile_buf_height;
 3944              		.loc 1 462 3 is_stmt 1 view .LVU730
 463:u8g2_lib/u8g2_d_setup.c ****   uint8_t *buf;
 3945              		.loc 1 463 3 view .LVU731
 464:u8g2_lib/u8g2_d_setup.c ****   u8g2_SetupDisplay(u8g2, u8x8_d_sh1106_128x64_vcomh0, u8x8_cad_ssd13xx_i2c, byte_cb, gpio_and_dela
 3946              		.loc 1 464 3 view .LVU732
 3947 0008 0093     		str	r3, [sp]
 3948 000a 1346     		mov	r3, r2
 3949              	.LVL521:
 3950              		.loc 1 464 3 is_stmt 0 view .LVU733
 3951 000c 084A     		ldr	r2, .L211
 3952              	.LVL522:
 3953              		.loc 1 464 3 view .LVU734
 3954 000e 0949     		ldr	r1, .L211+4
 3955              	.LVL523:
 3956              		.loc 1 464 3 view .LVU735
 3957 0010 FFF7FEFF 		bl	u8x8_Setup
 3958              	.LVL524:
 465:u8g2_lib/u8g2_d_setup.c ****   buf = u8g2_m_16_8_1(&tile_buf_height);
 3959              		.loc 1 465 3 is_stmt 1 view .LVU736
 3960              		.loc 1 465 9 is_stmt 0 view .LVU737
 3961 0014 0DF10F00 		add	r0, sp, #15
 3962 0018 FFF7FEFF 		bl	u8g2_m_16_8_1
 3963              	.LVL525:
 3964 001c 0146     		mov	r1, r0
 3965              	.LVL526:
 466:u8g2_lib/u8g2_d_setup.c ****   u8g2_SetupBuffer(u8g2, buf, tile_buf_height, u8g2_ll_hvline_vertical_top_lsb, rotation);
 3966              		.loc 1 466 3 is_stmt 1 view .LVU738
 3967 001e 0095     		str	r5, [sp]
 3968 0020 054B     		ldr	r3, .L211+8
 3969 0022 9DF80F20 		ldrb	r2, [sp, #15]	@ zero_extendqisi2
 3970 0026 2046     		mov	r0, r4
 3971              	.LVL527:
ARM GAS  C:\Users\GKQ\AppData\Local\Temp\ccROqQZ7.s 			page 77


 3972              		.loc 1 466 3 is_stmt 0 view .LVU739
 3973 0028 FFF7FEFF 		bl	u8g2_SetupBuffer
 3974              	.LVL528:
 467:u8g2_lib/u8g2_d_setup.c **** }
 3975              		.loc 1 467 1 view .LVU740
 3976 002c 05B0     		add	sp, sp, #20
 3977              	.LCFI158:
 3978              		.cfi_def_cfa_offset 12
 3979              		@ sp needed
 3980 002e 30BD     		pop	{r4, r5, pc}
 3981              	.LVL529:
 3982              	.L212:
 3983              		.loc 1 467 1 view .LVU741
 3984              		.align	2
 3985              	.L211:
 3986 0030 00000000 		.word	u8x8_cad_ssd13xx_i2c
 3987 0034 00000000 		.word	u8x8_d_sh1106_128x64_vcomh0
 3988 0038 00000000 		.word	u8g2_ll_hvline_vertical_top_lsb
 3989              		.cfi_endproc
 3990              	.LFE52:
 3992              		.section	.text.u8g2_Setup_sh1106_i2c_128x64_winstar_1,"ax",%progbits
 3993              		.align	1
 3994              		.global	u8g2_Setup_sh1106_i2c_128x64_winstar_1
 3995              		.syntax unified
 3996              		.thumb
 3997              		.thumb_func
 3998              		.fpu softvfp
 4000              	u8g2_Setup_sh1106_i2c_128x64_winstar_1:
 4001              	.LVL530:
 4002              	.LFB53:
 468:u8g2_lib/u8g2_d_setup.c **** void u8g2_Setup_sh1106_i2c_128x64_winstar_1(u8g2_t *u8g2, const u8g2_cb_t *rotation, u8x8_msg_cb by
 469:u8g2_lib/u8g2_d_setup.c **** {
 4003              		.loc 1 469 1 is_stmt 1 view -0
 4004              		.cfi_startproc
 4005              		@ args = 0, pretend = 0, frame = 8
 4006              		@ frame_needed = 0, uses_anonymous_args = 0
 4007              		.loc 1 469 1 is_stmt 0 view .LVU743
 4008 0000 30B5     		push	{r4, r5, lr}
 4009              	.LCFI159:
 4010              		.cfi_def_cfa_offset 12
 4011              		.cfi_offset 4, -12
 4012              		.cfi_offset 5, -8
 4013              		.cfi_offset 14, -4
 4014 0002 85B0     		sub	sp, sp, #20
 4015              	.LCFI160:
 4016              		.cfi_def_cfa_offset 32
 4017 0004 0446     		mov	r4, r0
 4018 0006 0D46     		mov	r5, r1
 470:u8g2_lib/u8g2_d_setup.c ****   uint8_t tile_buf_height;
 4019              		.loc 1 470 3 is_stmt 1 view .LVU744
 471:u8g2_lib/u8g2_d_setup.c ****   uint8_t *buf;
 4020              		.loc 1 471 3 view .LVU745
 472:u8g2_lib/u8g2_d_setup.c ****   u8g2_SetupDisplay(u8g2, u8x8_d_sh1106_128x64_winstar, u8x8_cad_ssd13xx_i2c, byte_cb, gpio_and_del
 4021              		.loc 1 472 3 view .LVU746
 4022 0008 0093     		str	r3, [sp]
 4023 000a 1346     		mov	r3, r2
 4024              	.LVL531:
ARM GAS  C:\Users\GKQ\AppData\Local\Temp\ccROqQZ7.s 			page 78


 4025              		.loc 1 472 3 is_stmt 0 view .LVU747
 4026 000c 084A     		ldr	r2, .L215
 4027              	.LVL532:
 4028              		.loc 1 472 3 view .LVU748
 4029 000e 0949     		ldr	r1, .L215+4
 4030              	.LVL533:
 4031              		.loc 1 472 3 view .LVU749
 4032 0010 FFF7FEFF 		bl	u8x8_Setup
 4033              	.LVL534:
 473:u8g2_lib/u8g2_d_setup.c ****   buf = u8g2_m_16_8_1(&tile_buf_height);
 4034              		.loc 1 473 3 is_stmt 1 view .LVU750
 4035              		.loc 1 473 9 is_stmt 0 view .LVU751
 4036 0014 0DF10F00 		add	r0, sp, #15
 4037 0018 FFF7FEFF 		bl	u8g2_m_16_8_1
 4038              	.LVL535:
 4039 001c 0146     		mov	r1, r0
 4040              	.LVL536:
 474:u8g2_lib/u8g2_d_setup.c ****   u8g2_SetupBuffer(u8g2, buf, tile_buf_height, u8g2_ll_hvline_vertical_top_lsb, rotation);
 4041              		.loc 1 474 3 is_stmt 1 view .LVU752
 4042 001e 0095     		str	r5, [sp]
 4043 0020 054B     		ldr	r3, .L215+8
 4044 0022 9DF80F20 		ldrb	r2, [sp, #15]	@ zero_extendqisi2
 4045 0026 2046     		mov	r0, r4
 4046              	.LVL537:
 4047              		.loc 1 474 3 is_stmt 0 view .LVU753
 4048 0028 FFF7FEFF 		bl	u8g2_SetupBuffer
 4049              	.LVL538:
 475:u8g2_lib/u8g2_d_setup.c **** }
 4050              		.loc 1 475 1 view .LVU754
 4051 002c 05B0     		add	sp, sp, #20
 4052              	.LCFI161:
 4053              		.cfi_def_cfa_offset 12
 4054              		@ sp needed
 4055 002e 30BD     		pop	{r4, r5, pc}
 4056              	.LVL539:
 4057              	.L216:
 4058              		.loc 1 475 1 view .LVU755
 4059              		.align	2
 4060              	.L215:
 4061 0030 00000000 		.word	u8x8_cad_ssd13xx_i2c
 4062 0034 00000000 		.word	u8x8_d_sh1106_128x64_winstar
 4063 0038 00000000 		.word	u8g2_ll_hvline_vertical_top_lsb
 4064              		.cfi_endproc
 4065              	.LFE53:
 4067              		.section	.text.u8g2_Setup_sh1106_i2c_128x64_noname_2,"ax",%progbits
 4068              		.align	1
 4069              		.global	u8g2_Setup_sh1106_i2c_128x64_noname_2
 4070              		.syntax unified
 4071              		.thumb
 4072              		.thumb_func
 4073              		.fpu softvfp
 4075              	u8g2_Setup_sh1106_i2c_128x64_noname_2:
 4076              	.LVL540:
 4077              	.LFB54:
 476:u8g2_lib/u8g2_d_setup.c **** /* sh1106 2 */
 477:u8g2_lib/u8g2_d_setup.c **** void u8g2_Setup_sh1106_i2c_128x64_noname_2(u8g2_t *u8g2, const u8g2_cb_t *rotation, u8x8_msg_cb byt
 478:u8g2_lib/u8g2_d_setup.c **** {
ARM GAS  C:\Users\GKQ\AppData\Local\Temp\ccROqQZ7.s 			page 79


 4078              		.loc 1 478 1 is_stmt 1 view -0
 4079              		.cfi_startproc
 4080              		@ args = 0, pretend = 0, frame = 8
 4081              		@ frame_needed = 0, uses_anonymous_args = 0
 4082              		.loc 1 478 1 is_stmt 0 view .LVU757
 4083 0000 30B5     		push	{r4, r5, lr}
 4084              	.LCFI162:
 4085              		.cfi_def_cfa_offset 12
 4086              		.cfi_offset 4, -12
 4087              		.cfi_offset 5, -8
 4088              		.cfi_offset 14, -4
 4089 0002 85B0     		sub	sp, sp, #20
 4090              	.LCFI163:
 4091              		.cfi_def_cfa_offset 32
 4092 0004 0446     		mov	r4, r0
 4093 0006 0D46     		mov	r5, r1
 479:u8g2_lib/u8g2_d_setup.c ****   uint8_t tile_buf_height;
 4094              		.loc 1 479 3 is_stmt 1 view .LVU758
 480:u8g2_lib/u8g2_d_setup.c ****   uint8_t *buf;
 4095              		.loc 1 480 3 view .LVU759
 481:u8g2_lib/u8g2_d_setup.c ****   u8g2_SetupDisplay(u8g2, u8x8_d_sh1106_128x64_noname, u8x8_cad_ssd13xx_i2c, byte_cb, gpio_and_dela
 4096              		.loc 1 481 3 view .LVU760
 4097 0008 0093     		str	r3, [sp]
 4098 000a 1346     		mov	r3, r2
 4099              	.LVL541:
 4100              		.loc 1 481 3 is_stmt 0 view .LVU761
 4101 000c 084A     		ldr	r2, .L219
 4102              	.LVL542:
 4103              		.loc 1 481 3 view .LVU762
 4104 000e 0949     		ldr	r1, .L219+4
 4105              	.LVL543:
 4106              		.loc 1 481 3 view .LVU763
 4107 0010 FFF7FEFF 		bl	u8x8_Setup
 4108              	.LVL544:
 482:u8g2_lib/u8g2_d_setup.c ****   buf = u8g2_m_16_8_2(&tile_buf_height);
 4109              		.loc 1 482 3 is_stmt 1 view .LVU764
 4110              		.loc 1 482 9 is_stmt 0 view .LVU765
 4111 0014 0DF10F00 		add	r0, sp, #15
 4112 0018 FFF7FEFF 		bl	u8g2_m_16_8_2
 4113              	.LVL545:
 4114 001c 0146     		mov	r1, r0
 4115              	.LVL546:
 483:u8g2_lib/u8g2_d_setup.c ****   u8g2_SetupBuffer(u8g2, buf, tile_buf_height, u8g2_ll_hvline_vertical_top_lsb, rotation);
 4116              		.loc 1 483 3 is_stmt 1 view .LVU766
 4117 001e 0095     		str	r5, [sp]
 4118 0020 054B     		ldr	r3, .L219+8
 4119 0022 9DF80F20 		ldrb	r2, [sp, #15]	@ zero_extendqisi2
 4120 0026 2046     		mov	r0, r4
 4121              	.LVL547:
 4122              		.loc 1 483 3 is_stmt 0 view .LVU767
 4123 0028 FFF7FEFF 		bl	u8g2_SetupBuffer
 4124              	.LVL548:
 484:u8g2_lib/u8g2_d_setup.c **** }
 4125              		.loc 1 484 1 view .LVU768
 4126 002c 05B0     		add	sp, sp, #20
 4127              	.LCFI164:
 4128              		.cfi_def_cfa_offset 12
ARM GAS  C:\Users\GKQ\AppData\Local\Temp\ccROqQZ7.s 			page 80


 4129              		@ sp needed
 4130 002e 30BD     		pop	{r4, r5, pc}
 4131              	.LVL549:
 4132              	.L220:
 4133              		.loc 1 484 1 view .LVU769
 4134              		.align	2
 4135              	.L219:
 4136 0030 00000000 		.word	u8x8_cad_ssd13xx_i2c
 4137 0034 00000000 		.word	u8x8_d_sh1106_128x64_noname
 4138 0038 00000000 		.word	u8g2_ll_hvline_vertical_top_lsb
 4139              		.cfi_endproc
 4140              	.LFE54:
 4142              		.section	.text.u8g2_Setup_sh1106_i2c_128x64_vcomh0_2,"ax",%progbits
 4143              		.align	1
 4144              		.global	u8g2_Setup_sh1106_i2c_128x64_vcomh0_2
 4145              		.syntax unified
 4146              		.thumb
 4147              		.thumb_func
 4148              		.fpu softvfp
 4150              	u8g2_Setup_sh1106_i2c_128x64_vcomh0_2:
 4151              	.LVL550:
 4152              	.LFB55:
 485:u8g2_lib/u8g2_d_setup.c **** void u8g2_Setup_sh1106_i2c_128x64_vcomh0_2(u8g2_t *u8g2, const u8g2_cb_t *rotation, u8x8_msg_cb byt
 486:u8g2_lib/u8g2_d_setup.c **** {
 4153              		.loc 1 486 1 is_stmt 1 view -0
 4154              		.cfi_startproc
 4155              		@ args = 0, pretend = 0, frame = 8
 4156              		@ frame_needed = 0, uses_anonymous_args = 0
 4157              		.loc 1 486 1 is_stmt 0 view .LVU771
 4158 0000 30B5     		push	{r4, r5, lr}
 4159              	.LCFI165:
 4160              		.cfi_def_cfa_offset 12
 4161              		.cfi_offset 4, -12
 4162              		.cfi_offset 5, -8
 4163              		.cfi_offset 14, -4
 4164 0002 85B0     		sub	sp, sp, #20
 4165              	.LCFI166:
 4166              		.cfi_def_cfa_offset 32
 4167 0004 0446     		mov	r4, r0
 4168 0006 0D46     		mov	r5, r1
 487:u8g2_lib/u8g2_d_setup.c ****   uint8_t tile_buf_height;
 4169              		.loc 1 487 3 is_stmt 1 view .LVU772
 488:u8g2_lib/u8g2_d_setup.c ****   uint8_t *buf;
 4170              		.loc 1 488 3 view .LVU773
 489:u8g2_lib/u8g2_d_setup.c ****   u8g2_SetupDisplay(u8g2, u8x8_d_sh1106_128x64_vcomh0, u8x8_cad_ssd13xx_i2c, byte_cb, gpio_and_dela
 4171              		.loc 1 489 3 view .LVU774
 4172 0008 0093     		str	r3, [sp]
 4173 000a 1346     		mov	r3, r2
 4174              	.LVL551:
 4175              		.loc 1 489 3 is_stmt 0 view .LVU775
 4176 000c 084A     		ldr	r2, .L223
 4177              	.LVL552:
 4178              		.loc 1 489 3 view .LVU776
 4179 000e 0949     		ldr	r1, .L223+4
 4180              	.LVL553:
 4181              		.loc 1 489 3 view .LVU777
 4182 0010 FFF7FEFF 		bl	u8x8_Setup
ARM GAS  C:\Users\GKQ\AppData\Local\Temp\ccROqQZ7.s 			page 81


 4183              	.LVL554:
 490:u8g2_lib/u8g2_d_setup.c ****   buf = u8g2_m_16_8_2(&tile_buf_height);
 4184              		.loc 1 490 3 is_stmt 1 view .LVU778
 4185              		.loc 1 490 9 is_stmt 0 view .LVU779
 4186 0014 0DF10F00 		add	r0, sp, #15
 4187 0018 FFF7FEFF 		bl	u8g2_m_16_8_2
 4188              	.LVL555:
 4189 001c 0146     		mov	r1, r0
 4190              	.LVL556:
 491:u8g2_lib/u8g2_d_setup.c ****   u8g2_SetupBuffer(u8g2, buf, tile_buf_height, u8g2_ll_hvline_vertical_top_lsb, rotation);
 4191              		.loc 1 491 3 is_stmt 1 view .LVU780
 4192 001e 0095     		str	r5, [sp]
 4193 0020 054B     		ldr	r3, .L223+8
 4194 0022 9DF80F20 		ldrb	r2, [sp, #15]	@ zero_extendqisi2
 4195 0026 2046     		mov	r0, r4
 4196              	.LVL557:
 4197              		.loc 1 491 3 is_stmt 0 view .LVU781
 4198 0028 FFF7FEFF 		bl	u8g2_SetupBuffer
 4199              	.LVL558:
 492:u8g2_lib/u8g2_d_setup.c **** }
 4200              		.loc 1 492 1 view .LVU782
 4201 002c 05B0     		add	sp, sp, #20
 4202              	.LCFI167:
 4203              		.cfi_def_cfa_offset 12
 4204              		@ sp needed
 4205 002e 30BD     		pop	{r4, r5, pc}
 4206              	.LVL559:
 4207              	.L224:
 4208              		.loc 1 492 1 view .LVU783
 4209              		.align	2
 4210              	.L223:
 4211 0030 00000000 		.word	u8x8_cad_ssd13xx_i2c
 4212 0034 00000000 		.word	u8x8_d_sh1106_128x64_vcomh0
 4213 0038 00000000 		.word	u8g2_ll_hvline_vertical_top_lsb
 4214              		.cfi_endproc
 4215              	.LFE55:
 4217              		.section	.text.u8g2_Setup_sh1106_i2c_128x64_winstar_2,"ax",%progbits
 4218              		.align	1
 4219              		.global	u8g2_Setup_sh1106_i2c_128x64_winstar_2
 4220              		.syntax unified
 4221              		.thumb
 4222              		.thumb_func
 4223              		.fpu softvfp
 4225              	u8g2_Setup_sh1106_i2c_128x64_winstar_2:
 4226              	.LVL560:
 4227              	.LFB56:
 493:u8g2_lib/u8g2_d_setup.c **** void u8g2_Setup_sh1106_i2c_128x64_winstar_2(u8g2_t *u8g2, const u8g2_cb_t *rotation, u8x8_msg_cb by
 494:u8g2_lib/u8g2_d_setup.c **** {
 4228              		.loc 1 494 1 is_stmt 1 view -0
 4229              		.cfi_startproc
 4230              		@ args = 0, pretend = 0, frame = 8
 4231              		@ frame_needed = 0, uses_anonymous_args = 0
 4232              		.loc 1 494 1 is_stmt 0 view .LVU785
 4233 0000 30B5     		push	{r4, r5, lr}
 4234              	.LCFI168:
 4235              		.cfi_def_cfa_offset 12
 4236              		.cfi_offset 4, -12
ARM GAS  C:\Users\GKQ\AppData\Local\Temp\ccROqQZ7.s 			page 82


 4237              		.cfi_offset 5, -8
 4238              		.cfi_offset 14, -4
 4239 0002 85B0     		sub	sp, sp, #20
 4240              	.LCFI169:
 4241              		.cfi_def_cfa_offset 32
 4242 0004 0446     		mov	r4, r0
 4243 0006 0D46     		mov	r5, r1
 495:u8g2_lib/u8g2_d_setup.c ****   uint8_t tile_buf_height;
 4244              		.loc 1 495 3 is_stmt 1 view .LVU786
 496:u8g2_lib/u8g2_d_setup.c ****   uint8_t *buf;
 4245              		.loc 1 496 3 view .LVU787
 497:u8g2_lib/u8g2_d_setup.c ****   u8g2_SetupDisplay(u8g2, u8x8_d_sh1106_128x64_winstar, u8x8_cad_ssd13xx_i2c, byte_cb, gpio_and_del
 4246              		.loc 1 497 3 view .LVU788
 4247 0008 0093     		str	r3, [sp]
 4248 000a 1346     		mov	r3, r2
 4249              	.LVL561:
 4250              		.loc 1 497 3 is_stmt 0 view .LVU789
 4251 000c 084A     		ldr	r2, .L227
 4252              	.LVL562:
 4253              		.loc 1 497 3 view .LVU790
 4254 000e 0949     		ldr	r1, .L227+4
 4255              	.LVL563:
 4256              		.loc 1 497 3 view .LVU791
 4257 0010 FFF7FEFF 		bl	u8x8_Setup
 4258              	.LVL564:
 498:u8g2_lib/u8g2_d_setup.c ****   buf = u8g2_m_16_8_2(&tile_buf_height);
 4259              		.loc 1 498 3 is_stmt 1 view .LVU792
 4260              		.loc 1 498 9 is_stmt 0 view .LVU793
 4261 0014 0DF10F00 		add	r0, sp, #15
 4262 0018 FFF7FEFF 		bl	u8g2_m_16_8_2
 4263              	.LVL565:
 4264 001c 0146     		mov	r1, r0
 4265              	.LVL566:
 499:u8g2_lib/u8g2_d_setup.c ****   u8g2_SetupBuffer(u8g2, buf, tile_buf_height, u8g2_ll_hvline_vertical_top_lsb, rotation);
 4266              		.loc 1 499 3 is_stmt 1 view .LVU794
 4267 001e 0095     		str	r5, [sp]
 4268 0020 054B     		ldr	r3, .L227+8
 4269 0022 9DF80F20 		ldrb	r2, [sp, #15]	@ zero_extendqisi2
 4270 0026 2046     		mov	r0, r4
 4271              	.LVL567:
 4272              		.loc 1 499 3 is_stmt 0 view .LVU795
 4273 0028 FFF7FEFF 		bl	u8g2_SetupBuffer
 4274              	.LVL568:
 500:u8g2_lib/u8g2_d_setup.c **** }
 4275              		.loc 1 500 1 view .LVU796
 4276 002c 05B0     		add	sp, sp, #20
 4277              	.LCFI170:
 4278              		.cfi_def_cfa_offset 12
 4279              		@ sp needed
 4280 002e 30BD     		pop	{r4, r5, pc}
 4281              	.LVL569:
 4282              	.L228:
 4283              		.loc 1 500 1 view .LVU797
 4284              		.align	2
 4285              	.L227:
 4286 0030 00000000 		.word	u8x8_cad_ssd13xx_i2c
 4287 0034 00000000 		.word	u8x8_d_sh1106_128x64_winstar
ARM GAS  C:\Users\GKQ\AppData\Local\Temp\ccROqQZ7.s 			page 83


 4288 0038 00000000 		.word	u8g2_ll_hvline_vertical_top_lsb
 4289              		.cfi_endproc
 4290              	.LFE56:
 4292              		.section	.text.u8g2_Setup_sh1106_i2c_128x64_noname_f,"ax",%progbits
 4293              		.align	1
 4294              		.global	u8g2_Setup_sh1106_i2c_128x64_noname_f
 4295              		.syntax unified
 4296              		.thumb
 4297              		.thumb_func
 4298              		.fpu softvfp
 4300              	u8g2_Setup_sh1106_i2c_128x64_noname_f:
 4301              	.LVL570:
 4302              	.LFB57:
 501:u8g2_lib/u8g2_d_setup.c **** /* sh1106 f */
 502:u8g2_lib/u8g2_d_setup.c **** void u8g2_Setup_sh1106_i2c_128x64_noname_f(u8g2_t *u8g2, const u8g2_cb_t *rotation, u8x8_msg_cb byt
 503:u8g2_lib/u8g2_d_setup.c **** {
 4303              		.loc 1 503 1 is_stmt 1 view -0
 4304              		.cfi_startproc
 4305              		@ args = 0, pretend = 0, frame = 8
 4306              		@ frame_needed = 0, uses_anonymous_args = 0
 4307              		.loc 1 503 1 is_stmt 0 view .LVU799
 4308 0000 30B5     		push	{r4, r5, lr}
 4309              	.LCFI171:
 4310              		.cfi_def_cfa_offset 12
 4311              		.cfi_offset 4, -12
 4312              		.cfi_offset 5, -8
 4313              		.cfi_offset 14, -4
 4314 0002 85B0     		sub	sp, sp, #20
 4315              	.LCFI172:
 4316              		.cfi_def_cfa_offset 32
 4317 0004 0446     		mov	r4, r0
 4318 0006 0D46     		mov	r5, r1
 504:u8g2_lib/u8g2_d_setup.c ****   uint8_t tile_buf_height;
 4319              		.loc 1 504 3 is_stmt 1 view .LVU800
 505:u8g2_lib/u8g2_d_setup.c ****   uint8_t *buf;
 4320              		.loc 1 505 3 view .LVU801
 506:u8g2_lib/u8g2_d_setup.c ****   u8g2_SetupDisplay(u8g2, u8x8_d_sh1106_128x64_noname, u8x8_cad_ssd13xx_i2c, byte_cb, gpio_and_dela
 4321              		.loc 1 506 3 view .LVU802
 4322 0008 0093     		str	r3, [sp]
 4323 000a 1346     		mov	r3, r2
 4324              	.LVL571:
 4325              		.loc 1 506 3 is_stmt 0 view .LVU803
 4326 000c 084A     		ldr	r2, .L231
 4327              	.LVL572:
 4328              		.loc 1 506 3 view .LVU804
 4329 000e 0949     		ldr	r1, .L231+4
 4330              	.LVL573:
 4331              		.loc 1 506 3 view .LVU805
 4332 0010 FFF7FEFF 		bl	u8x8_Setup
 4333              	.LVL574:
 507:u8g2_lib/u8g2_d_setup.c ****   buf = u8g2_m_16_8_f(&tile_buf_height);
 4334              		.loc 1 507 3 is_stmt 1 view .LVU806
 4335              		.loc 1 507 9 is_stmt 0 view .LVU807
 4336 0014 0DF10F00 		add	r0, sp, #15
 4337 0018 FFF7FEFF 		bl	u8g2_m_16_8_f
 4338              	.LVL575:
 4339 001c 0146     		mov	r1, r0
ARM GAS  C:\Users\GKQ\AppData\Local\Temp\ccROqQZ7.s 			page 84


 4340              	.LVL576:
 508:u8g2_lib/u8g2_d_setup.c ****   u8g2_SetupBuffer(u8g2, buf, tile_buf_height, u8g2_ll_hvline_vertical_top_lsb, rotation);
 4341              		.loc 1 508 3 is_stmt 1 view .LVU808
 4342 001e 0095     		str	r5, [sp]
 4343 0020 054B     		ldr	r3, .L231+8
 4344 0022 9DF80F20 		ldrb	r2, [sp, #15]	@ zero_extendqisi2
 4345 0026 2046     		mov	r0, r4
 4346              	.LVL577:
 4347              		.loc 1 508 3 is_stmt 0 view .LVU809
 4348 0028 FFF7FEFF 		bl	u8g2_SetupBuffer
 4349              	.LVL578:
 509:u8g2_lib/u8g2_d_setup.c **** }
 4350              		.loc 1 509 1 view .LVU810
 4351 002c 05B0     		add	sp, sp, #20
 4352              	.LCFI173:
 4353              		.cfi_def_cfa_offset 12
 4354              		@ sp needed
 4355 002e 30BD     		pop	{r4, r5, pc}
 4356              	.LVL579:
 4357              	.L232:
 4358              		.loc 1 509 1 view .LVU811
 4359              		.align	2
 4360              	.L231:
 4361 0030 00000000 		.word	u8x8_cad_ssd13xx_i2c
 4362 0034 00000000 		.word	u8x8_d_sh1106_128x64_noname
 4363 0038 00000000 		.word	u8g2_ll_hvline_vertical_top_lsb
 4364              		.cfi_endproc
 4365              	.LFE57:
 4367              		.section	.text.u8g2_Setup_sh1106_i2c_128x64_vcomh0_f,"ax",%progbits
 4368              		.align	1
 4369              		.global	u8g2_Setup_sh1106_i2c_128x64_vcomh0_f
 4370              		.syntax unified
 4371              		.thumb
 4372              		.thumb_func
 4373              		.fpu softvfp
 4375              	u8g2_Setup_sh1106_i2c_128x64_vcomh0_f:
 4376              	.LVL580:
 4377              	.LFB58:
 510:u8g2_lib/u8g2_d_setup.c **** void u8g2_Setup_sh1106_i2c_128x64_vcomh0_f(u8g2_t *u8g2, const u8g2_cb_t *rotation, u8x8_msg_cb byt
 511:u8g2_lib/u8g2_d_setup.c **** {
 4378              		.loc 1 511 1 is_stmt 1 view -0
 4379              		.cfi_startproc
 4380              		@ args = 0, pretend = 0, frame = 8
 4381              		@ frame_needed = 0, uses_anonymous_args = 0
 4382              		.loc 1 511 1 is_stmt 0 view .LVU813
 4383 0000 30B5     		push	{r4, r5, lr}
 4384              	.LCFI174:
 4385              		.cfi_def_cfa_offset 12
 4386              		.cfi_offset 4, -12
 4387              		.cfi_offset 5, -8
 4388              		.cfi_offset 14, -4
 4389 0002 85B0     		sub	sp, sp, #20
 4390              	.LCFI175:
 4391              		.cfi_def_cfa_offset 32
 4392 0004 0446     		mov	r4, r0
 4393 0006 0D46     		mov	r5, r1
 512:u8g2_lib/u8g2_d_setup.c ****   uint8_t tile_buf_height;
ARM GAS  C:\Users\GKQ\AppData\Local\Temp\ccROqQZ7.s 			page 85


 4394              		.loc 1 512 3 is_stmt 1 view .LVU814
 513:u8g2_lib/u8g2_d_setup.c ****   uint8_t *buf;
 4395              		.loc 1 513 3 view .LVU815
 514:u8g2_lib/u8g2_d_setup.c ****   u8g2_SetupDisplay(u8g2, u8x8_d_sh1106_128x64_vcomh0, u8x8_cad_ssd13xx_i2c, byte_cb, gpio_and_dela
 4396              		.loc 1 514 3 view .LVU816
 4397 0008 0093     		str	r3, [sp]
 4398 000a 1346     		mov	r3, r2
 4399              	.LVL581:
 4400              		.loc 1 514 3 is_stmt 0 view .LVU817
 4401 000c 084A     		ldr	r2, .L235
 4402              	.LVL582:
 4403              		.loc 1 514 3 view .LVU818
 4404 000e 0949     		ldr	r1, .L235+4
 4405              	.LVL583:
 4406              		.loc 1 514 3 view .LVU819
 4407 0010 FFF7FEFF 		bl	u8x8_Setup
 4408              	.LVL584:
 515:u8g2_lib/u8g2_d_setup.c ****   buf = u8g2_m_16_8_f(&tile_buf_height);
 4409              		.loc 1 515 3 is_stmt 1 view .LVU820
 4410              		.loc 1 515 9 is_stmt 0 view .LVU821
 4411 0014 0DF10F00 		add	r0, sp, #15
 4412 0018 FFF7FEFF 		bl	u8g2_m_16_8_f
 4413              	.LVL585:
 4414 001c 0146     		mov	r1, r0
 4415              	.LVL586:
 516:u8g2_lib/u8g2_d_setup.c ****   u8g2_SetupBuffer(u8g2, buf, tile_buf_height, u8g2_ll_hvline_vertical_top_lsb, rotation);
 4416              		.loc 1 516 3 is_stmt 1 view .LVU822
 4417 001e 0095     		str	r5, [sp]
 4418 0020 054B     		ldr	r3, .L235+8
 4419 0022 9DF80F20 		ldrb	r2, [sp, #15]	@ zero_extendqisi2
 4420 0026 2046     		mov	r0, r4
 4421              	.LVL587:
 4422              		.loc 1 516 3 is_stmt 0 view .LVU823
 4423 0028 FFF7FEFF 		bl	u8g2_SetupBuffer
 4424              	.LVL588:
 517:u8g2_lib/u8g2_d_setup.c **** }
 4425              		.loc 1 517 1 view .LVU824
 4426 002c 05B0     		add	sp, sp, #20
 4427              	.LCFI176:
 4428              		.cfi_def_cfa_offset 12
 4429              		@ sp needed
 4430 002e 30BD     		pop	{r4, r5, pc}
 4431              	.LVL589:
 4432              	.L236:
 4433              		.loc 1 517 1 view .LVU825
 4434              		.align	2
 4435              	.L235:
 4436 0030 00000000 		.word	u8x8_cad_ssd13xx_i2c
 4437 0034 00000000 		.word	u8x8_d_sh1106_128x64_vcomh0
 4438 0038 00000000 		.word	u8g2_ll_hvline_vertical_top_lsb
 4439              		.cfi_endproc
 4440              	.LFE58:
 4442              		.section	.text.u8g2_Setup_sh1106_i2c_128x64_winstar_f,"ax",%progbits
 4443              		.align	1
 4444              		.global	u8g2_Setup_sh1106_i2c_128x64_winstar_f
 4445              		.syntax unified
 4446              		.thumb
ARM GAS  C:\Users\GKQ\AppData\Local\Temp\ccROqQZ7.s 			page 86


 4447              		.thumb_func
 4448              		.fpu softvfp
 4450              	u8g2_Setup_sh1106_i2c_128x64_winstar_f:
 4451              	.LVL590:
 4452              	.LFB59:
 518:u8g2_lib/u8g2_d_setup.c **** void u8g2_Setup_sh1106_i2c_128x64_winstar_f(u8g2_t *u8g2, const u8g2_cb_t *rotation, u8x8_msg_cb by
 519:u8g2_lib/u8g2_d_setup.c **** {
 4453              		.loc 1 519 1 is_stmt 1 view -0
 4454              		.cfi_startproc
 4455              		@ args = 0, pretend = 0, frame = 8
 4456              		@ frame_needed = 0, uses_anonymous_args = 0
 4457              		.loc 1 519 1 is_stmt 0 view .LVU827
 4458 0000 30B5     		push	{r4, r5, lr}
 4459              	.LCFI177:
 4460              		.cfi_def_cfa_offset 12
 4461              		.cfi_offset 4, -12
 4462              		.cfi_offset 5, -8
 4463              		.cfi_offset 14, -4
 4464 0002 85B0     		sub	sp, sp, #20
 4465              	.LCFI178:
 4466              		.cfi_def_cfa_offset 32
 4467 0004 0446     		mov	r4, r0
 4468 0006 0D46     		mov	r5, r1
 520:u8g2_lib/u8g2_d_setup.c ****   uint8_t tile_buf_height;
 4469              		.loc 1 520 3 is_stmt 1 view .LVU828
 521:u8g2_lib/u8g2_d_setup.c ****   uint8_t *buf;
 4470              		.loc 1 521 3 view .LVU829
 522:u8g2_lib/u8g2_d_setup.c ****   u8g2_SetupDisplay(u8g2, u8x8_d_sh1106_128x64_winstar, u8x8_cad_ssd13xx_i2c, byte_cb, gpio_and_del
 4471              		.loc 1 522 3 view .LVU830
 4472 0008 0093     		str	r3, [sp]
 4473 000a 1346     		mov	r3, r2
 4474              	.LVL591:
 4475              		.loc 1 522 3 is_stmt 0 view .LVU831
 4476 000c 084A     		ldr	r2, .L239
 4477              	.LVL592:
 4478              		.loc 1 522 3 view .LVU832
 4479 000e 0949     		ldr	r1, .L239+4
 4480              	.LVL593:
 4481              		.loc 1 522 3 view .LVU833
 4482 0010 FFF7FEFF 		bl	u8x8_Setup
 4483              	.LVL594:
 523:u8g2_lib/u8g2_d_setup.c ****   buf = u8g2_m_16_8_f(&tile_buf_height);
 4484              		.loc 1 523 3 is_stmt 1 view .LVU834
 4485              		.loc 1 523 9 is_stmt 0 view .LVU835
 4486 0014 0DF10F00 		add	r0, sp, #15
 4487 0018 FFF7FEFF 		bl	u8g2_m_16_8_f
 4488              	.LVL595:
 4489 001c 0146     		mov	r1, r0
 4490              	.LVL596:
 524:u8g2_lib/u8g2_d_setup.c ****   u8g2_SetupBuffer(u8g2, buf, tile_buf_height, u8g2_ll_hvline_vertical_top_lsb, rotation);
 4491              		.loc 1 524 3 is_stmt 1 view .LVU836
 4492 001e 0095     		str	r5, [sp]
 4493 0020 054B     		ldr	r3, .L239+8
 4494 0022 9DF80F20 		ldrb	r2, [sp, #15]	@ zero_extendqisi2
 4495 0026 2046     		mov	r0, r4
 4496              	.LVL597:
 4497              		.loc 1 524 3 is_stmt 0 view .LVU837
ARM GAS  C:\Users\GKQ\AppData\Local\Temp\ccROqQZ7.s 			page 87


 4498 0028 FFF7FEFF 		bl	u8g2_SetupBuffer
 4499              	.LVL598:
 525:u8g2_lib/u8g2_d_setup.c **** }
 4500              		.loc 1 525 1 view .LVU838
 4501 002c 05B0     		add	sp, sp, #20
 4502              	.LCFI179:
 4503              		.cfi_def_cfa_offset 12
 4504              		@ sp needed
 4505 002e 30BD     		pop	{r4, r5, pc}
 4506              	.LVL599:
 4507              	.L240:
 4508              		.loc 1 525 1 view .LVU839
 4509              		.align	2
 4510              	.L239:
 4511 0030 00000000 		.word	u8x8_cad_ssd13xx_i2c
 4512 0034 00000000 		.word	u8x8_d_sh1106_128x64_winstar
 4513 0038 00000000 		.word	u8g2_ll_hvline_vertical_top_lsb
 4514              		.cfi_endproc
 4515              	.LFE59:
 4517              		.section	.text.u8g2_Setup_sh1106_72x40_wise_1,"ax",%progbits
 4518              		.align	1
 4519              		.global	u8g2_Setup_sh1106_72x40_wise_1
 4520              		.syntax unified
 4521              		.thumb
 4522              		.thumb_func
 4523              		.fpu softvfp
 4525              	u8g2_Setup_sh1106_72x40_wise_1:
 4526              	.LVL600:
 4527              	.LFB60:
 526:u8g2_lib/u8g2_d_setup.c **** /* sh1106 */
 527:u8g2_lib/u8g2_d_setup.c **** /* sh1106 1 */
 528:u8g2_lib/u8g2_d_setup.c **** void u8g2_Setup_sh1106_72x40_wise_1(u8g2_t *u8g2, const u8g2_cb_t *rotation, u8x8_msg_cb byte_cb, u
 529:u8g2_lib/u8g2_d_setup.c **** {
 4528              		.loc 1 529 1 is_stmt 1 view -0
 4529              		.cfi_startproc
 4530              		@ args = 0, pretend = 0, frame = 8
 4531              		@ frame_needed = 0, uses_anonymous_args = 0
 4532              		.loc 1 529 1 is_stmt 0 view .LVU841
 4533 0000 30B5     		push	{r4, r5, lr}
 4534              	.LCFI180:
 4535              		.cfi_def_cfa_offset 12
 4536              		.cfi_offset 4, -12
 4537              		.cfi_offset 5, -8
 4538              		.cfi_offset 14, -4
 4539 0002 85B0     		sub	sp, sp, #20
 4540              	.LCFI181:
 4541              		.cfi_def_cfa_offset 32
 4542 0004 0446     		mov	r4, r0
 4543 0006 0D46     		mov	r5, r1
 530:u8g2_lib/u8g2_d_setup.c ****   uint8_t tile_buf_height;
 4544              		.loc 1 530 3 is_stmt 1 view .LVU842
 531:u8g2_lib/u8g2_d_setup.c ****   uint8_t *buf;
 4545              		.loc 1 531 3 view .LVU843
 532:u8g2_lib/u8g2_d_setup.c ****   u8g2_SetupDisplay(u8g2, u8x8_d_sh1106_72x40_wise, u8x8_cad_001, byte_cb, gpio_and_delay_cb);
 4546              		.loc 1 532 3 view .LVU844
 4547 0008 0093     		str	r3, [sp]
 4548 000a 1346     		mov	r3, r2
ARM GAS  C:\Users\GKQ\AppData\Local\Temp\ccROqQZ7.s 			page 88


 4549              	.LVL601:
 4550              		.loc 1 532 3 is_stmt 0 view .LVU845
 4551 000c 084A     		ldr	r2, .L243
 4552              	.LVL602:
 4553              		.loc 1 532 3 view .LVU846
 4554 000e 0949     		ldr	r1, .L243+4
 4555              	.LVL603:
 4556              		.loc 1 532 3 view .LVU847
 4557 0010 FFF7FEFF 		bl	u8x8_Setup
 4558              	.LVL604:
 533:u8g2_lib/u8g2_d_setup.c ****   buf = u8g2_m_9_5_1(&tile_buf_height);
 4559              		.loc 1 533 3 is_stmt 1 view .LVU848
 4560              		.loc 1 533 9 is_stmt 0 view .LVU849
 4561 0014 0DF10F00 		add	r0, sp, #15
 4562 0018 FFF7FEFF 		bl	u8g2_m_9_5_1
 4563              	.LVL605:
 4564 001c 0146     		mov	r1, r0
 4565              	.LVL606:
 534:u8g2_lib/u8g2_d_setup.c ****   u8g2_SetupBuffer(u8g2, buf, tile_buf_height, u8g2_ll_hvline_vertical_top_lsb, rotation);
 4566              		.loc 1 534 3 is_stmt 1 view .LVU850
 4567 001e 0095     		str	r5, [sp]
 4568 0020 054B     		ldr	r3, .L243+8
 4569 0022 9DF80F20 		ldrb	r2, [sp, #15]	@ zero_extendqisi2
 4570 0026 2046     		mov	r0, r4
 4571              	.LVL607:
 4572              		.loc 1 534 3 is_stmt 0 view .LVU851
 4573 0028 FFF7FEFF 		bl	u8g2_SetupBuffer
 4574              	.LVL608:
 535:u8g2_lib/u8g2_d_setup.c **** }
 4575              		.loc 1 535 1 view .LVU852
 4576 002c 05B0     		add	sp, sp, #20
 4577              	.LCFI182:
 4578              		.cfi_def_cfa_offset 12
 4579              		@ sp needed
 4580 002e 30BD     		pop	{r4, r5, pc}
 4581              	.LVL609:
 4582              	.L244:
 4583              		.loc 1 535 1 view .LVU853
 4584              		.align	2
 4585              	.L243:
 4586 0030 00000000 		.word	u8x8_cad_001
 4587 0034 00000000 		.word	u8x8_d_sh1106_72x40_wise
 4588 0038 00000000 		.word	u8g2_ll_hvline_vertical_top_lsb
 4589              		.cfi_endproc
 4590              	.LFE60:
 4592              		.section	.text.u8g2_Setup_sh1106_72x40_wise_2,"ax",%progbits
 4593              		.align	1
 4594              		.global	u8g2_Setup_sh1106_72x40_wise_2
 4595              		.syntax unified
 4596              		.thumb
 4597              		.thumb_func
 4598              		.fpu softvfp
 4600              	u8g2_Setup_sh1106_72x40_wise_2:
 4601              	.LVL610:
 4602              	.LFB61:
 536:u8g2_lib/u8g2_d_setup.c **** /* sh1106 2 */
 537:u8g2_lib/u8g2_d_setup.c **** void u8g2_Setup_sh1106_72x40_wise_2(u8g2_t *u8g2, const u8g2_cb_t *rotation, u8x8_msg_cb byte_cb, u
ARM GAS  C:\Users\GKQ\AppData\Local\Temp\ccROqQZ7.s 			page 89


 538:u8g2_lib/u8g2_d_setup.c **** {
 4603              		.loc 1 538 1 is_stmt 1 view -0
 4604              		.cfi_startproc
 4605              		@ args = 0, pretend = 0, frame = 8
 4606              		@ frame_needed = 0, uses_anonymous_args = 0
 4607              		.loc 1 538 1 is_stmt 0 view .LVU855
 4608 0000 30B5     		push	{r4, r5, lr}
 4609              	.LCFI183:
 4610              		.cfi_def_cfa_offset 12
 4611              		.cfi_offset 4, -12
 4612              		.cfi_offset 5, -8
 4613              		.cfi_offset 14, -4
 4614 0002 85B0     		sub	sp, sp, #20
 4615              	.LCFI184:
 4616              		.cfi_def_cfa_offset 32
 4617 0004 0446     		mov	r4, r0
 4618 0006 0D46     		mov	r5, r1
 539:u8g2_lib/u8g2_d_setup.c ****   uint8_t tile_buf_height;
 4619              		.loc 1 539 3 is_stmt 1 view .LVU856
 540:u8g2_lib/u8g2_d_setup.c ****   uint8_t *buf;
 4620              		.loc 1 540 3 view .LVU857
 541:u8g2_lib/u8g2_d_setup.c ****   u8g2_SetupDisplay(u8g2, u8x8_d_sh1106_72x40_wise, u8x8_cad_001, byte_cb, gpio_and_delay_cb);
 4621              		.loc 1 541 3 view .LVU858
 4622 0008 0093     		str	r3, [sp]
 4623 000a 1346     		mov	r3, r2
 4624              	.LVL611:
 4625              		.loc 1 541 3 is_stmt 0 view .LVU859
 4626 000c 084A     		ldr	r2, .L247
 4627              	.LVL612:
 4628              		.loc 1 541 3 view .LVU860
 4629 000e 0949     		ldr	r1, .L247+4
 4630              	.LVL613:
 4631              		.loc 1 541 3 view .LVU861
 4632 0010 FFF7FEFF 		bl	u8x8_Setup
 4633              	.LVL614:
 542:u8g2_lib/u8g2_d_setup.c ****   buf = u8g2_m_9_5_2(&tile_buf_height);
 4634              		.loc 1 542 3 is_stmt 1 view .LVU862
 4635              		.loc 1 542 9 is_stmt 0 view .LVU863
 4636 0014 0DF10F00 		add	r0, sp, #15
 4637 0018 FFF7FEFF 		bl	u8g2_m_9_5_2
 4638              	.LVL615:
 4639 001c 0146     		mov	r1, r0
 4640              	.LVL616:
 543:u8g2_lib/u8g2_d_setup.c ****   u8g2_SetupBuffer(u8g2, buf, tile_buf_height, u8g2_ll_hvline_vertical_top_lsb, rotation);
 4641              		.loc 1 543 3 is_stmt 1 view .LVU864
 4642 001e 0095     		str	r5, [sp]
 4643 0020 054B     		ldr	r3, .L247+8
 4644 0022 9DF80F20 		ldrb	r2, [sp, #15]	@ zero_extendqisi2
 4645 0026 2046     		mov	r0, r4
 4646              	.LVL617:
 4647              		.loc 1 543 3 is_stmt 0 view .LVU865
 4648 0028 FFF7FEFF 		bl	u8g2_SetupBuffer
 4649              	.LVL618:
 544:u8g2_lib/u8g2_d_setup.c **** }
 4650              		.loc 1 544 1 view .LVU866
 4651 002c 05B0     		add	sp, sp, #20
 4652              	.LCFI185:
ARM GAS  C:\Users\GKQ\AppData\Local\Temp\ccROqQZ7.s 			page 90


 4653              		.cfi_def_cfa_offset 12
 4654              		@ sp needed
 4655 002e 30BD     		pop	{r4, r5, pc}
 4656              	.LVL619:
 4657              	.L248:
 4658              		.loc 1 544 1 view .LVU867
 4659              		.align	2
 4660              	.L247:
 4661 0030 00000000 		.word	u8x8_cad_001
 4662 0034 00000000 		.word	u8x8_d_sh1106_72x40_wise
 4663 0038 00000000 		.word	u8g2_ll_hvline_vertical_top_lsb
 4664              		.cfi_endproc
 4665              	.LFE61:
 4667              		.section	.text.u8g2_Setup_sh1106_72x40_wise_f,"ax",%progbits
 4668              		.align	1
 4669              		.global	u8g2_Setup_sh1106_72x40_wise_f
 4670              		.syntax unified
 4671              		.thumb
 4672              		.thumb_func
 4673              		.fpu softvfp
 4675              	u8g2_Setup_sh1106_72x40_wise_f:
 4676              	.LVL620:
 4677              	.LFB62:
 545:u8g2_lib/u8g2_d_setup.c **** /* sh1106 f */
 546:u8g2_lib/u8g2_d_setup.c **** void u8g2_Setup_sh1106_72x40_wise_f(u8g2_t *u8g2, const u8g2_cb_t *rotation, u8x8_msg_cb byte_cb, u
 547:u8g2_lib/u8g2_d_setup.c **** {
 4678              		.loc 1 547 1 is_stmt 1 view -0
 4679              		.cfi_startproc
 4680              		@ args = 0, pretend = 0, frame = 8
 4681              		@ frame_needed = 0, uses_anonymous_args = 0
 4682              		.loc 1 547 1 is_stmt 0 view .LVU869
 4683 0000 30B5     		push	{r4, r5, lr}
 4684              	.LCFI186:
 4685              		.cfi_def_cfa_offset 12
 4686              		.cfi_offset 4, -12
 4687              		.cfi_offset 5, -8
 4688              		.cfi_offset 14, -4
 4689 0002 85B0     		sub	sp, sp, #20
 4690              	.LCFI187:
 4691              		.cfi_def_cfa_offset 32
 4692 0004 0446     		mov	r4, r0
 4693 0006 0D46     		mov	r5, r1
 548:u8g2_lib/u8g2_d_setup.c ****   uint8_t tile_buf_height;
 4694              		.loc 1 548 3 is_stmt 1 view .LVU870
 549:u8g2_lib/u8g2_d_setup.c ****   uint8_t *buf;
 4695              		.loc 1 549 3 view .LVU871
 550:u8g2_lib/u8g2_d_setup.c ****   u8g2_SetupDisplay(u8g2, u8x8_d_sh1106_72x40_wise, u8x8_cad_001, byte_cb, gpio_and_delay_cb);
 4696              		.loc 1 550 3 view .LVU872
 4697 0008 0093     		str	r3, [sp]
 4698 000a 1346     		mov	r3, r2
 4699              	.LVL621:
 4700              		.loc 1 550 3 is_stmt 0 view .LVU873
 4701 000c 084A     		ldr	r2, .L251
 4702              	.LVL622:
 4703              		.loc 1 550 3 view .LVU874
 4704 000e 0949     		ldr	r1, .L251+4
 4705              	.LVL623:
ARM GAS  C:\Users\GKQ\AppData\Local\Temp\ccROqQZ7.s 			page 91


 4706              		.loc 1 550 3 view .LVU875
 4707 0010 FFF7FEFF 		bl	u8x8_Setup
 4708              	.LVL624:
 551:u8g2_lib/u8g2_d_setup.c ****   buf = u8g2_m_9_5_f(&tile_buf_height);
 4709              		.loc 1 551 3 is_stmt 1 view .LVU876
 4710              		.loc 1 551 9 is_stmt 0 view .LVU877
 4711 0014 0DF10F00 		add	r0, sp, #15
 4712 0018 FFF7FEFF 		bl	u8g2_m_9_5_f
 4713              	.LVL625:
 4714 001c 0146     		mov	r1, r0
 4715              	.LVL626:
 552:u8g2_lib/u8g2_d_setup.c ****   u8g2_SetupBuffer(u8g2, buf, tile_buf_height, u8g2_ll_hvline_vertical_top_lsb, rotation);
 4716              		.loc 1 552 3 is_stmt 1 view .LVU878
 4717 001e 0095     		str	r5, [sp]
 4718 0020 054B     		ldr	r3, .L251+8
 4719 0022 9DF80F20 		ldrb	r2, [sp, #15]	@ zero_extendqisi2
 4720 0026 2046     		mov	r0, r4
 4721              	.LVL627:
 4722              		.loc 1 552 3 is_stmt 0 view .LVU879
 4723 0028 FFF7FEFF 		bl	u8g2_SetupBuffer
 4724              	.LVL628:
 553:u8g2_lib/u8g2_d_setup.c **** }
 4725              		.loc 1 553 1 view .LVU880
 4726 002c 05B0     		add	sp, sp, #20
 4727              	.LCFI188:
 4728              		.cfi_def_cfa_offset 12
 4729              		@ sp needed
 4730 002e 30BD     		pop	{r4, r5, pc}
 4731              	.LVL629:
 4732              	.L252:
 4733              		.loc 1 553 1 view .LVU881
 4734              		.align	2
 4735              	.L251:
 4736 0030 00000000 		.word	u8x8_cad_001
 4737 0034 00000000 		.word	u8x8_d_sh1106_72x40_wise
 4738 0038 00000000 		.word	u8g2_ll_hvline_vertical_top_lsb
 4739              		.cfi_endproc
 4740              	.LFE62:
 4742              		.section	.text.u8g2_Setup_sh1106_i2c_72x40_wise_1,"ax",%progbits
 4743              		.align	1
 4744              		.global	u8g2_Setup_sh1106_i2c_72x40_wise_1
 4745              		.syntax unified
 4746              		.thumb
 4747              		.thumb_func
 4748              		.fpu softvfp
 4750              	u8g2_Setup_sh1106_i2c_72x40_wise_1:
 4751              	.LVL630:
 4752              	.LFB63:
 554:u8g2_lib/u8g2_d_setup.c **** /* sh1106 */
 555:u8g2_lib/u8g2_d_setup.c **** /* sh1106 1 */
 556:u8g2_lib/u8g2_d_setup.c **** void u8g2_Setup_sh1106_i2c_72x40_wise_1(u8g2_t *u8g2, const u8g2_cb_t *rotation, u8x8_msg_cb byte_c
 557:u8g2_lib/u8g2_d_setup.c **** {
 4753              		.loc 1 557 1 is_stmt 1 view -0
 4754              		.cfi_startproc
 4755              		@ args = 0, pretend = 0, frame = 8
 4756              		@ frame_needed = 0, uses_anonymous_args = 0
 4757              		.loc 1 557 1 is_stmt 0 view .LVU883
ARM GAS  C:\Users\GKQ\AppData\Local\Temp\ccROqQZ7.s 			page 92


 4758 0000 30B5     		push	{r4, r5, lr}
 4759              	.LCFI189:
 4760              		.cfi_def_cfa_offset 12
 4761              		.cfi_offset 4, -12
 4762              		.cfi_offset 5, -8
 4763              		.cfi_offset 14, -4
 4764 0002 85B0     		sub	sp, sp, #20
 4765              	.LCFI190:
 4766              		.cfi_def_cfa_offset 32
 4767 0004 0446     		mov	r4, r0
 4768 0006 0D46     		mov	r5, r1
 558:u8g2_lib/u8g2_d_setup.c ****   uint8_t tile_buf_height;
 4769              		.loc 1 558 3 is_stmt 1 view .LVU884
 559:u8g2_lib/u8g2_d_setup.c ****   uint8_t *buf;
 4770              		.loc 1 559 3 view .LVU885
 560:u8g2_lib/u8g2_d_setup.c ****   u8g2_SetupDisplay(u8g2, u8x8_d_sh1106_72x40_wise, u8x8_cad_ssd13xx_i2c, byte_cb, gpio_and_delay_c
 4771              		.loc 1 560 3 view .LVU886
 4772 0008 0093     		str	r3, [sp]
 4773 000a 1346     		mov	r3, r2
 4774              	.LVL631:
 4775              		.loc 1 560 3 is_stmt 0 view .LVU887
 4776 000c 084A     		ldr	r2, .L255
 4777              	.LVL632:
 4778              		.loc 1 560 3 view .LVU888
 4779 000e 0949     		ldr	r1, .L255+4
 4780              	.LVL633:
 4781              		.loc 1 560 3 view .LVU889
 4782 0010 FFF7FEFF 		bl	u8x8_Setup
 4783              	.LVL634:
 561:u8g2_lib/u8g2_d_setup.c ****   buf = u8g2_m_9_5_1(&tile_buf_height);
 4784              		.loc 1 561 3 is_stmt 1 view .LVU890
 4785              		.loc 1 561 9 is_stmt 0 view .LVU891
 4786 0014 0DF10F00 		add	r0, sp, #15
 4787 0018 FFF7FEFF 		bl	u8g2_m_9_5_1
 4788              	.LVL635:
 4789 001c 0146     		mov	r1, r0
 4790              	.LVL636:
 562:u8g2_lib/u8g2_d_setup.c ****   u8g2_SetupBuffer(u8g2, buf, tile_buf_height, u8g2_ll_hvline_vertical_top_lsb, rotation);
 4791              		.loc 1 562 3 is_stmt 1 view .LVU892
 4792 001e 0095     		str	r5, [sp]
 4793 0020 054B     		ldr	r3, .L255+8
 4794 0022 9DF80F20 		ldrb	r2, [sp, #15]	@ zero_extendqisi2
 4795 0026 2046     		mov	r0, r4
 4796              	.LVL637:
 4797              		.loc 1 562 3 is_stmt 0 view .LVU893
 4798 0028 FFF7FEFF 		bl	u8g2_SetupBuffer
 4799              	.LVL638:
 563:u8g2_lib/u8g2_d_setup.c **** }
 4800              		.loc 1 563 1 view .LVU894
 4801 002c 05B0     		add	sp, sp, #20
 4802              	.LCFI191:
 4803              		.cfi_def_cfa_offset 12
 4804              		@ sp needed
 4805 002e 30BD     		pop	{r4, r5, pc}
 4806              	.LVL639:
 4807              	.L256:
 4808              		.loc 1 563 1 view .LVU895
ARM GAS  C:\Users\GKQ\AppData\Local\Temp\ccROqQZ7.s 			page 93


 4809              		.align	2
 4810              	.L255:
 4811 0030 00000000 		.word	u8x8_cad_ssd13xx_i2c
 4812 0034 00000000 		.word	u8x8_d_sh1106_72x40_wise
 4813 0038 00000000 		.word	u8g2_ll_hvline_vertical_top_lsb
 4814              		.cfi_endproc
 4815              	.LFE63:
 4817              		.section	.text.u8g2_Setup_sh1106_i2c_72x40_wise_2,"ax",%progbits
 4818              		.align	1
 4819              		.global	u8g2_Setup_sh1106_i2c_72x40_wise_2
 4820              		.syntax unified
 4821              		.thumb
 4822              		.thumb_func
 4823              		.fpu softvfp
 4825              	u8g2_Setup_sh1106_i2c_72x40_wise_2:
 4826              	.LVL640:
 4827              	.LFB64:
 564:u8g2_lib/u8g2_d_setup.c **** /* sh1106 2 */
 565:u8g2_lib/u8g2_d_setup.c **** void u8g2_Setup_sh1106_i2c_72x40_wise_2(u8g2_t *u8g2, const u8g2_cb_t *rotation, u8x8_msg_cb byte_c
 566:u8g2_lib/u8g2_d_setup.c **** {
 4828              		.loc 1 566 1 is_stmt 1 view -0
 4829              		.cfi_startproc
 4830              		@ args = 0, pretend = 0, frame = 8
 4831              		@ frame_needed = 0, uses_anonymous_args = 0
 4832              		.loc 1 566 1 is_stmt 0 view .LVU897
 4833 0000 30B5     		push	{r4, r5, lr}
 4834              	.LCFI192:
 4835              		.cfi_def_cfa_offset 12
 4836              		.cfi_offset 4, -12
 4837              		.cfi_offset 5, -8
 4838              		.cfi_offset 14, -4
 4839 0002 85B0     		sub	sp, sp, #20
 4840              	.LCFI193:
 4841              		.cfi_def_cfa_offset 32
 4842 0004 0446     		mov	r4, r0
 4843 0006 0D46     		mov	r5, r1
 567:u8g2_lib/u8g2_d_setup.c ****   uint8_t tile_buf_height;
 4844              		.loc 1 567 3 is_stmt 1 view .LVU898
 568:u8g2_lib/u8g2_d_setup.c ****   uint8_t *buf;
 4845              		.loc 1 568 3 view .LVU899
 569:u8g2_lib/u8g2_d_setup.c ****   u8g2_SetupDisplay(u8g2, u8x8_d_sh1106_72x40_wise, u8x8_cad_ssd13xx_i2c, byte_cb, gpio_and_delay_c
 4846              		.loc 1 569 3 view .LVU900
 4847 0008 0093     		str	r3, [sp]
 4848 000a 1346     		mov	r3, r2
 4849              	.LVL641:
 4850              		.loc 1 569 3 is_stmt 0 view .LVU901
 4851 000c 084A     		ldr	r2, .L259
 4852              	.LVL642:
 4853              		.loc 1 569 3 view .LVU902
 4854 000e 0949     		ldr	r1, .L259+4
 4855              	.LVL643:
 4856              		.loc 1 569 3 view .LVU903
 4857 0010 FFF7FEFF 		bl	u8x8_Setup
 4858              	.LVL644:
 570:u8g2_lib/u8g2_d_setup.c ****   buf = u8g2_m_9_5_2(&tile_buf_height);
 4859              		.loc 1 570 3 is_stmt 1 view .LVU904
 4860              		.loc 1 570 9 is_stmt 0 view .LVU905
ARM GAS  C:\Users\GKQ\AppData\Local\Temp\ccROqQZ7.s 			page 94


 4861 0014 0DF10F00 		add	r0, sp, #15
 4862 0018 FFF7FEFF 		bl	u8g2_m_9_5_2
 4863              	.LVL645:
 4864 001c 0146     		mov	r1, r0
 4865              	.LVL646:
 571:u8g2_lib/u8g2_d_setup.c ****   u8g2_SetupBuffer(u8g2, buf, tile_buf_height, u8g2_ll_hvline_vertical_top_lsb, rotation);
 4866              		.loc 1 571 3 is_stmt 1 view .LVU906
 4867 001e 0095     		str	r5, [sp]
 4868 0020 054B     		ldr	r3, .L259+8
 4869 0022 9DF80F20 		ldrb	r2, [sp, #15]	@ zero_extendqisi2
 4870 0026 2046     		mov	r0, r4
 4871              	.LVL647:
 4872              		.loc 1 571 3 is_stmt 0 view .LVU907
 4873 0028 FFF7FEFF 		bl	u8g2_SetupBuffer
 4874              	.LVL648:
 572:u8g2_lib/u8g2_d_setup.c **** }
 4875              		.loc 1 572 1 view .LVU908
 4876 002c 05B0     		add	sp, sp, #20
 4877              	.LCFI194:
 4878              		.cfi_def_cfa_offset 12
 4879              		@ sp needed
 4880 002e 30BD     		pop	{r4, r5, pc}
 4881              	.LVL649:
 4882              	.L260:
 4883              		.loc 1 572 1 view .LVU909
 4884              		.align	2
 4885              	.L259:
 4886 0030 00000000 		.word	u8x8_cad_ssd13xx_i2c
 4887 0034 00000000 		.word	u8x8_d_sh1106_72x40_wise
 4888 0038 00000000 		.word	u8g2_ll_hvline_vertical_top_lsb
 4889              		.cfi_endproc
 4890              	.LFE64:
 4892              		.section	.text.u8g2_Setup_sh1106_i2c_72x40_wise_f,"ax",%progbits
 4893              		.align	1
 4894              		.global	u8g2_Setup_sh1106_i2c_72x40_wise_f
 4895              		.syntax unified
 4896              		.thumb
 4897              		.thumb_func
 4898              		.fpu softvfp
 4900              	u8g2_Setup_sh1106_i2c_72x40_wise_f:
 4901              	.LVL650:
 4902              	.LFB65:
 573:u8g2_lib/u8g2_d_setup.c **** /* sh1106 f */
 574:u8g2_lib/u8g2_d_setup.c **** void u8g2_Setup_sh1106_i2c_72x40_wise_f(u8g2_t *u8g2, const u8g2_cb_t *rotation, u8x8_msg_cb byte_c
 575:u8g2_lib/u8g2_d_setup.c **** {
 4903              		.loc 1 575 1 is_stmt 1 view -0
