ARM GAS  C:\Users\GKQ\AppData\Local\Temp\ccTZzUR2.s 			page 1


   1              		.cpu cortex-m3
   2              		.eabi_attribute 20, 1
   3              		.eabi_attribute 21, 1
   4              		.eabi_attribute 23, 3
   5              		.eabi_attribute 24, 1
   6              		.eabi_attribute 25, 1
   7              		.eabi_attribute 26, 1
   8              		.eabi_attribute 30, 1
   9              		.eabi_attribute 34, 1
  10              		.eabi_attribute 18, 4
  11              		.file	"u8g2_d_memory.c"
  12              		.text
  13              	.Ltext0:
  14              		.cfi_sections	.debug_frame
  15              		.section	.text.u8g2_m_16_4_1,"ax",%progbits
  16              		.align	1
  17              		.global	u8g2_m_16_4_1
  18              		.arch armv7-m
  19              		.syntax unified
  20              		.thumb
  21              		.thumb_func
  22              		.fpu softvfp
  24              	u8g2_m_16_4_1:
  25              	.LVL0:
  26              	.LFB0:
  27              		.file 1 "u8g2_lib/u8g2_d_memory.c"
   1:u8g2_lib/u8g2_d_memory.c **** /* u8g2_d_memory.c */
   2:u8g2_lib/u8g2_d_memory.c **** /* generated code, codebuild, u8g2 project */
   3:u8g2_lib/u8g2_d_memory.c **** 
   4:u8g2_lib/u8g2_d_memory.c **** #include "u8g2.h"
   5:u8g2_lib/u8g2_d_memory.c **** 
   6:u8g2_lib/u8g2_d_memory.c **** uint8_t *u8g2_m_16_4_1(uint8_t *page_cnt)
   7:u8g2_lib/u8g2_d_memory.c **** {
  28              		.loc 1 7 1 view -0
  29              		.cfi_startproc
  30              		@ args = 0, pretend = 0, frame = 0
  31              		@ frame_needed = 0, uses_anonymous_args = 0
  32              		@ link register save eliminated.
   8:u8g2_lib/u8g2_d_memory.c ****   #ifdef U8G2_USE_DYNAMIC_ALLOC
   9:u8g2_lib/u8g2_d_memory.c ****   *page_cnt = 1;
  10:u8g2_lib/u8g2_d_memory.c ****   return 0;
  11:u8g2_lib/u8g2_d_memory.c ****   #else
  12:u8g2_lib/u8g2_d_memory.c ****   static uint8_t buf[128];
  33              		.loc 1 12 3 view .LVU1
  13:u8g2_lib/u8g2_d_memory.c ****   *page_cnt = 1;
  34              		.loc 1 13 3 view .LVU2
  35              		.loc 1 13 13 is_stmt 0 view .LVU3
  36 0000 0123     		movs	r3, #1
  37 0002 0370     		strb	r3, [r0]
  14:u8g2_lib/u8g2_d_memory.c ****   return buf;
  38              		.loc 1 14 3 is_stmt 1 view .LVU4
  15:u8g2_lib/u8g2_d_memory.c ****   #endif
  16:u8g2_lib/u8g2_d_memory.c **** }
  39              		.loc 1 16 1 is_stmt 0 view .LVU5
  40 0004 0048     		ldr	r0, .L2
  41              	.LVL1:
  42              		.loc 1 16 1 view .LVU6
ARM GAS  C:\Users\GKQ\AppData\Local\Temp\ccTZzUR2.s 			page 2


  43 0006 7047     		bx	lr
  44              	.L3:
  45              		.align	2
  46              	.L2:
  47 0008 00000000 		.word	.LANCHOR0
  48              		.cfi_endproc
  49              	.LFE0:
  51              		.section	.text.u8g2_m_16_4_2,"ax",%progbits
  52              		.align	1
  53              		.global	u8g2_m_16_4_2
  54              		.syntax unified
  55              		.thumb
  56              		.thumb_func
  57              		.fpu softvfp
  59              	u8g2_m_16_4_2:
  60              	.LVL2:
  61              	.LFB1:
  17:u8g2_lib/u8g2_d_memory.c **** uint8_t *u8g2_m_16_4_2(uint8_t *page_cnt)
  18:u8g2_lib/u8g2_d_memory.c **** {
  62              		.loc 1 18 1 is_stmt 1 view -0
  63              		.cfi_startproc
  64              		@ args = 0, pretend = 0, frame = 0
  65              		@ frame_needed = 0, uses_anonymous_args = 0
  66              		@ link register save eliminated.
  19:u8g2_lib/u8g2_d_memory.c ****   #ifdef U8G2_USE_DYNAMIC_ALLOC
  20:u8g2_lib/u8g2_d_memory.c ****   *page_cnt = 2;
  21:u8g2_lib/u8g2_d_memory.c ****   return 0;
  22:u8g2_lib/u8g2_d_memory.c ****   #else
  23:u8g2_lib/u8g2_d_memory.c ****   static uint8_t buf[256];
  67              		.loc 1 23 3 view .LVU8
  24:u8g2_lib/u8g2_d_memory.c ****   *page_cnt = 2;
  68              		.loc 1 24 3 view .LVU9
  69              		.loc 1 24 13 is_stmt 0 view .LVU10
  70 0000 0223     		movs	r3, #2
  71 0002 0370     		strb	r3, [r0]
  25:u8g2_lib/u8g2_d_memory.c ****   return buf;
  72              		.loc 1 25 3 is_stmt 1 view .LVU11
  26:u8g2_lib/u8g2_d_memory.c ****   #endif
  27:u8g2_lib/u8g2_d_memory.c **** }
  73              		.loc 1 27 1 is_stmt 0 view .LVU12
  74 0004 0048     		ldr	r0, .L5
  75              	.LVL3:
  76              		.loc 1 27 1 view .LVU13
  77 0006 7047     		bx	lr
  78              	.L6:
  79              		.align	2
  80              	.L5:
  81 0008 00000000 		.word	.LANCHOR1
  82              		.cfi_endproc
  83              	.LFE1:
  85              		.section	.text.u8g2_m_16_4_f,"ax",%progbits
  86              		.align	1
  87              		.global	u8g2_m_16_4_f
  88              		.syntax unified
  89              		.thumb
  90              		.thumb_func
  91              		.fpu softvfp
ARM GAS  C:\Users\GKQ\AppData\Local\Temp\ccTZzUR2.s 			page 3


  93              	u8g2_m_16_4_f:
  94              	.LVL4:
  95              	.LFB2:
  28:u8g2_lib/u8g2_d_memory.c **** uint8_t *u8g2_m_16_4_f(uint8_t *page_cnt)
  29:u8g2_lib/u8g2_d_memory.c **** {
  96              		.loc 1 29 1 is_stmt 1 view -0
  97              		.cfi_startproc
  98              		@ args = 0, pretend = 0, frame = 0
  99              		@ frame_needed = 0, uses_anonymous_args = 0
 100              		@ link register save eliminated.
  30:u8g2_lib/u8g2_d_memory.c ****   #ifdef U8G2_USE_DYNAMIC_ALLOC
  31:u8g2_lib/u8g2_d_memory.c ****   *page_cnt = 4;
  32:u8g2_lib/u8g2_d_memory.c ****   return 0;
  33:u8g2_lib/u8g2_d_memory.c ****   #else
  34:u8g2_lib/u8g2_d_memory.c ****   static uint8_t buf[512];
 101              		.loc 1 34 3 view .LVU15
  35:u8g2_lib/u8g2_d_memory.c ****   *page_cnt = 4;
 102              		.loc 1 35 3 view .LVU16
 103              		.loc 1 35 13 is_stmt 0 view .LVU17
 104 0000 0423     		movs	r3, #4
 105 0002 0370     		strb	r3, [r0]
  36:u8g2_lib/u8g2_d_memory.c ****   return buf;
 106              		.loc 1 36 3 is_stmt 1 view .LVU18
  37:u8g2_lib/u8g2_d_memory.c ****   #endif
  38:u8g2_lib/u8g2_d_memory.c **** }
 107              		.loc 1 38 1 is_stmt 0 view .LVU19
 108 0004 0048     		ldr	r0, .L8
 109              	.LVL5:
 110              		.loc 1 38 1 view .LVU20
 111 0006 7047     		bx	lr
 112              	.L9:
 113              		.align	2
 114              	.L8:
 115 0008 00000000 		.word	.LANCHOR2
 116              		.cfi_endproc
 117              	.LFE2:
 119              		.section	.text.u8g2_m_16_8_1,"ax",%progbits
 120              		.align	1
 121              		.global	u8g2_m_16_8_1
 122              		.syntax unified
 123              		.thumb
 124              		.thumb_func
 125              		.fpu softvfp
 127              	u8g2_m_16_8_1:
 128              	.LVL6:
 129              	.LFB3:
  39:u8g2_lib/u8g2_d_memory.c **** uint8_t *u8g2_m_16_8_1(uint8_t *page_cnt)
  40:u8g2_lib/u8g2_d_memory.c **** {
 130              		.loc 1 40 1 is_stmt 1 view -0
 131              		.cfi_startproc
 132              		@ args = 0, pretend = 0, frame = 0
 133              		@ frame_needed = 0, uses_anonymous_args = 0
 134              		@ link register save eliminated.
  41:u8g2_lib/u8g2_d_memory.c ****   #ifdef U8G2_USE_DYNAMIC_ALLOC
  42:u8g2_lib/u8g2_d_memory.c ****   *page_cnt = 1;
  43:u8g2_lib/u8g2_d_memory.c ****   return 0;
  44:u8g2_lib/u8g2_d_memory.c ****   #else
ARM GAS  C:\Users\GKQ\AppData\Local\Temp\ccTZzUR2.s 			page 4


  45:u8g2_lib/u8g2_d_memory.c ****   static uint8_t buf[128];
 135              		.loc 1 45 3 view .LVU22
  46:u8g2_lib/u8g2_d_memory.c ****   *page_cnt = 1;
 136              		.loc 1 46 3 view .LVU23
 137              		.loc 1 46 13 is_stmt 0 view .LVU24
 138 0000 0123     		movs	r3, #1
 139 0002 0370     		strb	r3, [r0]
  47:u8g2_lib/u8g2_d_memory.c ****   return buf;
 140              		.loc 1 47 3 is_stmt 1 view .LVU25
  48:u8g2_lib/u8g2_d_memory.c ****   #endif
  49:u8g2_lib/u8g2_d_memory.c **** }
 141              		.loc 1 49 1 is_stmt 0 view .LVU26
 142 0004 0048     		ldr	r0, .L11
 143              	.LVL7:
 144              		.loc 1 49 1 view .LVU27
 145 0006 7047     		bx	lr
 146              	.L12:
 147              		.align	2
 148              	.L11:
 149 0008 00000000 		.word	.LANCHOR3
 150              		.cfi_endproc
 151              	.LFE3:
 153              		.section	.text.u8g2_m_16_8_2,"ax",%progbits
 154              		.align	1
 155              		.global	u8g2_m_16_8_2
 156              		.syntax unified
 157              		.thumb
 158              		.thumb_func
 159              		.fpu softvfp
 161              	u8g2_m_16_8_2:
 162              	.LVL8:
 163              	.LFB4:
  50:u8g2_lib/u8g2_d_memory.c **** uint8_t *u8g2_m_16_8_2(uint8_t *page_cnt)
  51:u8g2_lib/u8g2_d_memory.c **** {
 164              		.loc 1 51 1 is_stmt 1 view -0
 165              		.cfi_startproc
 166              		@ args = 0, pretend = 0, frame = 0
 167              		@ frame_needed = 0, uses_anonymous_args = 0
 168              		@ link register save eliminated.
  52:u8g2_lib/u8g2_d_memory.c ****   #ifdef U8G2_USE_DYNAMIC_ALLOC
  53:u8g2_lib/u8g2_d_memory.c ****   *page_cnt = 2;
  54:u8g2_lib/u8g2_d_memory.c ****   return 0;
  55:u8g2_lib/u8g2_d_memory.c ****   #else
  56:u8g2_lib/u8g2_d_memory.c ****   static uint8_t buf[256];
 169              		.loc 1 56 3 view .LVU29
  57:u8g2_lib/u8g2_d_memory.c ****   *page_cnt = 2;
 170              		.loc 1 57 3 view .LVU30
 171              		.loc 1 57 13 is_stmt 0 view .LVU31
 172 0000 0223     		movs	r3, #2
 173 0002 0370     		strb	r3, [r0]
  58:u8g2_lib/u8g2_d_memory.c ****   return buf;
 174              		.loc 1 58 3 is_stmt 1 view .LVU32
  59:u8g2_lib/u8g2_d_memory.c ****   #endif
  60:u8g2_lib/u8g2_d_memory.c **** }
 175              		.loc 1 60 1 is_stmt 0 view .LVU33
 176 0004 0048     		ldr	r0, .L14
 177              	.LVL9:
ARM GAS  C:\Users\GKQ\AppData\Local\Temp\ccTZzUR2.s 			page 5


 178              		.loc 1 60 1 view .LVU34
 179 0006 7047     		bx	lr
 180              	.L15:
 181              		.align	2
 182              	.L14:
 183 0008 00000000 		.word	.LANCHOR4
 184              		.cfi_endproc
 185              	.LFE4:
 187              		.section	.text.u8g2_m_16_8_f,"ax",%progbits
 188              		.align	1
 189              		.global	u8g2_m_16_8_f
 190              		.syntax unified
 191              		.thumb
 192              		.thumb_func
 193              		.fpu softvfp
 195              	u8g2_m_16_8_f:
 196              	.LVL10:
 197              	.LFB5:
  61:u8g2_lib/u8g2_d_memory.c **** uint8_t *u8g2_m_16_8_f(uint8_t *page_cnt)
  62:u8g2_lib/u8g2_d_memory.c **** {
 198              		.loc 1 62 1 is_stmt 1 view -0
 199              		.cfi_startproc
 200              		@ args = 0, pretend = 0, frame = 0
 201              		@ frame_needed = 0, uses_anonymous_args = 0
 202              		@ link register save eliminated.
  63:u8g2_lib/u8g2_d_memory.c ****   #ifdef U8G2_USE_DYNAMIC_ALLOC
  64:u8g2_lib/u8g2_d_memory.c ****   *page_cnt = 8;
  65:u8g2_lib/u8g2_d_memory.c ****   return 0;
  66:u8g2_lib/u8g2_d_memory.c ****   #else
  67:u8g2_lib/u8g2_d_memory.c ****   static uint8_t buf[1024];
 203              		.loc 1 67 3 view .LVU36
  68:u8g2_lib/u8g2_d_memory.c ****   *page_cnt = 8;
 204              		.loc 1 68 3 view .LVU37
 205              		.loc 1 68 13 is_stmt 0 view .LVU38
 206 0000 0823     		movs	r3, #8
 207 0002 0370     		strb	r3, [r0]
  69:u8g2_lib/u8g2_d_memory.c ****   return buf;
 208              		.loc 1 69 3 is_stmt 1 view .LVU39
  70:u8g2_lib/u8g2_d_memory.c ****   #endif
  71:u8g2_lib/u8g2_d_memory.c **** }
 209              		.loc 1 71 1 is_stmt 0 view .LVU40
 210 0004 0048     		ldr	r0, .L17
 211              	.LVL11:
 212              		.loc 1 71 1 view .LVU41
 213 0006 7047     		bx	lr
 214              	.L18:
 215              		.align	2
 216              	.L17:
 217 0008 00000000 		.word	.LANCHOR5
 218              		.cfi_endproc
 219              	.LFE5:
 221              		.section	.text.u8g2_m_9_5_1,"ax",%progbits
 222              		.align	1
 223              		.global	u8g2_m_9_5_1
 224              		.syntax unified
 225              		.thumb
 226              		.thumb_func
ARM GAS  C:\Users\GKQ\AppData\Local\Temp\ccTZzUR2.s 			page 6


 227              		.fpu softvfp
 229              	u8g2_m_9_5_1:
 230              	.LVL12:
 231              	.LFB6:
  72:u8g2_lib/u8g2_d_memory.c **** uint8_t *u8g2_m_9_5_1(uint8_t *page_cnt)
  73:u8g2_lib/u8g2_d_memory.c **** {
 232              		.loc 1 73 1 is_stmt 1 view -0
 233              		.cfi_startproc
 234              		@ args = 0, pretend = 0, frame = 0
 235              		@ frame_needed = 0, uses_anonymous_args = 0
 236              		@ link register save eliminated.
  74:u8g2_lib/u8g2_d_memory.c ****   #ifdef U8G2_USE_DYNAMIC_ALLOC
  75:u8g2_lib/u8g2_d_memory.c ****   *page_cnt = 1;
  76:u8g2_lib/u8g2_d_memory.c ****   return 0;
  77:u8g2_lib/u8g2_d_memory.c ****   #else
  78:u8g2_lib/u8g2_d_memory.c ****   static uint8_t buf[72];
 237              		.loc 1 78 3 view .LVU43
  79:u8g2_lib/u8g2_d_memory.c ****   *page_cnt = 1;
 238              		.loc 1 79 3 view .LVU44
 239              		.loc 1 79 13 is_stmt 0 view .LVU45
 240 0000 0123     		movs	r3, #1
 241 0002 0370     		strb	r3, [r0]
  80:u8g2_lib/u8g2_d_memory.c ****   return buf;
 242              		.loc 1 80 3 is_stmt 1 view .LVU46
  81:u8g2_lib/u8g2_d_memory.c ****   #endif
  82:u8g2_lib/u8g2_d_memory.c **** }
 243              		.loc 1 82 1 is_stmt 0 view .LVU47
 244 0004 0048     		ldr	r0, .L20
 245              	.LVL13:
 246              		.loc 1 82 1 view .LVU48
 247 0006 7047     		bx	lr
 248              	.L21:
 249              		.align	2
 250              	.L20:
 251 0008 00000000 		.word	.LANCHOR6
 252              		.cfi_endproc
 253              	.LFE6:
 255              		.section	.text.u8g2_m_9_5_2,"ax",%progbits
 256              		.align	1
 257              		.global	u8g2_m_9_5_2
 258              		.syntax unified
 259              		.thumb
 260              		.thumb_func
 261              		.fpu softvfp
 263              	u8g2_m_9_5_2:
 264              	.LVL14:
 265              	.LFB7:
  83:u8g2_lib/u8g2_d_memory.c **** uint8_t *u8g2_m_9_5_2(uint8_t *page_cnt)
  84:u8g2_lib/u8g2_d_memory.c **** {
 266              		.loc 1 84 1 is_stmt 1 view -0
 267              		.cfi_startproc
 268              		@ args = 0, pretend = 0, frame = 0
 269              		@ frame_needed = 0, uses_anonymous_args = 0
 270              		@ link register save eliminated.
  85:u8g2_lib/u8g2_d_memory.c ****   #ifdef U8G2_USE_DYNAMIC_ALLOC
  86:u8g2_lib/u8g2_d_memory.c ****   *page_cnt = 2;
  87:u8g2_lib/u8g2_d_memory.c ****   return 0;
ARM GAS  C:\Users\GKQ\AppData\Local\Temp\ccTZzUR2.s 			page 7


  88:u8g2_lib/u8g2_d_memory.c ****   #else
  89:u8g2_lib/u8g2_d_memory.c ****   static uint8_t buf[144];
 271              		.loc 1 89 3 view .LVU50
  90:u8g2_lib/u8g2_d_memory.c ****   *page_cnt = 2;
 272              		.loc 1 90 3 view .LVU51
 273              		.loc 1 90 13 is_stmt 0 view .LVU52
 274 0000 0223     		movs	r3, #2
 275 0002 0370     		strb	r3, [r0]
  91:u8g2_lib/u8g2_d_memory.c ****   return buf;
 276              		.loc 1 91 3 is_stmt 1 view .LVU53
  92:u8g2_lib/u8g2_d_memory.c ****   #endif
  93:u8g2_lib/u8g2_d_memory.c **** }
 277              		.loc 1 93 1 is_stmt 0 view .LVU54
 278 0004 0048     		ldr	r0, .L23
 279              	.LVL15:
 280              		.loc 1 93 1 view .LVU55
 281 0006 7047     		bx	lr
 282              	.L24:
 283              		.align	2
 284              	.L23:
 285 0008 00000000 		.word	.LANCHOR7
 286              		.cfi_endproc
 287              	.LFE7:
 289              		.section	.text.u8g2_m_9_5_f,"ax",%progbits
 290              		.align	1
 291              		.global	u8g2_m_9_5_f
 292              		.syntax unified
 293              		.thumb
 294              		.thumb_func
 295              		.fpu softvfp
 297              	u8g2_m_9_5_f:
 298              	.LVL16:
 299              	.LFB8:
  94:u8g2_lib/u8g2_d_memory.c **** uint8_t *u8g2_m_9_5_f(uint8_t *page_cnt)
  95:u8g2_lib/u8g2_d_memory.c **** {
 300              		.loc 1 95 1 is_stmt 1 view -0
 301              		.cfi_startproc
 302              		@ args = 0, pretend = 0, frame = 0
 303              		@ frame_needed = 0, uses_anonymous_args = 0
 304              		@ link register save eliminated.
  96:u8g2_lib/u8g2_d_memory.c ****   #ifdef U8G2_USE_DYNAMIC_ALLOC
  97:u8g2_lib/u8g2_d_memory.c ****   *page_cnt = 5;
  98:u8g2_lib/u8g2_d_memory.c ****   return 0;
  99:u8g2_lib/u8g2_d_memory.c ****   #else
 100:u8g2_lib/u8g2_d_memory.c ****   static uint8_t buf[360];
 305              		.loc 1 100 3 view .LVU57
 101:u8g2_lib/u8g2_d_memory.c ****   *page_cnt = 5;
 306              		.loc 1 101 3 view .LVU58
 307              		.loc 1 101 13 is_stmt 0 view .LVU59
 308 0000 0523     		movs	r3, #5
 309 0002 0370     		strb	r3, [r0]
 102:u8g2_lib/u8g2_d_memory.c ****   return buf;
 310              		.loc 1 102 3 is_stmt 1 view .LVU60
 103:u8g2_lib/u8g2_d_memory.c ****   #endif
 104:u8g2_lib/u8g2_d_memory.c **** }
 311              		.loc 1 104 1 is_stmt 0 view .LVU61
 312 0004 0048     		ldr	r0, .L26
ARM GAS  C:\Users\GKQ\AppData\Local\Temp\ccTZzUR2.s 			page 8


 313              	.LVL17:
 314              		.loc 1 104 1 view .LVU62
 315 0006 7047     		bx	lr
 316              	.L27:
 317              		.align	2
 318              	.L26:
 319 0008 00000000 		.word	.LANCHOR8
 320              		.cfi_endproc
 321              	.LFE8:
 323              		.section	.text.u8g2_m_8_4_1,"ax",%progbits
 324              		.align	1
 325              		.global	u8g2_m_8_4_1
 326              		.syntax unified
 327              		.thumb
 328              		.thumb_func
 329              		.fpu softvfp
 331              	u8g2_m_8_4_1:
 332              	.LVL18:
 333              	.LFB9:
 105:u8g2_lib/u8g2_d_memory.c **** uint8_t *u8g2_m_8_4_1(uint8_t *page_cnt)
 106:u8g2_lib/u8g2_d_memory.c **** {
 334              		.loc 1 106 1 is_stmt 1 view -0
 335              		.cfi_startproc
 336              		@ args = 0, pretend = 0, frame = 0
 337              		@ frame_needed = 0, uses_anonymous_args = 0
 338              		@ link register save eliminated.
 107:u8g2_lib/u8g2_d_memory.c ****   #ifdef U8G2_USE_DYNAMIC_ALLOC
 108:u8g2_lib/u8g2_d_memory.c ****   *page_cnt = 1;
 109:u8g2_lib/u8g2_d_memory.c ****   return 0;
 110:u8g2_lib/u8g2_d_memory.c ****   #else
 111:u8g2_lib/u8g2_d_memory.c ****   static uint8_t buf[64];
 339              		.loc 1 111 3 view .LVU64
 112:u8g2_lib/u8g2_d_memory.c ****   *page_cnt = 1;
 340              		.loc 1 112 3 view .LVU65
 341              		.loc 1 112 13 is_stmt 0 view .LVU66
 342 0000 0123     		movs	r3, #1
 343 0002 0370     		strb	r3, [r0]
 113:u8g2_lib/u8g2_d_memory.c ****   return buf;
 344              		.loc 1 113 3 is_stmt 1 view .LVU67
 114:u8g2_lib/u8g2_d_memory.c ****   #endif
 115:u8g2_lib/u8g2_d_memory.c **** }
 345              		.loc 1 115 1 is_stmt 0 view .LVU68
 346 0004 0048     		ldr	r0, .L29
 347              	.LVL19:
 348              		.loc 1 115 1 view .LVU69
 349 0006 7047     		bx	lr
 350              	.L30:
 351              		.align	2
 352              	.L29:
 353 0008 00000000 		.word	.LANCHOR9
 354              		.cfi_endproc
 355              	.LFE9:
 357              		.section	.text.u8g2_m_8_4_2,"ax",%progbits
 358              		.align	1
 359              		.global	u8g2_m_8_4_2
 360              		.syntax unified
 361              		.thumb
ARM GAS  C:\Users\GKQ\AppData\Local\Temp\ccTZzUR2.s 			page 9


 362              		.thumb_func
 363              		.fpu softvfp
 365              	u8g2_m_8_4_2:
 366              	.LVL20:
 367              	.LFB10:
 116:u8g2_lib/u8g2_d_memory.c **** uint8_t *u8g2_m_8_4_2(uint8_t *page_cnt)
 117:u8g2_lib/u8g2_d_memory.c **** {
 368              		.loc 1 117 1 is_stmt 1 view -0
 369              		.cfi_startproc
 370              		@ args = 0, pretend = 0, frame = 0
 371              		@ frame_needed = 0, uses_anonymous_args = 0
 372              		@ link register save eliminated.
 118:u8g2_lib/u8g2_d_memory.c ****   #ifdef U8G2_USE_DYNAMIC_ALLOC
 119:u8g2_lib/u8g2_d_memory.c ****   *page_cnt = 2;
 120:u8g2_lib/u8g2_d_memory.c ****   return 0;
 121:u8g2_lib/u8g2_d_memory.c ****   #else
 122:u8g2_lib/u8g2_d_memory.c ****   static uint8_t buf[128];
 373              		.loc 1 122 3 view .LVU71
 123:u8g2_lib/u8g2_d_memory.c ****   *page_cnt = 2;
 374              		.loc 1 123 3 view .LVU72
 375              		.loc 1 123 13 is_stmt 0 view .LVU73
 376 0000 0223     		movs	r3, #2
 377 0002 0370     		strb	r3, [r0]
 124:u8g2_lib/u8g2_d_memory.c ****   return buf;
 378              		.loc 1 124 3 is_stmt 1 view .LVU74
 125:u8g2_lib/u8g2_d_memory.c ****   #endif
 126:u8g2_lib/u8g2_d_memory.c **** }
 379              		.loc 1 126 1 is_stmt 0 view .LVU75
 380 0004 0048     		ldr	r0, .L32
 381              	.LVL21:
 382              		.loc 1 126 1 view .LVU76
 383 0006 7047     		bx	lr
 384              	.L33:
 385              		.align	2
 386              	.L32:
 387 0008 00000000 		.word	.LANCHOR10
 388              		.cfi_endproc
 389              	.LFE10:
 391              		.section	.text.u8g2_m_8_4_f,"ax",%progbits
 392              		.align	1
 393              		.global	u8g2_m_8_4_f
 394              		.syntax unified
 395              		.thumb
 396              		.thumb_func
 397              		.fpu softvfp
 399              	u8g2_m_8_4_f:
 400              	.LVL22:
 401              	.LFB11:
 127:u8g2_lib/u8g2_d_memory.c **** uint8_t *u8g2_m_8_4_f(uint8_t *page_cnt)
 128:u8g2_lib/u8g2_d_memory.c **** {
 402              		.loc 1 128 1 is_stmt 1 view -0
 403              		.cfi_startproc
 404              		@ args = 0, pretend = 0, frame = 0
 405              		@ frame_needed = 0, uses_anonymous_args = 0
 406              		@ link register save eliminated.
 129:u8g2_lib/u8g2_d_memory.c ****   #ifdef U8G2_USE_DYNAMIC_ALLOC
 130:u8g2_lib/u8g2_d_memory.c ****   *page_cnt = 4;
ARM GAS  C:\Users\GKQ\AppData\Local\Temp\ccTZzUR2.s 			page 10


 131:u8g2_lib/u8g2_d_memory.c ****   return 0;
 132:u8g2_lib/u8g2_d_memory.c ****   #else
 133:u8g2_lib/u8g2_d_memory.c ****   static uint8_t buf[256];
 407              		.loc 1 133 3 view .LVU78
 134:u8g2_lib/u8g2_d_memory.c ****   *page_cnt = 4;
 408              		.loc 1 134 3 view .LVU79
 409              		.loc 1 134 13 is_stmt 0 view .LVU80
 410 0000 0423     		movs	r3, #4
 411 0002 0370     		strb	r3, [r0]
 135:u8g2_lib/u8g2_d_memory.c ****   return buf;
 412              		.loc 1 135 3 is_stmt 1 view .LVU81
 136:u8g2_lib/u8g2_d_memory.c ****   #endif
 137:u8g2_lib/u8g2_d_memory.c **** }
 413              		.loc 1 137 1 is_stmt 0 view .LVU82
 414 0004 0048     		ldr	r0, .L35
 415              	.LVL23:
 416              		.loc 1 137 1 view .LVU83
 417 0006 7047     		bx	lr
 418              	.L36:
 419              		.align	2
 420              	.L35:
 421 0008 00000000 		.word	.LANCHOR11
 422              		.cfi_endproc
 423              	.LFE11:
 425              		.section	.text.u8g2_m_8_16_1,"ax",%progbits
 426              		.align	1
 427              		.global	u8g2_m_8_16_1
 428              		.syntax unified
 429              		.thumb
 430              		.thumb_func
 431              		.fpu softvfp
 433              	u8g2_m_8_16_1:
 434              	.LVL24:
 435              	.LFB12:
 138:u8g2_lib/u8g2_d_memory.c **** uint8_t *u8g2_m_8_16_1(uint8_t *page_cnt)
 139:u8g2_lib/u8g2_d_memory.c **** {
 436              		.loc 1 139 1 is_stmt 1 view -0
 437              		.cfi_startproc
 438              		@ args = 0, pretend = 0, frame = 0
 439              		@ frame_needed = 0, uses_anonymous_args = 0
 440              		@ link register save eliminated.
 140:u8g2_lib/u8g2_d_memory.c ****   #ifdef U8G2_USE_DYNAMIC_ALLOC
 141:u8g2_lib/u8g2_d_memory.c ****   *page_cnt = 1;
 142:u8g2_lib/u8g2_d_memory.c ****   return 0;
 143:u8g2_lib/u8g2_d_memory.c ****   #else
 144:u8g2_lib/u8g2_d_memory.c ****   static uint8_t buf[64];
 441              		.loc 1 144 3 view .LVU85
 145:u8g2_lib/u8g2_d_memory.c ****   *page_cnt = 1;
 442              		.loc 1 145 3 view .LVU86
 443              		.loc 1 145 13 is_stmt 0 view .LVU87
 444 0000 0123     		movs	r3, #1
 445 0002 0370     		strb	r3, [r0]
 146:u8g2_lib/u8g2_d_memory.c ****   return buf;
 446              		.loc 1 146 3 is_stmt 1 view .LVU88
 147:u8g2_lib/u8g2_d_memory.c ****   #endif
 148:u8g2_lib/u8g2_d_memory.c **** }
 447              		.loc 1 148 1 is_stmt 0 view .LVU89
ARM GAS  C:\Users\GKQ\AppData\Local\Temp\ccTZzUR2.s 			page 11


 448 0004 0048     		ldr	r0, .L38
 449              	.LVL25:
 450              		.loc 1 148 1 view .LVU90
 451 0006 7047     		bx	lr
 452              	.L39:
 453              		.align	2
 454              	.L38:
 455 0008 00000000 		.word	.LANCHOR12
 456              		.cfi_endproc
 457              	.LFE12:
 459              		.section	.text.u8g2_m_8_16_2,"ax",%progbits
 460              		.align	1
 461              		.global	u8g2_m_8_16_2
 462              		.syntax unified
 463              		.thumb
 464              		.thumb_func
 465              		.fpu softvfp
 467              	u8g2_m_8_16_2:
 468              	.LVL26:
 469              	.LFB13:
 149:u8g2_lib/u8g2_d_memory.c **** uint8_t *u8g2_m_8_16_2(uint8_t *page_cnt)
 150:u8g2_lib/u8g2_d_memory.c **** {
 470              		.loc 1 150 1 is_stmt 1 view -0
 471              		.cfi_startproc
 472              		@ args = 0, pretend = 0, frame = 0
 473              		@ frame_needed = 0, uses_anonymous_args = 0
 474              		@ link register save eliminated.
 151:u8g2_lib/u8g2_d_memory.c ****   #ifdef U8G2_USE_DYNAMIC_ALLOC
 152:u8g2_lib/u8g2_d_memory.c ****   *page_cnt = 2;
 153:u8g2_lib/u8g2_d_memory.c ****   return 0;
 154:u8g2_lib/u8g2_d_memory.c ****   #else
 155:u8g2_lib/u8g2_d_memory.c ****   static uint8_t buf[128];
 475              		.loc 1 155 3 view .LVU92
 156:u8g2_lib/u8g2_d_memory.c ****   *page_cnt = 2;
 476              		.loc 1 156 3 view .LVU93
 477              		.loc 1 156 13 is_stmt 0 view .LVU94
 478 0000 0223     		movs	r3, #2
 479 0002 0370     		strb	r3, [r0]
 157:u8g2_lib/u8g2_d_memory.c ****   return buf;
 480              		.loc 1 157 3 is_stmt 1 view .LVU95
 158:u8g2_lib/u8g2_d_memory.c ****   #endif
 159:u8g2_lib/u8g2_d_memory.c **** }
 481              		.loc 1 159 1 is_stmt 0 view .LVU96
 482 0004 0048     		ldr	r0, .L41
 483              	.LVL27:
 484              		.loc 1 159 1 view .LVU97
 485 0006 7047     		bx	lr
 486              	.L42:
 487              		.align	2
 488              	.L41:
 489 0008 00000000 		.word	.LANCHOR13
 490              		.cfi_endproc
 491              	.LFE13:
 493              		.section	.text.u8g2_m_8_16_f,"ax",%progbits
 494              		.align	1
 495              		.global	u8g2_m_8_16_f
 496              		.syntax unified
ARM GAS  C:\Users\GKQ\AppData\Local\Temp\ccTZzUR2.s 			page 12


 497              		.thumb
 498              		.thumb_func
 499              		.fpu softvfp
 501              	u8g2_m_8_16_f:
 502              	.LVL28:
 503              	.LFB14:
 160:u8g2_lib/u8g2_d_memory.c **** uint8_t *u8g2_m_8_16_f(uint8_t *page_cnt)
 161:u8g2_lib/u8g2_d_memory.c **** {
 504              		.loc 1 161 1 is_stmt 1 view -0
 505              		.cfi_startproc
 506              		@ args = 0, pretend = 0, frame = 0
 507              		@ frame_needed = 0, uses_anonymous_args = 0
 508              		@ link register save eliminated.
 162:u8g2_lib/u8g2_d_memory.c ****   #ifdef U8G2_USE_DYNAMIC_ALLOC
 163:u8g2_lib/u8g2_d_memory.c ****   *page_cnt = 16;
 164:u8g2_lib/u8g2_d_memory.c ****   return 0;
 165:u8g2_lib/u8g2_d_memory.c ****   #else
 166:u8g2_lib/u8g2_d_memory.c ****   static uint8_t buf[1024];
 509              		.loc 1 166 3 view .LVU99
 167:u8g2_lib/u8g2_d_memory.c ****   *page_cnt = 16;
 510              		.loc 1 167 3 view .LVU100
 511              		.loc 1 167 13 is_stmt 0 view .LVU101
 512 0000 1023     		movs	r3, #16
 513 0002 0370     		strb	r3, [r0]
 168:u8g2_lib/u8g2_d_memory.c ****   return buf;
 514              		.loc 1 168 3 is_stmt 1 view .LVU102
 169:u8g2_lib/u8g2_d_memory.c ****   #endif
 170:u8g2_lib/u8g2_d_memory.c **** }
 515              		.loc 1 170 1 is_stmt 0 view .LVU103
 516 0004 0048     		ldr	r0, .L44
 517              	.LVL29:
 518              		.loc 1 170 1 view .LVU104
 519 0006 7047     		bx	lr
 520              	.L45:
 521              		.align	2
 522              	.L44:
 523 0008 00000000 		.word	.LANCHOR14
 524              		.cfi_endproc
 525              	.LFE14:
 527              		.section	.text.u8g2_m_12_12_1,"ax",%progbits
 528              		.align	1
 529              		.global	u8g2_m_12_12_1
 530              		.syntax unified
 531              		.thumb
 532              		.thumb_func
 533              		.fpu softvfp
 535              	u8g2_m_12_12_1:
 536              	.LVL30:
 537              	.LFB15:
 171:u8g2_lib/u8g2_d_memory.c **** uint8_t *u8g2_m_12_12_1(uint8_t *page_cnt)
 172:u8g2_lib/u8g2_d_memory.c **** {
 538              		.loc 1 172 1 is_stmt 1 view -0
 539              		.cfi_startproc
 540              		@ args = 0, pretend = 0, frame = 0
 541              		@ frame_needed = 0, uses_anonymous_args = 0
 542              		@ link register save eliminated.
 173:u8g2_lib/u8g2_d_memory.c ****   #ifdef U8G2_USE_DYNAMIC_ALLOC
ARM GAS  C:\Users\GKQ\AppData\Local\Temp\ccTZzUR2.s 			page 13


 174:u8g2_lib/u8g2_d_memory.c ****   *page_cnt = 1;
 175:u8g2_lib/u8g2_d_memory.c ****   return 0;
 176:u8g2_lib/u8g2_d_memory.c ****   #else
 177:u8g2_lib/u8g2_d_memory.c ****   static uint8_t buf[96];
 543              		.loc 1 177 3 view .LVU106
 178:u8g2_lib/u8g2_d_memory.c ****   *page_cnt = 1;
 544              		.loc 1 178 3 view .LVU107
 545              		.loc 1 178 13 is_stmt 0 view .LVU108
 546 0000 0123     		movs	r3, #1
 547 0002 0370     		strb	r3, [r0]
 179:u8g2_lib/u8g2_d_memory.c ****   return buf;
 548              		.loc 1 179 3 is_stmt 1 view .LVU109
 180:u8g2_lib/u8g2_d_memory.c ****   #endif
 181:u8g2_lib/u8g2_d_memory.c **** }
 549              		.loc 1 181 1 is_stmt 0 view .LVU110
 550 0004 0048     		ldr	r0, .L47
 551              	.LVL31:
 552              		.loc 1 181 1 view .LVU111
 553 0006 7047     		bx	lr
 554              	.L48:
 555              		.align	2
 556              	.L47:
 557 0008 00000000 		.word	.LANCHOR15
 558              		.cfi_endproc
 559              	.LFE15:
 561              		.section	.text.u8g2_m_12_12_2,"ax",%progbits
 562              		.align	1
 563              		.global	u8g2_m_12_12_2
 564              		.syntax unified
 565              		.thumb
 566              		.thumb_func
 567              		.fpu softvfp
 569              	u8g2_m_12_12_2:
 570              	.LVL32:
 571              	.LFB16:
 182:u8g2_lib/u8g2_d_memory.c **** uint8_t *u8g2_m_12_12_2(uint8_t *page_cnt)
 183:u8g2_lib/u8g2_d_memory.c **** {
 572              		.loc 1 183 1 is_stmt 1 view -0
 573              		.cfi_startproc
 574              		@ args = 0, pretend = 0, frame = 0
 575              		@ frame_needed = 0, uses_anonymous_args = 0
 576              		@ link register save eliminated.
 184:u8g2_lib/u8g2_d_memory.c ****   #ifdef U8G2_USE_DYNAMIC_ALLOC
 185:u8g2_lib/u8g2_d_memory.c ****   *page_cnt = 2;
 186:u8g2_lib/u8g2_d_memory.c ****   return 0;
 187:u8g2_lib/u8g2_d_memory.c ****   #else
 188:u8g2_lib/u8g2_d_memory.c ****   static uint8_t buf[192];
 577              		.loc 1 188 3 view .LVU113
 189:u8g2_lib/u8g2_d_memory.c ****   *page_cnt = 2;
 578              		.loc 1 189 3 view .LVU114
 579              		.loc 1 189 13 is_stmt 0 view .LVU115
 580 0000 0223     		movs	r3, #2
 581 0002 0370     		strb	r3, [r0]
 190:u8g2_lib/u8g2_d_memory.c ****   return buf;
 582              		.loc 1 190 3 is_stmt 1 view .LVU116
 191:u8g2_lib/u8g2_d_memory.c ****   #endif
 192:u8g2_lib/u8g2_d_memory.c **** }
ARM GAS  C:\Users\GKQ\AppData\Local\Temp\ccTZzUR2.s 			page 14


 583              		.loc 1 192 1 is_stmt 0 view .LVU117
 584 0004 0048     		ldr	r0, .L50
 585              	.LVL33:
 586              		.loc 1 192 1 view .LVU118
 587 0006 7047     		bx	lr
 588              	.L51:
 589              		.align	2
 590              	.L50:
 591 0008 00000000 		.word	.LANCHOR16
 592              		.cfi_endproc
 593              	.LFE16:
 595              		.section	.text.u8g2_m_12_12_f,"ax",%progbits
 596              		.align	1
 597              		.global	u8g2_m_12_12_f
 598              		.syntax unified
 599              		.thumb
 600              		.thumb_func
 601              		.fpu softvfp
 603              	u8g2_m_12_12_f:
 604              	.LVL34:
 605              	.LFB17:
 193:u8g2_lib/u8g2_d_memory.c **** uint8_t *u8g2_m_12_12_f(uint8_t *page_cnt)
 194:u8g2_lib/u8g2_d_memory.c **** {
 606              		.loc 1 194 1 is_stmt 1 view -0
 607              		.cfi_startproc
 608              		@ args = 0, pretend = 0, frame = 0
 609              		@ frame_needed = 0, uses_anonymous_args = 0
 610              		@ link register save eliminated.
 195:u8g2_lib/u8g2_d_memory.c ****   #ifdef U8G2_USE_DYNAMIC_ALLOC
 196:u8g2_lib/u8g2_d_memory.c ****   *page_cnt = 12;
 197:u8g2_lib/u8g2_d_memory.c ****   return 0;
 198:u8g2_lib/u8g2_d_memory.c ****   #else
 199:u8g2_lib/u8g2_d_memory.c ****   static uint8_t buf[1152];
 611              		.loc 1 199 3 view .LVU120
 200:u8g2_lib/u8g2_d_memory.c ****   *page_cnt = 12;
 612              		.loc 1 200 3 view .LVU121
 613              		.loc 1 200 13 is_stmt 0 view .LVU122
 614 0000 0C23     		movs	r3, #12
 615 0002 0370     		strb	r3, [r0]
 201:u8g2_lib/u8g2_d_memory.c ****   return buf;
 616              		.loc 1 201 3 is_stmt 1 view .LVU123
 202:u8g2_lib/u8g2_d_memory.c ****   #endif
 203:u8g2_lib/u8g2_d_memory.c **** }
 617              		.loc 1 203 1 is_stmt 0 view .LVU124
 618 0004 0048     		ldr	r0, .L53
 619              	.LVL35:
 620              		.loc 1 203 1 view .LVU125
 621 0006 7047     		bx	lr
 622              	.L54:
 623              		.align	2
 624              	.L53:
 625 0008 00000000 		.word	.LANCHOR17
 626              		.cfi_endproc
 627              	.LFE17:
 629              		.section	.text.u8g2_m_16_16_1,"ax",%progbits
 630              		.align	1
 631              		.global	u8g2_m_16_16_1
ARM GAS  C:\Users\GKQ\AppData\Local\Temp\ccTZzUR2.s 			page 15


 632              		.syntax unified
 633              		.thumb
 634              		.thumb_func
 635              		.fpu softvfp
 637              	u8g2_m_16_16_1:
 638              	.LVL36:
 639              	.LFB18:
 204:u8g2_lib/u8g2_d_memory.c **** uint8_t *u8g2_m_16_16_1(uint8_t *page_cnt)
 205:u8g2_lib/u8g2_d_memory.c **** {
 640              		.loc 1 205 1 is_stmt 1 view -0
 641              		.cfi_startproc
 642              		@ args = 0, pretend = 0, frame = 0
 643              		@ frame_needed = 0, uses_anonymous_args = 0
 644              		@ link register save eliminated.
 206:u8g2_lib/u8g2_d_memory.c ****   #ifdef U8G2_USE_DYNAMIC_ALLOC
 207:u8g2_lib/u8g2_d_memory.c ****   *page_cnt = 1;
 208:u8g2_lib/u8g2_d_memory.c ****   return 0;
 209:u8g2_lib/u8g2_d_memory.c ****   #else
 210:u8g2_lib/u8g2_d_memory.c ****   static uint8_t buf[128];
 645              		.loc 1 210 3 view .LVU127
 211:u8g2_lib/u8g2_d_memory.c ****   *page_cnt = 1;
 646              		.loc 1 211 3 view .LVU128
 647              		.loc 1 211 13 is_stmt 0 view .LVU129
 648 0000 0123     		movs	r3, #1
 649 0002 0370     		strb	r3, [r0]
 212:u8g2_lib/u8g2_d_memory.c ****   return buf;
 650              		.loc 1 212 3 is_stmt 1 view .LVU130
 213:u8g2_lib/u8g2_d_memory.c ****   #endif
 214:u8g2_lib/u8g2_d_memory.c **** }
 651              		.loc 1 214 1 is_stmt 0 view .LVU131
 652 0004 0048     		ldr	r0, .L56
 653              	.LVL37:
 654              		.loc 1 214 1 view .LVU132
 655 0006 7047     		bx	lr
 656              	.L57:
 657              		.align	2
 658              	.L56:
 659 0008 00000000 		.word	.LANCHOR18
 660              		.cfi_endproc
 661              	.LFE18:
 663              		.section	.text.u8g2_m_16_16_2,"ax",%progbits
 664              		.align	1
 665              		.global	u8g2_m_16_16_2
 666              		.syntax unified
 667              		.thumb
 668              		.thumb_func
 669              		.fpu softvfp
 671              	u8g2_m_16_16_2:
 672              	.LVL38:
 673              	.LFB19:
 215:u8g2_lib/u8g2_d_memory.c **** uint8_t *u8g2_m_16_16_2(uint8_t *page_cnt)
 216:u8g2_lib/u8g2_d_memory.c **** {
 674              		.loc 1 216 1 is_stmt 1 view -0
 675              		.cfi_startproc
 676              		@ args = 0, pretend = 0, frame = 0
 677              		@ frame_needed = 0, uses_anonymous_args = 0
 678              		@ link register save eliminated.
ARM GAS  C:\Users\GKQ\AppData\Local\Temp\ccTZzUR2.s 			page 16


 217:u8g2_lib/u8g2_d_memory.c ****   #ifdef U8G2_USE_DYNAMIC_ALLOC
 218:u8g2_lib/u8g2_d_memory.c ****   *page_cnt = 2;
 219:u8g2_lib/u8g2_d_memory.c ****   return 0;
 220:u8g2_lib/u8g2_d_memory.c ****   #else
 221:u8g2_lib/u8g2_d_memory.c ****   static uint8_t buf[256];
 679              		.loc 1 221 3 view .LVU134
 222:u8g2_lib/u8g2_d_memory.c ****   *page_cnt = 2;
 680              		.loc 1 222 3 view .LVU135
 681              		.loc 1 222 13 is_stmt 0 view .LVU136
 682 0000 0223     		movs	r3, #2
 683 0002 0370     		strb	r3, [r0]
 223:u8g2_lib/u8g2_d_memory.c ****   return buf;
 684              		.loc 1 223 3 is_stmt 1 view .LVU137
 224:u8g2_lib/u8g2_d_memory.c ****   #endif
 225:u8g2_lib/u8g2_d_memory.c **** }
 685              		.loc 1 225 1 is_stmt 0 view .LVU138
 686 0004 0048     		ldr	r0, .L59
 687              	.LVL39:
 688              		.loc 1 225 1 view .LVU139
 689 0006 7047     		bx	lr
 690              	.L60:
 691              		.align	2
 692              	.L59:
 693 0008 00000000 		.word	.LANCHOR19
 694              		.cfi_endproc
 695              	.LFE19:
 697              		.section	.text.u8g2_m_16_16_f,"ax",%progbits
 698              		.align	1
 699              		.global	u8g2_m_16_16_f
 700              		.syntax unified
 701              		.thumb
 702              		.thumb_func
 703              		.fpu softvfp
 705              	u8g2_m_16_16_f:
 706              	.LVL40:
 707              	.LFB20:
 226:u8g2_lib/u8g2_d_memory.c **** uint8_t *u8g2_m_16_16_f(uint8_t *page_cnt)
 227:u8g2_lib/u8g2_d_memory.c **** {
 708              		.loc 1 227 1 is_stmt 1 view -0
 709              		.cfi_startproc
 710              		@ args = 0, pretend = 0, frame = 0
 711              		@ frame_needed = 0, uses_anonymous_args = 0
 712              		@ link register save eliminated.
 228:u8g2_lib/u8g2_d_memory.c ****   #ifdef U8G2_USE_DYNAMIC_ALLOC
 229:u8g2_lib/u8g2_d_memory.c ****   *page_cnt = 16;
 230:u8g2_lib/u8g2_d_memory.c ****   return 0;
 231:u8g2_lib/u8g2_d_memory.c ****   #else
 232:u8g2_lib/u8g2_d_memory.c ****   static uint8_t buf[2048];
 713              		.loc 1 232 3 view .LVU141
 233:u8g2_lib/u8g2_d_memory.c ****   *page_cnt = 16;
 714              		.loc 1 233 3 view .LVU142
 715              		.loc 1 233 13 is_stmt 0 view .LVU143
 716 0000 1023     		movs	r3, #16
 717 0002 0370     		strb	r3, [r0]
 234:u8g2_lib/u8g2_d_memory.c ****   return buf;
 718              		.loc 1 234 3 is_stmt 1 view .LVU144
 235:u8g2_lib/u8g2_d_memory.c ****   #endif
ARM GAS  C:\Users\GKQ\AppData\Local\Temp\ccTZzUR2.s 			page 17


 236:u8g2_lib/u8g2_d_memory.c **** }
 719              		.loc 1 236 1 is_stmt 0 view .LVU145
 720 0004 0048     		ldr	r0, .L62
 721              	.LVL41:
 722              		.loc 1 236 1 view .LVU146
 723 0006 7047     		bx	lr
 724              	.L63:
 725              		.align	2
 726              	.L62:
 727 0008 00000000 		.word	.LANCHOR20
 728              		.cfi_endproc
 729              	.LFE20:
 731              		.section	.text.u8g2_m_20_20_1,"ax",%progbits
 732              		.align	1
 733              		.global	u8g2_m_20_20_1
 734              		.syntax unified
 735              		.thumb
 736              		.thumb_func
 737              		.fpu softvfp
 739              	u8g2_m_20_20_1:
 740              	.LVL42:
 741              	.LFB21:
 237:u8g2_lib/u8g2_d_memory.c **** uint8_t *u8g2_m_20_20_1(uint8_t *page_cnt)
 238:u8g2_lib/u8g2_d_memory.c **** {
 742              		.loc 1 238 1 is_stmt 1 view -0
 743              		.cfi_startproc
 744              		@ args = 0, pretend = 0, frame = 0
 745              		@ frame_needed = 0, uses_anonymous_args = 0
 746              		@ link register save eliminated.
 239:u8g2_lib/u8g2_d_memory.c ****   #ifdef U8G2_USE_DYNAMIC_ALLOC
 240:u8g2_lib/u8g2_d_memory.c ****   *page_cnt = 1;
 241:u8g2_lib/u8g2_d_memory.c ****   return 0;
 242:u8g2_lib/u8g2_d_memory.c ****   #else
 243:u8g2_lib/u8g2_d_memory.c ****   static uint8_t buf[160];
 747              		.loc 1 243 3 view .LVU148
 244:u8g2_lib/u8g2_d_memory.c ****   *page_cnt = 1;
 748              		.loc 1 244 3 view .LVU149
 749              		.loc 1 244 13 is_stmt 0 view .LVU150
 750 0000 0123     		movs	r3, #1
 751 0002 0370     		strb	r3, [r0]
 245:u8g2_lib/u8g2_d_memory.c ****   return buf;
 752              		.loc 1 245 3 is_stmt 1 view .LVU151
 246:u8g2_lib/u8g2_d_memory.c ****   #endif
 247:u8g2_lib/u8g2_d_memory.c **** }
 753              		.loc 1 247 1 is_stmt 0 view .LVU152
 754 0004 0048     		ldr	r0, .L65
 755              	.LVL43:
 756              		.loc 1 247 1 view .LVU153
 757 0006 7047     		bx	lr
 758              	.L66:
 759              		.align	2
 760              	.L65:
 761 0008 00000000 		.word	.LANCHOR21
 762              		.cfi_endproc
 763              	.LFE21:
 765              		.section	.text.u8g2_m_20_20_2,"ax",%progbits
 766              		.align	1
ARM GAS  C:\Users\GKQ\AppData\Local\Temp\ccTZzUR2.s 			page 18


 767              		.global	u8g2_m_20_20_2
 768              		.syntax unified
 769              		.thumb
 770              		.thumb_func
 771              		.fpu softvfp
 773              	u8g2_m_20_20_2:
 774              	.LVL44:
 775              	.LFB22:
 248:u8g2_lib/u8g2_d_memory.c **** uint8_t *u8g2_m_20_20_2(uint8_t *page_cnt)
 249:u8g2_lib/u8g2_d_memory.c **** {
 776              		.loc 1 249 1 is_stmt 1 view -0
 777              		.cfi_startproc
 778              		@ args = 0, pretend = 0, frame = 0
 779              		@ frame_needed = 0, uses_anonymous_args = 0
 780              		@ link register save eliminated.
 250:u8g2_lib/u8g2_d_memory.c ****   #ifdef U8G2_USE_DYNAMIC_ALLOC
 251:u8g2_lib/u8g2_d_memory.c ****   *page_cnt = 2;
 252:u8g2_lib/u8g2_d_memory.c ****   return 0;
 253:u8g2_lib/u8g2_d_memory.c ****   #else
 254:u8g2_lib/u8g2_d_memory.c ****   static uint8_t buf[320];
 781              		.loc 1 254 3 view .LVU155
 255:u8g2_lib/u8g2_d_memory.c ****   *page_cnt = 2;
 782              		.loc 1 255 3 view .LVU156
 783              		.loc 1 255 13 is_stmt 0 view .LVU157
 784 0000 0223     		movs	r3, #2
 785 0002 0370     		strb	r3, [r0]
 256:u8g2_lib/u8g2_d_memory.c ****   return buf;
 786              		.loc 1 256 3 is_stmt 1 view .LVU158
 257:u8g2_lib/u8g2_d_memory.c ****   #endif
 258:u8g2_lib/u8g2_d_memory.c **** }
 787              		.loc 1 258 1 is_stmt 0 view .LVU159
 788 0004 0048     		ldr	r0, .L68
 789              	.LVL45:
 790              		.loc 1 258 1 view .LVU160
 791 0006 7047     		bx	lr
 792              	.L69:
 793              		.align	2
 794              	.L68:
 795 0008 00000000 		.word	.LANCHOR22
 796              		.cfi_endproc
 797              	.LFE22:
 799              		.section	.text.u8g2_m_20_20_f,"ax",%progbits
 800              		.align	1
 801              		.global	u8g2_m_20_20_f
 802              		.syntax unified
 803              		.thumb
 804              		.thumb_func
 805              		.fpu softvfp
 807              	u8g2_m_20_20_f:
 808              	.LVL46:
 809              	.LFB23:
 259:u8g2_lib/u8g2_d_memory.c **** uint8_t *u8g2_m_20_20_f(uint8_t *page_cnt)
 260:u8g2_lib/u8g2_d_memory.c **** {
 810              		.loc 1 260 1 is_stmt 1 view -0
 811              		.cfi_startproc
 812              		@ args = 0, pretend = 0, frame = 0
 813              		@ frame_needed = 0, uses_anonymous_args = 0
ARM GAS  C:\Users\GKQ\AppData\Local\Temp\ccTZzUR2.s 			page 19


 814              		@ link register save eliminated.
 261:u8g2_lib/u8g2_d_memory.c ****   #ifdef U8G2_USE_DYNAMIC_ALLOC
 262:u8g2_lib/u8g2_d_memory.c ****   *page_cnt = 20;
 263:u8g2_lib/u8g2_d_memory.c ****   return 0;
 264:u8g2_lib/u8g2_d_memory.c ****   #else
 265:u8g2_lib/u8g2_d_memory.c ****   static uint8_t buf[3200];
 815              		.loc 1 265 3 view .LVU162
 266:u8g2_lib/u8g2_d_memory.c ****   *page_cnt = 20;
 816              		.loc 1 266 3 view .LVU163
 817              		.loc 1 266 13 is_stmt 0 view .LVU164
 818 0000 1423     		movs	r3, #20
 819 0002 0370     		strb	r3, [r0]
 267:u8g2_lib/u8g2_d_memory.c ****   return buf;
 820              		.loc 1 267 3 is_stmt 1 view .LVU165
 268:u8g2_lib/u8g2_d_memory.c ****   #endif
 269:u8g2_lib/u8g2_d_memory.c **** }
 821              		.loc 1 269 1 is_stmt 0 view .LVU166
 822 0004 0048     		ldr	r0, .L71
 823              	.LVL47:
 824              		.loc 1 269 1 view .LVU167
 825 0006 7047     		bx	lr
 826              	.L72:
 827              		.align	2
 828              	.L71:
 829 0008 00000000 		.word	.LANCHOR23
 830              		.cfi_endproc
 831              	.LFE23:
 833              		.section	.text.u8g2_m_32_8_1,"ax",%progbits
 834              		.align	1
 835              		.global	u8g2_m_32_8_1
 836              		.syntax unified
 837              		.thumb
 838              		.thumb_func
 839              		.fpu softvfp
 841              	u8g2_m_32_8_1:
 842              	.LVL48:
 843              	.LFB24:
 270:u8g2_lib/u8g2_d_memory.c **** uint8_t *u8g2_m_32_8_1(uint8_t *page_cnt)
 271:u8g2_lib/u8g2_d_memory.c **** {
 844              		.loc 1 271 1 is_stmt 1 view -0
 845              		.cfi_startproc
 846              		@ args = 0, pretend = 0, frame = 0
 847              		@ frame_needed = 0, uses_anonymous_args = 0
 848              		@ link register save eliminated.
 272:u8g2_lib/u8g2_d_memory.c ****   #ifdef U8G2_USE_DYNAMIC_ALLOC
 273:u8g2_lib/u8g2_d_memory.c ****   *page_cnt = 1;
 274:u8g2_lib/u8g2_d_memory.c ****   return 0;
 275:u8g2_lib/u8g2_d_memory.c ****   #else
 276:u8g2_lib/u8g2_d_memory.c ****   static uint8_t buf[256];
 849              		.loc 1 276 3 view .LVU169
 277:u8g2_lib/u8g2_d_memory.c ****   *page_cnt = 1;
 850              		.loc 1 277 3 view .LVU170
 851              		.loc 1 277 13 is_stmt 0 view .LVU171
 852 0000 0123     		movs	r3, #1
 853 0002 0370     		strb	r3, [r0]
 278:u8g2_lib/u8g2_d_memory.c ****   return buf;
 854              		.loc 1 278 3 is_stmt 1 view .LVU172
ARM GAS  C:\Users\GKQ\AppData\Local\Temp\ccTZzUR2.s 			page 20


 279:u8g2_lib/u8g2_d_memory.c ****   #endif
 280:u8g2_lib/u8g2_d_memory.c **** }
 855              		.loc 1 280 1 is_stmt 0 view .LVU173
 856 0004 0048     		ldr	r0, .L74
 857              	.LVL49:
 858              		.loc 1 280 1 view .LVU174
 859 0006 7047     		bx	lr
 860              	.L75:
 861              		.align	2
 862              	.L74:
 863 0008 00000000 		.word	.LANCHOR24
 864              		.cfi_endproc
 865              	.LFE24:
 867              		.section	.text.u8g2_m_32_8_2,"ax",%progbits
 868              		.align	1
 869              		.global	u8g2_m_32_8_2
 870              		.syntax unified
 871              		.thumb
 872              		.thumb_func
 873              		.fpu softvfp
 875              	u8g2_m_32_8_2:
 876              	.LVL50:
 877              	.LFB25:
 281:u8g2_lib/u8g2_d_memory.c **** uint8_t *u8g2_m_32_8_2(uint8_t *page_cnt)
 282:u8g2_lib/u8g2_d_memory.c **** {
 878              		.loc 1 282 1 is_stmt 1 view -0
 879              		.cfi_startproc
 880              		@ args = 0, pretend = 0, frame = 0
 881              		@ frame_needed = 0, uses_anonymous_args = 0
 882              		@ link register save eliminated.
 283:u8g2_lib/u8g2_d_memory.c ****   #ifdef U8G2_USE_DYNAMIC_ALLOC
 284:u8g2_lib/u8g2_d_memory.c ****   *page_cnt = 2;
 285:u8g2_lib/u8g2_d_memory.c ****   return 0;
 286:u8g2_lib/u8g2_d_memory.c ****   #else
 287:u8g2_lib/u8g2_d_memory.c ****   static uint8_t buf[512];
 883              		.loc 1 287 3 view .LVU176
 288:u8g2_lib/u8g2_d_memory.c ****   *page_cnt = 2;
 884              		.loc 1 288 3 view .LVU177
 885              		.loc 1 288 13 is_stmt 0 view .LVU178
 886 0000 0223     		movs	r3, #2
 887 0002 0370     		strb	r3, [r0]
 289:u8g2_lib/u8g2_d_memory.c ****   return buf;
 888              		.loc 1 289 3 is_stmt 1 view .LVU179
 290:u8g2_lib/u8g2_d_memory.c ****   #endif
 291:u8g2_lib/u8g2_d_memory.c **** }
 889              		.loc 1 291 1 is_stmt 0 view .LVU180
 890 0004 0048     		ldr	r0, .L77
 891              	.LVL51:
 892              		.loc 1 291 1 view .LVU181
 893 0006 7047     		bx	lr
 894              	.L78:
 895              		.align	2
 896              	.L77:
 897 0008 00000000 		.word	.LANCHOR25
 898              		.cfi_endproc
 899              	.LFE25:
 901              		.section	.text.u8g2_m_32_8_f,"ax",%progbits
ARM GAS  C:\Users\GKQ\AppData\Local\Temp\ccTZzUR2.s 			page 21


 902              		.align	1
 903              		.global	u8g2_m_32_8_f
 904              		.syntax unified
 905              		.thumb
 906              		.thumb_func
 907              		.fpu softvfp
 909              	u8g2_m_32_8_f:
 910              	.LVL52:
 911              	.LFB26:
 292:u8g2_lib/u8g2_d_memory.c **** uint8_t *u8g2_m_32_8_f(uint8_t *page_cnt)
 293:u8g2_lib/u8g2_d_memory.c **** {
 912              		.loc 1 293 1 is_stmt 1 view -0
 913              		.cfi_startproc
 914              		@ args = 0, pretend = 0, frame = 0
 915              		@ frame_needed = 0, uses_anonymous_args = 0
 916              		@ link register save eliminated.
 294:u8g2_lib/u8g2_d_memory.c ****   #ifdef U8G2_USE_DYNAMIC_ALLOC
 295:u8g2_lib/u8g2_d_memory.c ****   *page_cnt = 8;
 296:u8g2_lib/u8g2_d_memory.c ****   return 0;
 297:u8g2_lib/u8g2_d_memory.c ****   #else
 298:u8g2_lib/u8g2_d_memory.c ****   static uint8_t buf[2048];
 917              		.loc 1 298 3 view .LVU183
 299:u8g2_lib/u8g2_d_memory.c ****   *page_cnt = 8;
 918              		.loc 1 299 3 view .LVU184
 919              		.loc 1 299 13 is_stmt 0 view .LVU185
 920 0000 0823     		movs	r3, #8
 921 0002 0370     		strb	r3, [r0]
 300:u8g2_lib/u8g2_d_memory.c ****   return buf;
 922              		.loc 1 300 3 is_stmt 1 view .LVU186
 301:u8g2_lib/u8g2_d_memory.c ****   #endif
 302:u8g2_lib/u8g2_d_memory.c **** }
 923              		.loc 1 302 1 is_stmt 0 view .LVU187
 924 0004 0048     		ldr	r0, .L80
 925              	.LVL53:
 926              		.loc 1 302 1 view .LVU188
 927 0006 7047     		bx	lr
 928              	.L81:
 929              		.align	2
 930              	.L80:
 931 0008 00000000 		.word	.LANCHOR26
 932              		.cfi_endproc
 933              	.LFE26:
 935              		.section	.text.u8g2_m_8_6_1,"ax",%progbits
 936              		.align	1
 937              		.global	u8g2_m_8_6_1
 938              		.syntax unified
 939              		.thumb
 940              		.thumb_func
 941              		.fpu softvfp
 943              	u8g2_m_8_6_1:
 944              	.LVL54:
 945              	.LFB27:
 303:u8g2_lib/u8g2_d_memory.c **** uint8_t *u8g2_m_8_6_1(uint8_t *page_cnt)
 304:u8g2_lib/u8g2_d_memory.c **** {
 946              		.loc 1 304 1 is_stmt 1 view -0
 947              		.cfi_startproc
 948              		@ args = 0, pretend = 0, frame = 0
ARM GAS  C:\Users\GKQ\AppData\Local\Temp\ccTZzUR2.s 			page 22


 949              		@ frame_needed = 0, uses_anonymous_args = 0
 950              		@ link register save eliminated.
 305:u8g2_lib/u8g2_d_memory.c ****   #ifdef U8G2_USE_DYNAMIC_ALLOC
 306:u8g2_lib/u8g2_d_memory.c ****   *page_cnt = 1;
 307:u8g2_lib/u8g2_d_memory.c ****   return 0;
 308:u8g2_lib/u8g2_d_memory.c ****   #else
 309:u8g2_lib/u8g2_d_memory.c ****   static uint8_t buf[64];
 951              		.loc 1 309 3 view .LVU190
 310:u8g2_lib/u8g2_d_memory.c ****   *page_cnt = 1;
 952              		.loc 1 310 3 view .LVU191
 953              		.loc 1 310 13 is_stmt 0 view .LVU192
 954 0000 0123     		movs	r3, #1
 955 0002 0370     		strb	r3, [r0]
 311:u8g2_lib/u8g2_d_memory.c ****   return buf;
 956              		.loc 1 311 3 is_stmt 1 view .LVU193
 312:u8g2_lib/u8g2_d_memory.c ****   #endif
 313:u8g2_lib/u8g2_d_memory.c **** }
 957              		.loc 1 313 1 is_stmt 0 view .LVU194
 958 0004 0048     		ldr	r0, .L83
 959              	.LVL55:
 960              		.loc 1 313 1 view .LVU195
 961 0006 7047     		bx	lr
 962              	.L84:
 963              		.align	2
 964              	.L83:
 965 0008 00000000 		.word	.LANCHOR27
 966              		.cfi_endproc
 967              	.LFE27:
 969              		.section	.text.u8g2_m_8_6_2,"ax",%progbits
 970              		.align	1
 971              		.global	u8g2_m_8_6_2
 972              		.syntax unified
 973              		.thumb
 974              		.thumb_func
 975              		.fpu softvfp
 977              	u8g2_m_8_6_2:
 978              	.LVL56:
 979              	.LFB28:
 314:u8g2_lib/u8g2_d_memory.c **** uint8_t *u8g2_m_8_6_2(uint8_t *page_cnt)
 315:u8g2_lib/u8g2_d_memory.c **** {
 980              		.loc 1 315 1 is_stmt 1 view -0
 981              		.cfi_startproc
 982              		@ args = 0, pretend = 0, frame = 0
 983              		@ frame_needed = 0, uses_anonymous_args = 0
 984              		@ link register save eliminated.
 316:u8g2_lib/u8g2_d_memory.c ****   #ifdef U8G2_USE_DYNAMIC_ALLOC
 317:u8g2_lib/u8g2_d_memory.c ****   *page_cnt = 2;
 318:u8g2_lib/u8g2_d_memory.c ****   return 0;
 319:u8g2_lib/u8g2_d_memory.c ****   #else
 320:u8g2_lib/u8g2_d_memory.c ****   static uint8_t buf[128];
 985              		.loc 1 320 3 view .LVU197
 321:u8g2_lib/u8g2_d_memory.c ****   *page_cnt = 2;
 986              		.loc 1 321 3 view .LVU198
 987              		.loc 1 321 13 is_stmt 0 view .LVU199
 988 0000 0223     		movs	r3, #2
 989 0002 0370     		strb	r3, [r0]
 322:u8g2_lib/u8g2_d_memory.c ****   return buf;
ARM GAS  C:\Users\GKQ\AppData\Local\Temp\ccTZzUR2.s 			page 23


 990              		.loc 1 322 3 is_stmt 1 view .LVU200
 323:u8g2_lib/u8g2_d_memory.c ****   #endif
 324:u8g2_lib/u8g2_d_memory.c **** }
 991              		.loc 1 324 1 is_stmt 0 view .LVU201
 992 0004 0048     		ldr	r0, .L86
 993              	.LVL57:
 994              		.loc 1 324 1 view .LVU202
 995 0006 7047     		bx	lr
 996              	.L87:
 997              		.align	2
 998              	.L86:
 999 0008 00000000 		.word	.LANCHOR28
 1000              		.cfi_endproc
 1001              	.LFE28:
 1003              		.section	.text.u8g2_m_8_6_f,"ax",%progbits
 1004              		.align	1
 1005              		.global	u8g2_m_8_6_f
 1006              		.syntax unified
 1007              		.thumb
 1008              		.thumb_func
 1009              		.fpu softvfp
 1011              	u8g2_m_8_6_f:
 1012              	.LVL58:
 1013              	.LFB29:
 325:u8g2_lib/u8g2_d_memory.c **** uint8_t *u8g2_m_8_6_f(uint8_t *page_cnt)
 326:u8g2_lib/u8g2_d_memory.c **** {
 1014              		.loc 1 326 1 is_stmt 1 view -0
 1015              		.cfi_startproc
 1016              		@ args = 0, pretend = 0, frame = 0
 1017              		@ frame_needed = 0, uses_anonymous_args = 0
 1018              		@ link register save eliminated.
 327:u8g2_lib/u8g2_d_memory.c ****   #ifdef U8G2_USE_DYNAMIC_ALLOC
 328:u8g2_lib/u8g2_d_memory.c ****   *page_cnt = 6;
 329:u8g2_lib/u8g2_d_memory.c ****   return 0;
 330:u8g2_lib/u8g2_d_memory.c ****   #else
 331:u8g2_lib/u8g2_d_memory.c ****   static uint8_t buf[384];
 1019              		.loc 1 331 3 view .LVU204
 332:u8g2_lib/u8g2_d_memory.c ****   *page_cnt = 6;
 1020              		.loc 1 332 3 view .LVU205
 1021              		.loc 1 332 13 is_stmt 0 view .LVU206
 1022 0000 0623     		movs	r3, #6
 1023 0002 0370     		strb	r3, [r0]
 333:u8g2_lib/u8g2_d_memory.c ****   return buf;
 1024              		.loc 1 333 3 is_stmt 1 view .LVU207
 334:u8g2_lib/u8g2_d_memory.c ****   #endif
 335:u8g2_lib/u8g2_d_memory.c **** }
 1025              		.loc 1 335 1 is_stmt 0 view .LVU208
 1026 0004 0048     		ldr	r0, .L89
 1027              	.LVL59:
 1028              		.loc 1 335 1 view .LVU209
 1029 0006 7047     		bx	lr
 1030              	.L90:
 1031              		.align	2
 1032              	.L89:
 1033 0008 00000000 		.word	.LANCHOR29
 1034              		.cfi_endproc
 1035              	.LFE29:
ARM GAS  C:\Users\GKQ\AppData\Local\Temp\ccTZzUR2.s 			page 24


 1037              		.section	.text.u8g2_m_6_8_1,"ax",%progbits
 1038              		.align	1
 1039              		.global	u8g2_m_6_8_1
 1040              		.syntax unified
 1041              		.thumb
 1042              		.thumb_func
 1043              		.fpu softvfp
 1045              	u8g2_m_6_8_1:
 1046              	.LVL60:
 1047              	.LFB30:
 336:u8g2_lib/u8g2_d_memory.c **** uint8_t *u8g2_m_6_8_1(uint8_t *page_cnt)
 337:u8g2_lib/u8g2_d_memory.c **** {
 1048              		.loc 1 337 1 is_stmt 1 view -0
 1049              		.cfi_startproc
 1050              		@ args = 0, pretend = 0, frame = 0
 1051              		@ frame_needed = 0, uses_anonymous_args = 0
 1052              		@ link register save eliminated.
 338:u8g2_lib/u8g2_d_memory.c ****   #ifdef U8G2_USE_DYNAMIC_ALLOC
 339:u8g2_lib/u8g2_d_memory.c ****   *page_cnt = 1;
 340:u8g2_lib/u8g2_d_memory.c ****   return 0;
 341:u8g2_lib/u8g2_d_memory.c ****   #else
 342:u8g2_lib/u8g2_d_memory.c ****   static uint8_t buf[48];
 1053              		.loc 1 342 3 view .LVU211
 343:u8g2_lib/u8g2_d_memory.c ****   *page_cnt = 1;
 1054              		.loc 1 343 3 view .LVU212
 1055              		.loc 1 343 13 is_stmt 0 view .LVU213
 1056 0000 0123     		movs	r3, #1
 1057 0002 0370     		strb	r3, [r0]
 344:u8g2_lib/u8g2_d_memory.c ****   return buf;
 1058              		.loc 1 344 3 is_stmt 1 view .LVU214
 345:u8g2_lib/u8g2_d_memory.c ****   #endif
 346:u8g2_lib/u8g2_d_memory.c **** }
 1059              		.loc 1 346 1 is_stmt 0 view .LVU215
 1060 0004 0048     		ldr	r0, .L92
 1061              	.LVL61:
 1062              		.loc 1 346 1 view .LVU216
 1063 0006 7047     		bx	lr
 1064              	.L93:
 1065              		.align	2
 1066              	.L92:
 1067 0008 00000000 		.word	.LANCHOR30
 1068              		.cfi_endproc
 1069              	.LFE30:
 1071              		.section	.text.u8g2_m_6_8_2,"ax",%progbits
 1072              		.align	1
 1073              		.global	u8g2_m_6_8_2
 1074              		.syntax unified
 1075              		.thumb
 1076              		.thumb_func
 1077              		.fpu softvfp
 1079              	u8g2_m_6_8_2:
 1080              	.LVL62:
 1081              	.LFB31:
 347:u8g2_lib/u8g2_d_memory.c **** uint8_t *u8g2_m_6_8_2(uint8_t *page_cnt)
 348:u8g2_lib/u8g2_d_memory.c **** {
 1082              		.loc 1 348 1 is_stmt 1 view -0
 1083              		.cfi_startproc
ARM GAS  C:\Users\GKQ\AppData\Local\Temp\ccTZzUR2.s 			page 25


 1084              		@ args = 0, pretend = 0, frame = 0
 1085              		@ frame_needed = 0, uses_anonymous_args = 0
 1086              		@ link register save eliminated.
 349:u8g2_lib/u8g2_d_memory.c ****   #ifdef U8G2_USE_DYNAMIC_ALLOC
 350:u8g2_lib/u8g2_d_memory.c ****   *page_cnt = 2;
 351:u8g2_lib/u8g2_d_memory.c ****   return 0;
 352:u8g2_lib/u8g2_d_memory.c ****   #else
 353:u8g2_lib/u8g2_d_memory.c ****   static uint8_t buf[96];
 1087              		.loc 1 353 3 view .LVU218
 354:u8g2_lib/u8g2_d_memory.c ****   *page_cnt = 2;
 1088              		.loc 1 354 3 view .LVU219
 1089              		.loc 1 354 13 is_stmt 0 view .LVU220
 1090 0000 0223     		movs	r3, #2
 1091 0002 0370     		strb	r3, [r0]
 355:u8g2_lib/u8g2_d_memory.c ****   return buf;
 1092              		.loc 1 355 3 is_stmt 1 view .LVU221
 356:u8g2_lib/u8g2_d_memory.c ****   #endif
 357:u8g2_lib/u8g2_d_memory.c **** }
 1093              		.loc 1 357 1 is_stmt 0 view .LVU222
 1094 0004 0048     		ldr	r0, .L95
 1095              	.LVL63:
 1096              		.loc 1 357 1 view .LVU223
 1097 0006 7047     		bx	lr
 1098              	.L96:
 1099              		.align	2
 1100              	.L95:
 1101 0008 00000000 		.word	.LANCHOR31
 1102              		.cfi_endproc
 1103              	.LFE31:
 1105              		.section	.text.u8g2_m_6_8_f,"ax",%progbits
 1106              		.align	1
 1107              		.global	u8g2_m_6_8_f
 1108              		.syntax unified
 1109              		.thumb
 1110              		.thumb_func
 1111              		.fpu softvfp
 1113              	u8g2_m_6_8_f:
 1114              	.LVL64:
 1115              	.LFB32:
 358:u8g2_lib/u8g2_d_memory.c **** uint8_t *u8g2_m_6_8_f(uint8_t *page_cnt)
 359:u8g2_lib/u8g2_d_memory.c **** {
 1116              		.loc 1 359 1 is_stmt 1 view -0
 1117              		.cfi_startproc
 1118              		@ args = 0, pretend = 0, frame = 0
 1119              		@ frame_needed = 0, uses_anonymous_args = 0
 1120              		@ link register save eliminated.
 360:u8g2_lib/u8g2_d_memory.c ****   #ifdef U8G2_USE_DYNAMIC_ALLOC
 361:u8g2_lib/u8g2_d_memory.c ****   *page_cnt = 8;
 362:u8g2_lib/u8g2_d_memory.c ****   return 0;
 363:u8g2_lib/u8g2_d_memory.c ****   #else
 364:u8g2_lib/u8g2_d_memory.c ****   static uint8_t buf[384];
 1121              		.loc 1 364 3 view .LVU225
 365:u8g2_lib/u8g2_d_memory.c ****   *page_cnt = 8;
 1122              		.loc 1 365 3 view .LVU226
 1123              		.loc 1 365 13 is_stmt 0 view .LVU227
 1124 0000 0823     		movs	r3, #8
 1125 0002 0370     		strb	r3, [r0]
ARM GAS  C:\Users\GKQ\AppData\Local\Temp\ccTZzUR2.s 			page 26


 366:u8g2_lib/u8g2_d_memory.c ****   return buf;
 1126              		.loc 1 366 3 is_stmt 1 view .LVU228
 367:u8g2_lib/u8g2_d_memory.c ****   #endif
 368:u8g2_lib/u8g2_d_memory.c **** }
 1127              		.loc 1 368 1 is_stmt 0 view .LVU229
 1128 0004 0048     		ldr	r0, .L98
 1129              	.LVL65:
 1130              		.loc 1 368 1 view .LVU230
 1131 0006 7047     		bx	lr
 1132              	.L99:
 1133              		.align	2
 1134              	.L98:
 1135 0008 00000000 		.word	.LANCHOR32
 1136              		.cfi_endproc
 1137              	.LFE32:
 1139              		.section	.text.u8g2_m_12_2_1,"ax",%progbits
 1140              		.align	1
 1141              		.global	u8g2_m_12_2_1
 1142              		.syntax unified
 1143              		.thumb
 1144              		.thumb_func
 1145              		.fpu softvfp
 1147              	u8g2_m_12_2_1:
 1148              	.LVL66:
 1149              	.LFB33:
 369:u8g2_lib/u8g2_d_memory.c **** uint8_t *u8g2_m_12_2_1(uint8_t *page_cnt)
 370:u8g2_lib/u8g2_d_memory.c **** {
 1150              		.loc 1 370 1 is_stmt 1 view -0
 1151              		.cfi_startproc
 1152              		@ args = 0, pretend = 0, frame = 0
 1153              		@ frame_needed = 0, uses_anonymous_args = 0
 1154              		@ link register save eliminated.
 371:u8g2_lib/u8g2_d_memory.c ****   #ifdef U8G2_USE_DYNAMIC_ALLOC
 372:u8g2_lib/u8g2_d_memory.c ****   *page_cnt = 1;
 373:u8g2_lib/u8g2_d_memory.c ****   return 0;
 374:u8g2_lib/u8g2_d_memory.c ****   #else
 375:u8g2_lib/u8g2_d_memory.c ****   static uint8_t buf[96];
 1155              		.loc 1 375 3 view .LVU232
 376:u8g2_lib/u8g2_d_memory.c ****   *page_cnt = 1;
 1156              		.loc 1 376 3 view .LVU233
 1157              		.loc 1 376 13 is_stmt 0 view .LVU234
 1158 0000 0123     		movs	r3, #1
 1159 0002 0370     		strb	r3, [r0]
 377:u8g2_lib/u8g2_d_memory.c ****   return buf;
 1160              		.loc 1 377 3 is_stmt 1 view .LVU235
 378:u8g2_lib/u8g2_d_memory.c ****   #endif
 379:u8g2_lib/u8g2_d_memory.c **** }
 1161              		.loc 1 379 1 is_stmt 0 view .LVU236
 1162 0004 0048     		ldr	r0, .L101
 1163              	.LVL67:
 1164              		.loc 1 379 1 view .LVU237
 1165 0006 7047     		bx	lr
 1166              	.L102:
 1167              		.align	2
 1168              	.L101:
 1169 0008 00000000 		.word	.LANCHOR33
 1170              		.cfi_endproc
ARM GAS  C:\Users\GKQ\AppData\Local\Temp\ccTZzUR2.s 			page 27


 1171              	.LFE33:
 1173              		.section	.text.u8g2_m_12_2_2,"ax",%progbits
 1174              		.align	1
 1175              		.global	u8g2_m_12_2_2
 1176              		.syntax unified
 1177              		.thumb
 1178              		.thumb_func
 1179              		.fpu softvfp
 1181              	u8g2_m_12_2_2:
 1182              	.LVL68:
 1183              	.LFB34:
 380:u8g2_lib/u8g2_d_memory.c **** uint8_t *u8g2_m_12_2_2(uint8_t *page_cnt)
 381:u8g2_lib/u8g2_d_memory.c **** {
 1184              		.loc 1 381 1 is_stmt 1 view -0
 1185              		.cfi_startproc
 1186              		@ args = 0, pretend = 0, frame = 0
 1187              		@ frame_needed = 0, uses_anonymous_args = 0
 1188              		@ link register save eliminated.
 382:u8g2_lib/u8g2_d_memory.c ****   #ifdef U8G2_USE_DYNAMIC_ALLOC
 383:u8g2_lib/u8g2_d_memory.c ****   *page_cnt = 2;
 384:u8g2_lib/u8g2_d_memory.c ****   return 0;
 385:u8g2_lib/u8g2_d_memory.c ****   #else
 386:u8g2_lib/u8g2_d_memory.c ****   static uint8_t buf[192];
 1189              		.loc 1 386 3 view .LVU239
 387:u8g2_lib/u8g2_d_memory.c ****   *page_cnt = 2;
 1190              		.loc 1 387 3 view .LVU240
 1191              		.loc 1 387 13 is_stmt 0 view .LVU241
 1192 0000 0223     		movs	r3, #2
 1193 0002 0370     		strb	r3, [r0]
 388:u8g2_lib/u8g2_d_memory.c ****   return buf;
 1194              		.loc 1 388 3 is_stmt 1 view .LVU242
 389:u8g2_lib/u8g2_d_memory.c ****   #endif
 390:u8g2_lib/u8g2_d_memory.c **** }
 1195              		.loc 1 390 1 is_stmt 0 view .LVU243
 1196 0004 0048     		ldr	r0, .L104
 1197              	.LVL69:
 1198              		.loc 1 390 1 view .LVU244
 1199 0006 7047     		bx	lr
 1200              	.L105:
 1201              		.align	2
 1202              	.L104:
 1203 0008 00000000 		.word	.LANCHOR34
 1204              		.cfi_endproc
 1205              	.LFE34:
 1207              		.section	.text.u8g2_m_12_2_f,"ax",%progbits
 1208              		.align	1
 1209              		.global	u8g2_m_12_2_f
 1210              		.syntax unified
 1211              		.thumb
 1212              		.thumb_func
 1213              		.fpu softvfp
 1215              	u8g2_m_12_2_f:
 1216              	.LVL70:
 1217              	.LFB35:
 391:u8g2_lib/u8g2_d_memory.c **** uint8_t *u8g2_m_12_2_f(uint8_t *page_cnt)
 392:u8g2_lib/u8g2_d_memory.c **** {
 1218              		.loc 1 392 1 is_stmt 1 view -0
ARM GAS  C:\Users\GKQ\AppData\Local\Temp\ccTZzUR2.s 			page 28


 1219              		.cfi_startproc
 1220              		@ args = 0, pretend = 0, frame = 0
 1221              		@ frame_needed = 0, uses_anonymous_args = 0
 1222              		@ link register save eliminated.
 393:u8g2_lib/u8g2_d_memory.c ****   #ifdef U8G2_USE_DYNAMIC_ALLOC
 394:u8g2_lib/u8g2_d_memory.c ****   *page_cnt = 2;
 395:u8g2_lib/u8g2_d_memory.c ****   return 0;
 396:u8g2_lib/u8g2_d_memory.c ****   #else
 397:u8g2_lib/u8g2_d_memory.c ****   static uint8_t buf[192];
 1223              		.loc 1 397 3 view .LVU246
 398:u8g2_lib/u8g2_d_memory.c ****   *page_cnt = 2;
 1224              		.loc 1 398 3 view .LVU247
 1225              		.loc 1 398 13 is_stmt 0 view .LVU248
 1226 0000 0223     		movs	r3, #2
 1227 0002 0370     		strb	r3, [r0]
 399:u8g2_lib/u8g2_d_memory.c ****   return buf;
 1228              		.loc 1 399 3 is_stmt 1 view .LVU249
 400:u8g2_lib/u8g2_d_memory.c ****   #endif
 401:u8g2_lib/u8g2_d_memory.c **** }
 1229              		.loc 1 401 1 is_stmt 0 view .LVU250
 1230 0004 0048     		ldr	r0, .L107
 1231              	.LVL71:
 1232              		.loc 1 401 1 view .LVU251
 1233 0006 7047     		bx	lr
 1234              	.L108:
 1235              		.align	2
 1236              	.L107:
 1237 0008 00000000 		.word	.LANCHOR35
 1238              		.cfi_endproc
 1239              	.LFE35:
 1241              		.section	.text.u8g2_m_16_12_1,"ax",%progbits
 1242              		.align	1
 1243              		.global	u8g2_m_16_12_1
 1244              		.syntax unified
 1245              		.thumb
 1246              		.thumb_func
 1247              		.fpu softvfp
 1249              	u8g2_m_16_12_1:
 1250              	.LVL72:
 1251              	.LFB36:
 402:u8g2_lib/u8g2_d_memory.c **** uint8_t *u8g2_m_16_12_1(uint8_t *page_cnt)
 403:u8g2_lib/u8g2_d_memory.c **** {
 1252              		.loc 1 403 1 is_stmt 1 view -0
 1253              		.cfi_startproc
 1254              		@ args = 0, pretend = 0, frame = 0
 1255              		@ frame_needed = 0, uses_anonymous_args = 0
 1256              		@ link register save eliminated.
 404:u8g2_lib/u8g2_d_memory.c ****   #ifdef U8G2_USE_DYNAMIC_ALLOC
 405:u8g2_lib/u8g2_d_memory.c ****   *page_cnt = 1;
 406:u8g2_lib/u8g2_d_memory.c ****   return 0;
 407:u8g2_lib/u8g2_d_memory.c ****   #else
 408:u8g2_lib/u8g2_d_memory.c ****   static uint8_t buf[128];
 1257              		.loc 1 408 3 view .LVU253
 409:u8g2_lib/u8g2_d_memory.c ****   *page_cnt = 1;
 1258              		.loc 1 409 3 view .LVU254
 1259              		.loc 1 409 13 is_stmt 0 view .LVU255
 1260 0000 0123     		movs	r3, #1
ARM GAS  C:\Users\GKQ\AppData\Local\Temp\ccTZzUR2.s 			page 29


 1261 0002 0370     		strb	r3, [r0]
 410:u8g2_lib/u8g2_d_memory.c ****   return buf;
 1262              		.loc 1 410 3 is_stmt 1 view .LVU256
 411:u8g2_lib/u8g2_d_memory.c ****   #endif
 412:u8g2_lib/u8g2_d_memory.c **** }
 1263              		.loc 1 412 1 is_stmt 0 view .LVU257
 1264 0004 0048     		ldr	r0, .L110
 1265              	.LVL73:
 1266              		.loc 1 412 1 view .LVU258
 1267 0006 7047     		bx	lr
 1268              	.L111:
 1269              		.align	2
 1270              	.L110:
 1271 0008 00000000 		.word	.LANCHOR36
 1272              		.cfi_endproc
 1273              	.LFE36:
 1275              		.section	.text.u8g2_m_16_12_2,"ax",%progbits
 1276              		.align	1
 1277              		.global	u8g2_m_16_12_2
 1278              		.syntax unified
 1279              		.thumb
 1280              		.thumb_func
 1281              		.fpu softvfp
 1283              	u8g2_m_16_12_2:
 1284              	.LVL74:
 1285              	.LFB37:
 413:u8g2_lib/u8g2_d_memory.c **** uint8_t *u8g2_m_16_12_2(uint8_t *page_cnt)
 414:u8g2_lib/u8g2_d_memory.c **** {
 1286              		.loc 1 414 1 is_stmt 1 view -0
 1287              		.cfi_startproc
 1288              		@ args = 0, pretend = 0, frame = 0
 1289              		@ frame_needed = 0, uses_anonymous_args = 0
 1290              		@ link register save eliminated.
 415:u8g2_lib/u8g2_d_memory.c ****   #ifdef U8G2_USE_DYNAMIC_ALLOC
 416:u8g2_lib/u8g2_d_memory.c ****   *page_cnt = 2;
 417:u8g2_lib/u8g2_d_memory.c ****   return 0;
 418:u8g2_lib/u8g2_d_memory.c ****   #else
 419:u8g2_lib/u8g2_d_memory.c ****   static uint8_t buf[256];
 1291              		.loc 1 419 3 view .LVU260
 420:u8g2_lib/u8g2_d_memory.c ****   *page_cnt = 2;
 1292              		.loc 1 420 3 view .LVU261
 1293              		.loc 1 420 13 is_stmt 0 view .LVU262
 1294 0000 0223     		movs	r3, #2
 1295 0002 0370     		strb	r3, [r0]
 421:u8g2_lib/u8g2_d_memory.c ****   return buf;
 1296              		.loc 1 421 3 is_stmt 1 view .LVU263
 422:u8g2_lib/u8g2_d_memory.c ****   #endif
 423:u8g2_lib/u8g2_d_memory.c **** }
 1297              		.loc 1 423 1 is_stmt 0 view .LVU264
 1298 0004 0048     		ldr	r0, .L113
 1299              	.LVL75:
 1300              		.loc 1 423 1 view .LVU265
 1301 0006 7047     		bx	lr
 1302              	.L114:
 1303              		.align	2
 1304              	.L113:
 1305 0008 00000000 		.word	.LANCHOR37
ARM GAS  C:\Users\GKQ\AppData\Local\Temp\ccTZzUR2.s 			page 30


 1306              		.cfi_endproc
 1307              	.LFE37:
 1309              		.section	.text.u8g2_m_16_12_f,"ax",%progbits
 1310              		.align	1
 1311              		.global	u8g2_m_16_12_f
 1312              		.syntax unified
 1313              		.thumb
 1314              		.thumb_func
 1315              		.fpu softvfp
 1317              	u8g2_m_16_12_f:
 1318              	.LVL76:
 1319              	.LFB38:
 424:u8g2_lib/u8g2_d_memory.c **** uint8_t *u8g2_m_16_12_f(uint8_t *page_cnt)
 425:u8g2_lib/u8g2_d_memory.c **** {
 1320              		.loc 1 425 1 is_stmt 1 view -0
 1321              		.cfi_startproc
 1322              		@ args = 0, pretend = 0, frame = 0
 1323              		@ frame_needed = 0, uses_anonymous_args = 0
 1324              		@ link register save eliminated.
 426:u8g2_lib/u8g2_d_memory.c ****   #ifdef U8G2_USE_DYNAMIC_ALLOC
 427:u8g2_lib/u8g2_d_memory.c ****   *page_cnt = 12;
 428:u8g2_lib/u8g2_d_memory.c ****   return 0;
 429:u8g2_lib/u8g2_d_memory.c ****   #else
 430:u8g2_lib/u8g2_d_memory.c ****   static uint8_t buf[1536];
 1325              		.loc 1 430 3 view .LVU267
 431:u8g2_lib/u8g2_d_memory.c ****   *page_cnt = 12;
 1326              		.loc 1 431 3 view .LVU268
 1327              		.loc 1 431 13 is_stmt 0 view .LVU269
 1328 0000 0C23     		movs	r3, #12
 1329 0002 0370     		strb	r3, [r0]
 432:u8g2_lib/u8g2_d_memory.c ****   return buf;
 1330              		.loc 1 432 3 is_stmt 1 view .LVU270
 433:u8g2_lib/u8g2_d_memory.c ****   #endif
 434:u8g2_lib/u8g2_d_memory.c **** }
 1331              		.loc 1 434 1 is_stmt 0 view .LVU271
 1332 0004 0048     		ldr	r0, .L116
 1333              	.LVL77:
 1334              		.loc 1 434 1 view .LVU272
 1335 0006 7047     		bx	lr
 1336              	.L117:
 1337              		.align	2
 1338              	.L116:
 1339 0008 00000000 		.word	.LANCHOR38
 1340              		.cfi_endproc
 1341              	.LFE38:
 1343              		.section	.text.u8g2_m_32_4_1,"ax",%progbits
 1344              		.align	1
 1345              		.global	u8g2_m_32_4_1
 1346              		.syntax unified
 1347              		.thumb
 1348              		.thumb_func
 1349              		.fpu softvfp
 1351              	u8g2_m_32_4_1:
 1352              	.LVL78:
 1353              	.LFB39:
 435:u8g2_lib/u8g2_d_memory.c **** uint8_t *u8g2_m_32_4_1(uint8_t *page_cnt)
 436:u8g2_lib/u8g2_d_memory.c **** {
ARM GAS  C:\Users\GKQ\AppData\Local\Temp\ccTZzUR2.s 			page 31


 1354              		.loc 1 436 1 is_stmt 1 view -0
 1355              		.cfi_startproc
 1356              		@ args = 0, pretend = 0, frame = 0
 1357              		@ frame_needed = 0, uses_anonymous_args = 0
 1358              		@ link register save eliminated.
 437:u8g2_lib/u8g2_d_memory.c ****   #ifdef U8G2_USE_DYNAMIC_ALLOC
 438:u8g2_lib/u8g2_d_memory.c ****   *page_cnt = 1;
 439:u8g2_lib/u8g2_d_memory.c ****   return 0;
 440:u8g2_lib/u8g2_d_memory.c ****   #else
 441:u8g2_lib/u8g2_d_memory.c ****   static uint8_t buf[256];
 1359              		.loc 1 441 3 view .LVU274
 442:u8g2_lib/u8g2_d_memory.c ****   *page_cnt = 1;
 1360              		.loc 1 442 3 view .LVU275
 1361              		.loc 1 442 13 is_stmt 0 view .LVU276
 1362 0000 0123     		movs	r3, #1
 1363 0002 0370     		strb	r3, [r0]
 443:u8g2_lib/u8g2_d_memory.c ****   return buf;
 1364              		.loc 1 443 3 is_stmt 1 view .LVU277
 444:u8g2_lib/u8g2_d_memory.c ****   #endif
 445:u8g2_lib/u8g2_d_memory.c **** }
 1365              		.loc 1 445 1 is_stmt 0 view .LVU278
 1366 0004 0048     		ldr	r0, .L119
 1367              	.LVL79:
 1368              		.loc 1 445 1 view .LVU279
 1369 0006 7047     		bx	lr
 1370              	.L120:
 1371              		.align	2
 1372              	.L119:
 1373 0008 00000000 		.word	.LANCHOR39
 1374              		.cfi_endproc
 1375              	.LFE39:
 1377              		.section	.text.u8g2_m_32_4_2,"ax",%progbits
 1378              		.align	1
 1379              		.global	u8g2_m_32_4_2
 1380              		.syntax unified
 1381              		.thumb
 1382              		.thumb_func
 1383              		.fpu softvfp
 1385              	u8g2_m_32_4_2:
 1386              	.LVL80:
 1387              	.LFB40:
 446:u8g2_lib/u8g2_d_memory.c **** uint8_t *u8g2_m_32_4_2(uint8_t *page_cnt)
 447:u8g2_lib/u8g2_d_memory.c **** {
 1388              		.loc 1 447 1 is_stmt 1 view -0
 1389              		.cfi_startproc
 1390              		@ args = 0, pretend = 0, frame = 0
 1391              		@ frame_needed = 0, uses_anonymous_args = 0
 1392              		@ link register save eliminated.
 448:u8g2_lib/u8g2_d_memory.c ****   #ifdef U8G2_USE_DYNAMIC_ALLOC
 449:u8g2_lib/u8g2_d_memory.c ****   *page_cnt = 2;
 450:u8g2_lib/u8g2_d_memory.c ****   return 0;
 451:u8g2_lib/u8g2_d_memory.c ****   #else
 452:u8g2_lib/u8g2_d_memory.c ****   static uint8_t buf[512];
 1393              		.loc 1 452 3 view .LVU281
 453:u8g2_lib/u8g2_d_memory.c ****   *page_cnt = 2;
 1394              		.loc 1 453 3 view .LVU282
 1395              		.loc 1 453 13 is_stmt 0 view .LVU283
ARM GAS  C:\Users\GKQ\AppData\Local\Temp\ccTZzUR2.s 			page 32


 1396 0000 0223     		movs	r3, #2
 1397 0002 0370     		strb	r3, [r0]
 454:u8g2_lib/u8g2_d_memory.c ****   return buf;
 1398              		.loc 1 454 3 is_stmt 1 view .LVU284
 455:u8g2_lib/u8g2_d_memory.c ****   #endif
 456:u8g2_lib/u8g2_d_memory.c **** }
 1399              		.loc 1 456 1 is_stmt 0 view .LVU285
 1400 0004 0048     		ldr	r0, .L122
 1401              	.LVL81:
 1402              		.loc 1 456 1 view .LVU286
 1403 0006 7047     		bx	lr
 1404              	.L123:
 1405              		.align	2
 1406              	.L122:
 1407 0008 00000000 		.word	.LANCHOR40
 1408              		.cfi_endproc
 1409              	.LFE40:
 1411              		.section	.text.u8g2_m_32_4_f,"ax",%progbits
 1412              		.align	1
 1413              		.global	u8g2_m_32_4_f
 1414              		.syntax unified
 1415              		.thumb
 1416              		.thumb_func
 1417              		.fpu softvfp
 1419              	u8g2_m_32_4_f:
 1420              	.LVL82:
 1421              	.LFB41:
 457:u8g2_lib/u8g2_d_memory.c **** uint8_t *u8g2_m_32_4_f(uint8_t *page_cnt)
 458:u8g2_lib/u8g2_d_memory.c **** {
 1422              		.loc 1 458 1 is_stmt 1 view -0
 1423              		.cfi_startproc
 1424              		@ args = 0, pretend = 0, frame = 0
 1425              		@ frame_needed = 0, uses_anonymous_args = 0
 1426              		@ link register save eliminated.
 459:u8g2_lib/u8g2_d_memory.c ****   #ifdef U8G2_USE_DYNAMIC_ALLOC
 460:u8g2_lib/u8g2_d_memory.c ****   *page_cnt = 4;
 461:u8g2_lib/u8g2_d_memory.c ****   return 0;
 462:u8g2_lib/u8g2_d_memory.c ****   #else
 463:u8g2_lib/u8g2_d_memory.c ****   static uint8_t buf[1024];
 1427              		.loc 1 463 3 view .LVU288
 464:u8g2_lib/u8g2_d_memory.c ****   *page_cnt = 4;
 1428              		.loc 1 464 3 view .LVU289
 1429              		.loc 1 464 13 is_stmt 0 view .LVU290
 1430 0000 0423     		movs	r3, #4
 1431 0002 0370     		strb	r3, [r0]
 465:u8g2_lib/u8g2_d_memory.c ****   return buf;
 1432              		.loc 1 465 3 is_stmt 1 view .LVU291
 466:u8g2_lib/u8g2_d_memory.c ****   #endif
 467:u8g2_lib/u8g2_d_memory.c **** }
 1433              		.loc 1 467 1 is_stmt 0 view .LVU292
 1434 0004 0048     		ldr	r0, .L125
 1435              	.LVL83:
 1436              		.loc 1 467 1 view .LVU293
 1437 0006 7047     		bx	lr
 1438              	.L126:
 1439              		.align	2
 1440              	.L125:
ARM GAS  C:\Users\GKQ\AppData\Local\Temp\ccTZzUR2.s 			page 33


 1441 0008 00000000 		.word	.LANCHOR41
 1442              		.cfi_endproc
 1443              	.LFE41:
 1445              		.section	.text.u8g2_m_12_8_1,"ax",%progbits
 1446              		.align	1
 1447              		.global	u8g2_m_12_8_1
 1448              		.syntax unified
 1449              		.thumb
 1450              		.thumb_func
 1451              		.fpu softvfp
 1453              	u8g2_m_12_8_1:
 1454              	.LVL84:
 1455              	.LFB42:
 468:u8g2_lib/u8g2_d_memory.c **** uint8_t *u8g2_m_12_8_1(uint8_t *page_cnt)
 469:u8g2_lib/u8g2_d_memory.c **** {
 1456              		.loc 1 469 1 is_stmt 1 view -0
 1457              		.cfi_startproc
 1458              		@ args = 0, pretend = 0, frame = 0
 1459              		@ frame_needed = 0, uses_anonymous_args = 0
 1460              		@ link register save eliminated.
 470:u8g2_lib/u8g2_d_memory.c ****   #ifdef U8G2_USE_DYNAMIC_ALLOC
 471:u8g2_lib/u8g2_d_memory.c ****   *page_cnt = 1;
 472:u8g2_lib/u8g2_d_memory.c ****   return 0;
 473:u8g2_lib/u8g2_d_memory.c ****   #else
 474:u8g2_lib/u8g2_d_memory.c ****   static uint8_t buf[96];
 1461              		.loc 1 474 3 view .LVU295
 475:u8g2_lib/u8g2_d_memory.c ****   *page_cnt = 1;
 1462              		.loc 1 475 3 view .LVU296
 1463              		.loc 1 475 13 is_stmt 0 view .LVU297
 1464 0000 0123     		movs	r3, #1
 1465 0002 0370     		strb	r3, [r0]
 476:u8g2_lib/u8g2_d_memory.c ****   return buf;
 1466              		.loc 1 476 3 is_stmt 1 view .LVU298
 477:u8g2_lib/u8g2_d_memory.c ****   #endif
 478:u8g2_lib/u8g2_d_memory.c **** }
 1467              		.loc 1 478 1 is_stmt 0 view .LVU299
 1468 0004 0048     		ldr	r0, .L128
 1469              	.LVL85:
 1470              		.loc 1 478 1 view .LVU300
 1471 0006 7047     		bx	lr
 1472              	.L129:
 1473              		.align	2
 1474              	.L128:
 1475 0008 00000000 		.word	.LANCHOR42
 1476              		.cfi_endproc
 1477              	.LFE42:
 1479              		.section	.text.u8g2_m_12_8_2,"ax",%progbits
 1480              		.align	1
 1481              		.global	u8g2_m_12_8_2
 1482              		.syntax unified
 1483              		.thumb
 1484              		.thumb_func
 1485              		.fpu softvfp
 1487              	u8g2_m_12_8_2:
 1488              	.LVL86:
 1489              	.LFB43:
 479:u8g2_lib/u8g2_d_memory.c **** uint8_t *u8g2_m_12_8_2(uint8_t *page_cnt)
ARM GAS  C:\Users\GKQ\AppData\Local\Temp\ccTZzUR2.s 			page 34


 480:u8g2_lib/u8g2_d_memory.c **** {
 1490              		.loc 1 480 1 is_stmt 1 view -0
 1491              		.cfi_startproc
 1492              		@ args = 0, pretend = 0, frame = 0
 1493              		@ frame_needed = 0, uses_anonymous_args = 0
 1494              		@ link register save eliminated.
 481:u8g2_lib/u8g2_d_memory.c ****   #ifdef U8G2_USE_DYNAMIC_ALLOC
 482:u8g2_lib/u8g2_d_memory.c ****   *page_cnt = 2;
 483:u8g2_lib/u8g2_d_memory.c ****   return 0;
 484:u8g2_lib/u8g2_d_memory.c ****   #else
 485:u8g2_lib/u8g2_d_memory.c ****   static uint8_t buf[192];
 1495              		.loc 1 485 3 view .LVU302
 486:u8g2_lib/u8g2_d_memory.c ****   *page_cnt = 2;
 1496              		.loc 1 486 3 view .LVU303
 1497              		.loc 1 486 13 is_stmt 0 view .LVU304
 1498 0000 0223     		movs	r3, #2
 1499 0002 0370     		strb	r3, [r0]
 487:u8g2_lib/u8g2_d_memory.c ****   return buf;
 1500              		.loc 1 487 3 is_stmt 1 view .LVU305
 488:u8g2_lib/u8g2_d_memory.c ****   #endif
 489:u8g2_lib/u8g2_d_memory.c **** }
 1501              		.loc 1 489 1 is_stmt 0 view .LVU306
 1502 0004 0048     		ldr	r0, .L131
 1503              	.LVL87:
 1504              		.loc 1 489 1 view .LVU307
 1505 0006 7047     		bx	lr
 1506              	.L132:
 1507              		.align	2
 1508              	.L131:
 1509 0008 00000000 		.word	.LANCHOR43
 1510              		.cfi_endproc
 1511              	.LFE43:
 1513              		.section	.text.u8g2_m_12_8_f,"ax",%progbits
 1514              		.align	1
 1515              		.global	u8g2_m_12_8_f
 1516              		.syntax unified
 1517              		.thumb
 1518              		.thumb_func
 1519              		.fpu softvfp
 1521              	u8g2_m_12_8_f:
 1522              	.LVL88:
 1523              	.LFB44:
 490:u8g2_lib/u8g2_d_memory.c **** uint8_t *u8g2_m_12_8_f(uint8_t *page_cnt)
 491:u8g2_lib/u8g2_d_memory.c **** {
 1524              		.loc 1 491 1 is_stmt 1 view -0
 1525              		.cfi_startproc
 1526              		@ args = 0, pretend = 0, frame = 0
 1527              		@ frame_needed = 0, uses_anonymous_args = 0
 1528              		@ link register save eliminated.
 492:u8g2_lib/u8g2_d_memory.c ****   #ifdef U8G2_USE_DYNAMIC_ALLOC
 493:u8g2_lib/u8g2_d_memory.c ****   *page_cnt = 8;
 494:u8g2_lib/u8g2_d_memory.c ****   return 0;
 495:u8g2_lib/u8g2_d_memory.c ****   #else
 496:u8g2_lib/u8g2_d_memory.c ****   static uint8_t buf[768];
 1529              		.loc 1 496 3 view .LVU309
 497:u8g2_lib/u8g2_d_memory.c ****   *page_cnt = 8;
 1530              		.loc 1 497 3 view .LVU310
ARM GAS  C:\Users\GKQ\AppData\Local\Temp\ccTZzUR2.s 			page 35


 1531              		.loc 1 497 13 is_stmt 0 view .LVU311
 1532 0000 0823     		movs	r3, #8
 1533 0002 0370     		strb	r3, [r0]
 498:u8g2_lib/u8g2_d_memory.c ****   return buf;
 1534              		.loc 1 498 3 is_stmt 1 view .LVU312
 499:u8g2_lib/u8g2_d_memory.c ****   #endif
 500:u8g2_lib/u8g2_d_memory.c **** }
 1535              		.loc 1 500 1 is_stmt 0 view .LVU313
 1536 0004 0048     		ldr	r0, .L134
 1537              	.LVL89:
 1538              		.loc 1 500 1 view .LVU314
 1539 0006 7047     		bx	lr
 1540              	.L135:
 1541              		.align	2
 1542              	.L134:
 1543 0008 00000000 		.word	.LANCHOR44
 1544              		.cfi_endproc
 1545              	.LFE44:
 1547              		.section	.text.u8g2_m_24_4_1,"ax",%progbits
 1548              		.align	1
 1549              		.global	u8g2_m_24_4_1
 1550              		.syntax unified
 1551              		.thumb
 1552              		.thumb_func
 1553              		.fpu softvfp
 1555              	u8g2_m_24_4_1:
 1556              	.LVL90:
 1557              	.LFB45:
 501:u8g2_lib/u8g2_d_memory.c **** uint8_t *u8g2_m_24_4_1(uint8_t *page_cnt)
 502:u8g2_lib/u8g2_d_memory.c **** {
 1558              		.loc 1 502 1 is_stmt 1 view -0
 1559              		.cfi_startproc
 1560              		@ args = 0, pretend = 0, frame = 0
 1561              		@ frame_needed = 0, uses_anonymous_args = 0
 1562              		@ link register save eliminated.
 503:u8g2_lib/u8g2_d_memory.c ****   #ifdef U8G2_USE_DYNAMIC_ALLOC
 504:u8g2_lib/u8g2_d_memory.c ****   *page_cnt = 1;
 505:u8g2_lib/u8g2_d_memory.c ****   return 0;
 506:u8g2_lib/u8g2_d_memory.c ****   #else
 507:u8g2_lib/u8g2_d_memory.c ****   static uint8_t buf[192];
 1563              		.loc 1 507 3 view .LVU316
 508:u8g2_lib/u8g2_d_memory.c ****   *page_cnt = 1;
 1564              		.loc 1 508 3 view .LVU317
 1565              		.loc 1 508 13 is_stmt 0 view .LVU318
 1566 0000 0123     		movs	r3, #1
 1567 0002 0370     		strb	r3, [r0]
 509:u8g2_lib/u8g2_d_memory.c ****   return buf;
 1568              		.loc 1 509 3 is_stmt 1 view .LVU319
 510:u8g2_lib/u8g2_d_memory.c ****   #endif
 511:u8g2_lib/u8g2_d_memory.c **** }
 1569              		.loc 1 511 1 is_stmt 0 view .LVU320
 1570 0004 0048     		ldr	r0, .L137
 1571              	.LVL91:
 1572              		.loc 1 511 1 view .LVU321
 1573 0006 7047     		bx	lr
 1574              	.L138:
 1575              		.align	2
ARM GAS  C:\Users\GKQ\AppData\Local\Temp\ccTZzUR2.s 			page 36


 1576              	.L137:
 1577 0008 00000000 		.word	.LANCHOR45
 1578              		.cfi_endproc
 1579              	.LFE45:
 1581              		.section	.text.u8g2_m_24_4_2,"ax",%progbits
 1582              		.align	1
 1583              		.global	u8g2_m_24_4_2
 1584              		.syntax unified
 1585              		.thumb
 1586              		.thumb_func
 1587              		.fpu softvfp
 1589              	u8g2_m_24_4_2:
 1590              	.LVL92:
 1591              	.LFB46:
 512:u8g2_lib/u8g2_d_memory.c **** uint8_t *u8g2_m_24_4_2(uint8_t *page_cnt)
 513:u8g2_lib/u8g2_d_memory.c **** {
 1592              		.loc 1 513 1 is_stmt 1 view -0
 1593              		.cfi_startproc
 1594              		@ args = 0, pretend = 0, frame = 0
 1595              		@ frame_needed = 0, uses_anonymous_args = 0
 1596              		@ link register save eliminated.
 514:u8g2_lib/u8g2_d_memory.c ****   #ifdef U8G2_USE_DYNAMIC_ALLOC
 515:u8g2_lib/u8g2_d_memory.c ****   *page_cnt = 2;
 516:u8g2_lib/u8g2_d_memory.c ****   return 0;
 517:u8g2_lib/u8g2_d_memory.c ****   #else
 518:u8g2_lib/u8g2_d_memory.c ****   static uint8_t buf[384];
 1597              		.loc 1 518 3 view .LVU323
 519:u8g2_lib/u8g2_d_memory.c ****   *page_cnt = 2;
 1598              		.loc 1 519 3 view .LVU324
 1599              		.loc 1 519 13 is_stmt 0 view .LVU325
 1600 0000 0223     		movs	r3, #2
 1601 0002 0370     		strb	r3, [r0]
 520:u8g2_lib/u8g2_d_memory.c ****   return buf;
 1602              		.loc 1 520 3 is_stmt 1 view .LVU326
 521:u8g2_lib/u8g2_d_memory.c ****   #endif
 522:u8g2_lib/u8g2_d_memory.c **** }
 1603              		.loc 1 522 1 is_stmt 0 view .LVU327
 1604 0004 0048     		ldr	r0, .L140
 1605              	.LVL93:
 1606              		.loc 1 522 1 view .LVU328
 1607 0006 7047     		bx	lr
 1608              	.L141:
 1609              		.align	2
 1610              	.L140:
 1611 0008 00000000 		.word	.LANCHOR46
 1612              		.cfi_endproc
 1613              	.LFE46:
 1615              		.section	.text.u8g2_m_24_4_f,"ax",%progbits
 1616              		.align	1
 1617              		.global	u8g2_m_24_4_f
 1618              		.syntax unified
 1619              		.thumb
 1620              		.thumb_func
 1621              		.fpu softvfp
 1623              	u8g2_m_24_4_f:
 1624              	.LVL94:
 1625              	.LFB47:
ARM GAS  C:\Users\GKQ\AppData\Local\Temp\ccTZzUR2.s 			page 37


 523:u8g2_lib/u8g2_d_memory.c **** uint8_t *u8g2_m_24_4_f(uint8_t *page_cnt)
 524:u8g2_lib/u8g2_d_memory.c **** {
 1626              		.loc 1 524 1 is_stmt 1 view -0
 1627              		.cfi_startproc
 1628              		@ args = 0, pretend = 0, frame = 0
 1629              		@ frame_needed = 0, uses_anonymous_args = 0
 1630              		@ link register save eliminated.
 525:u8g2_lib/u8g2_d_memory.c ****   #ifdef U8G2_USE_DYNAMIC_ALLOC
 526:u8g2_lib/u8g2_d_memory.c ****   *page_cnt = 4;
 527:u8g2_lib/u8g2_d_memory.c ****   return 0;
 528:u8g2_lib/u8g2_d_memory.c ****   #else
 529:u8g2_lib/u8g2_d_memory.c ****   static uint8_t buf[768];
 1631              		.loc 1 529 3 view .LVU330
 530:u8g2_lib/u8g2_d_memory.c ****   *page_cnt = 4;
 1632              		.loc 1 530 3 view .LVU331
 1633              		.loc 1 530 13 is_stmt 0 view .LVU332
 1634 0000 0423     		movs	r3, #4
 1635 0002 0370     		strb	r3, [r0]
 531:u8g2_lib/u8g2_d_memory.c ****   return buf;
 1636              		.loc 1 531 3 is_stmt 1 view .LVU333
 532:u8g2_lib/u8g2_d_memory.c ****   #endif
 533:u8g2_lib/u8g2_d_memory.c **** }
 1637              		.loc 1 533 1 is_stmt 0 view .LVU334
 1638 0004 0048     		ldr	r0, .L143
 1639              	.LVL95:
 1640              		.loc 1 533 1 view .LVU335
 1641 0006 7047     		bx	lr
 1642              	.L144:
 1643              		.align	2
 1644              	.L143:
 1645 0008 00000000 		.word	.LANCHOR47
 1646              		.cfi_endproc
 1647              	.LFE47:
 1649              		.section	.text.u8g2_m_50_30_1,"ax",%progbits
 1650              		.align	1
 1651              		.global	u8g2_m_50_30_1
 1652              		.syntax unified
 1653              		.thumb
 1654              		.thumb_func
 1655              		.fpu softvfp
 1657              	u8g2_m_50_30_1:
 1658              	.LVL96:
 1659              	.LFB48:
 534:u8g2_lib/u8g2_d_memory.c **** uint8_t *u8g2_m_50_30_1(uint8_t *page_cnt)
 535:u8g2_lib/u8g2_d_memory.c **** {
 1660              		.loc 1 535 1 is_stmt 1 view -0
 1661              		.cfi_startproc
 1662              		@ args = 0, pretend = 0, frame = 0
 1663              		@ frame_needed = 0, uses_anonymous_args = 0
 1664              		@ link register save eliminated.
 536:u8g2_lib/u8g2_d_memory.c ****   #ifdef U8G2_USE_DYNAMIC_ALLOC
 537:u8g2_lib/u8g2_d_memory.c ****   *page_cnt = 1;
 538:u8g2_lib/u8g2_d_memory.c ****   return 0;
 539:u8g2_lib/u8g2_d_memory.c ****   #else
 540:u8g2_lib/u8g2_d_memory.c ****   static uint8_t buf[400];
 1665              		.loc 1 540 3 view .LVU337
 541:u8g2_lib/u8g2_d_memory.c ****   *page_cnt = 1;
ARM GAS  C:\Users\GKQ\AppData\Local\Temp\ccTZzUR2.s 			page 38


 1666              		.loc 1 541 3 view .LVU338
 1667              		.loc 1 541 13 is_stmt 0 view .LVU339
 1668 0000 0123     		movs	r3, #1
 1669 0002 0370     		strb	r3, [r0]
 542:u8g2_lib/u8g2_d_memory.c ****   return buf;
 1670              		.loc 1 542 3 is_stmt 1 view .LVU340
 543:u8g2_lib/u8g2_d_memory.c ****   #endif
 544:u8g2_lib/u8g2_d_memory.c **** }
 1671              		.loc 1 544 1 is_stmt 0 view .LVU341
 1672 0004 0048     		ldr	r0, .L146
 1673              	.LVL97:
 1674              		.loc 1 544 1 view .LVU342
 1675 0006 7047     		bx	lr
 1676              	.L147:
 1677              		.align	2
 1678              	.L146:
 1679 0008 00000000 		.word	.LANCHOR48
 1680              		.cfi_endproc
 1681              	.LFE48:
 1683              		.section	.text.u8g2_m_50_30_2,"ax",%progbits
 1684              		.align	1
 1685              		.global	u8g2_m_50_30_2
 1686              		.syntax unified
 1687              		.thumb
 1688              		.thumb_func
 1689              		.fpu softvfp
 1691              	u8g2_m_50_30_2:
 1692              	.LVL98:
 1693              	.LFB49:
 545:u8g2_lib/u8g2_d_memory.c **** uint8_t *u8g2_m_50_30_2(uint8_t *page_cnt)
 546:u8g2_lib/u8g2_d_memory.c **** {
 1694              		.loc 1 546 1 is_stmt 1 view -0
 1695              		.cfi_startproc
 1696              		@ args = 0, pretend = 0, frame = 0
 1697              		@ frame_needed = 0, uses_anonymous_args = 0
 1698              		@ link register save eliminated.
 547:u8g2_lib/u8g2_d_memory.c ****   #ifdef U8G2_USE_DYNAMIC_ALLOC
 548:u8g2_lib/u8g2_d_memory.c ****   *page_cnt = 2;
 549:u8g2_lib/u8g2_d_memory.c ****   return 0;
 550:u8g2_lib/u8g2_d_memory.c ****   #else
 551:u8g2_lib/u8g2_d_memory.c ****   static uint8_t buf[800];
 1699              		.loc 1 551 3 view .LVU344
 552:u8g2_lib/u8g2_d_memory.c ****   *page_cnt = 2;
 1700              		.loc 1 552 3 view .LVU345
 1701              		.loc 1 552 13 is_stmt 0 view .LVU346
 1702 0000 0223     		movs	r3, #2
 1703 0002 0370     		strb	r3, [r0]
 553:u8g2_lib/u8g2_d_memory.c ****   return buf;
 1704              		.loc 1 553 3 is_stmt 1 view .LVU347
 554:u8g2_lib/u8g2_d_memory.c ****   #endif
 555:u8g2_lib/u8g2_d_memory.c **** }
 1705              		.loc 1 555 1 is_stmt 0 view .LVU348
 1706 0004 0048     		ldr	r0, .L149
 1707              	.LVL99:
 1708              		.loc 1 555 1 view .LVU349
 1709 0006 7047     		bx	lr
 1710              	.L150:
ARM GAS  C:\Users\GKQ\AppData\Local\Temp\ccTZzUR2.s 			page 39


 1711              		.align	2
 1712              	.L149:
 1713 0008 00000000 		.word	.LANCHOR49
 1714              		.cfi_endproc
 1715              	.LFE49:
 1717              		.section	.text.u8g2_m_50_30_f,"ax",%progbits
 1718              		.align	1
 1719              		.global	u8g2_m_50_30_f
 1720              		.syntax unified
 1721              		.thumb
 1722              		.thumb_func
 1723              		.fpu softvfp
 1725              	u8g2_m_50_30_f:
 1726              	.LVL100:
 1727              	.LFB50:
 556:u8g2_lib/u8g2_d_memory.c **** uint8_t *u8g2_m_50_30_f(uint8_t *page_cnt)
 557:u8g2_lib/u8g2_d_memory.c **** {
 1728              		.loc 1 557 1 is_stmt 1 view -0
 1729              		.cfi_startproc
 1730              		@ args = 0, pretend = 0, frame = 0
 1731              		@ frame_needed = 0, uses_anonymous_args = 0
 1732              		@ link register save eliminated.
 558:u8g2_lib/u8g2_d_memory.c ****   #ifdef U8G2_USE_DYNAMIC_ALLOC
 559:u8g2_lib/u8g2_d_memory.c ****   *page_cnt = 30;
 560:u8g2_lib/u8g2_d_memory.c ****   return 0;
 561:u8g2_lib/u8g2_d_memory.c ****   #else
 562:u8g2_lib/u8g2_d_memory.c ****   static uint8_t buf[12000];
 1733              		.loc 1 562 3 view .LVU351
 563:u8g2_lib/u8g2_d_memory.c ****   *page_cnt = 30;
 1734              		.loc 1 563 3 view .LVU352
 1735              		.loc 1 563 13 is_stmt 0 view .LVU353
 1736 0000 1E23     		movs	r3, #30
 1737 0002 0370     		strb	r3, [r0]
 564:u8g2_lib/u8g2_d_memory.c ****   return buf;
 1738              		.loc 1 564 3 is_stmt 1 view .LVU354
 565:u8g2_lib/u8g2_d_memory.c ****   #endif
 566:u8g2_lib/u8g2_d_memory.c **** }
 1739              		.loc 1 566 1 is_stmt 0 view .LVU355
 1740 0004 0048     		ldr	r0, .L152
 1741              	.LVL101:
 1742              		.loc 1 566 1 view .LVU356
 1743 0006 7047     		bx	lr
 1744              	.L153:
 1745              		.align	2
 1746              	.L152:
 1747 0008 00000000 		.word	buf.11221
 1748              		.cfi_endproc
 1749              	.LFE50:
 1751              		.section	.text.u8g2_m_18_21_1,"ax",%progbits
 1752              		.align	1
 1753              		.global	u8g2_m_18_21_1
 1754              		.syntax unified
 1755              		.thumb
 1756              		.thumb_func
 1757              		.fpu softvfp
 1759              	u8g2_m_18_21_1:
 1760              	.LVL102:
ARM GAS  C:\Users\GKQ\AppData\Local\Temp\ccTZzUR2.s 			page 40


 1761              	.LFB51:
 567:u8g2_lib/u8g2_d_memory.c **** uint8_t *u8g2_m_18_21_1(uint8_t *page_cnt)
 568:u8g2_lib/u8g2_d_memory.c **** {
 1762              		.loc 1 568 1 is_stmt 1 view -0
 1763              		.cfi_startproc
 1764              		@ args = 0, pretend = 0, frame = 0
 1765              		@ frame_needed = 0, uses_anonymous_args = 0
 1766              		@ link register save eliminated.
 569:u8g2_lib/u8g2_d_memory.c ****   #ifdef U8G2_USE_DYNAMIC_ALLOC
 570:u8g2_lib/u8g2_d_memory.c ****   *page_cnt = 1;
 571:u8g2_lib/u8g2_d_memory.c ****   return 0;
 572:u8g2_lib/u8g2_d_memory.c ****   #else
 573:u8g2_lib/u8g2_d_memory.c ****   static uint8_t buf[144];
 1767              		.loc 1 573 3 view .LVU358
 574:u8g2_lib/u8g2_d_memory.c ****   *page_cnt = 1;
 1768              		.loc 1 574 3 view .LVU359
 1769              		.loc 1 574 13 is_stmt 0 view .LVU360
 1770 0000 0123     		movs	r3, #1
 1771 0002 0370     		strb	r3, [r0]
 575:u8g2_lib/u8g2_d_memory.c ****   return buf;
 1772              		.loc 1 575 3 is_stmt 1 view .LVU361
 576:u8g2_lib/u8g2_d_memory.c ****   #endif
 577:u8g2_lib/u8g2_d_memory.c **** }
 1773              		.loc 1 577 1 is_stmt 0 view .LVU362
 1774 0004 0048     		ldr	r0, .L155
 1775              	.LVL103:
 1776              		.loc 1 577 1 view .LVU363
 1777 0006 7047     		bx	lr
 1778              	.L156:
 1779              		.align	2
 1780              	.L155:
 1781 0008 00000000 		.word	.LANCHOR50
 1782              		.cfi_endproc
 1783              	.LFE51:
 1785              		.section	.text.u8g2_m_18_21_2,"ax",%progbits
 1786              		.align	1
 1787              		.global	u8g2_m_18_21_2
 1788              		.syntax unified
 1789              		.thumb
 1790              		.thumb_func
 1791              		.fpu softvfp
 1793              	u8g2_m_18_21_2:
 1794              	.LVL104:
 1795              	.LFB52:
 578:u8g2_lib/u8g2_d_memory.c **** uint8_t *u8g2_m_18_21_2(uint8_t *page_cnt)
 579:u8g2_lib/u8g2_d_memory.c **** {
 1796              		.loc 1 579 1 is_stmt 1 view -0
 1797              		.cfi_startproc
 1798              		@ args = 0, pretend = 0, frame = 0
 1799              		@ frame_needed = 0, uses_anonymous_args = 0
 1800              		@ link register save eliminated.
 580:u8g2_lib/u8g2_d_memory.c ****   #ifdef U8G2_USE_DYNAMIC_ALLOC
 581:u8g2_lib/u8g2_d_memory.c ****   *page_cnt = 2;
 582:u8g2_lib/u8g2_d_memory.c ****   return 0;
 583:u8g2_lib/u8g2_d_memory.c ****   #else
 584:u8g2_lib/u8g2_d_memory.c ****   static uint8_t buf[288];
 1801              		.loc 1 584 3 view .LVU365
ARM GAS  C:\Users\GKQ\AppData\Local\Temp\ccTZzUR2.s 			page 41


 585:u8g2_lib/u8g2_d_memory.c ****   *page_cnt = 2;
 1802              		.loc 1 585 3 view .LVU366
 1803              		.loc 1 585 13 is_stmt 0 view .LVU367
 1804 0000 0223     		movs	r3, #2
 1805 0002 0370     		strb	r3, [r0]
 586:u8g2_lib/u8g2_d_memory.c ****   return buf;
 1806              		.loc 1 586 3 is_stmt 1 view .LVU368
 587:u8g2_lib/u8g2_d_memory.c ****   #endif
 588:u8g2_lib/u8g2_d_memory.c **** }
 1807              		.loc 1 588 1 is_stmt 0 view .LVU369
 1808 0004 0048     		ldr	r0, .L158
 1809              	.LVL105:
 1810              		.loc 1 588 1 view .LVU370
 1811 0006 7047     		bx	lr
 1812              	.L159:
 1813              		.align	2
 1814              	.L158:
 1815 0008 00000000 		.word	.LANCHOR51
 1816              		.cfi_endproc
 1817              	.LFE52:
 1819              		.section	.text.u8g2_m_18_21_f,"ax",%progbits
 1820              		.align	1
 1821              		.global	u8g2_m_18_21_f
 1822              		.syntax unified
 1823              		.thumb
 1824              		.thumb_func
 1825              		.fpu softvfp
 1827              	u8g2_m_18_21_f:
 1828              	.LVL106:
 1829              	.LFB53:
 589:u8g2_lib/u8g2_d_memory.c **** uint8_t *u8g2_m_18_21_f(uint8_t *page_cnt)
 590:u8g2_lib/u8g2_d_memory.c **** {
 1830              		.loc 1 590 1 is_stmt 1 view -0
 1831              		.cfi_startproc
 1832              		@ args = 0, pretend = 0, frame = 0
 1833              		@ frame_needed = 0, uses_anonymous_args = 0
 1834              		@ link register save eliminated.
 591:u8g2_lib/u8g2_d_memory.c ****   #ifdef U8G2_USE_DYNAMIC_ALLOC
 592:u8g2_lib/u8g2_d_memory.c ****   *page_cnt = 21;
 593:u8g2_lib/u8g2_d_memory.c ****   return 0;
 594:u8g2_lib/u8g2_d_memory.c ****   #else
 595:u8g2_lib/u8g2_d_memory.c ****   static uint8_t buf[3024];
 1835              		.loc 1 595 3 view .LVU372
 596:u8g2_lib/u8g2_d_memory.c ****   *page_cnt = 21;
 1836              		.loc 1 596 3 view .LVU373
 1837              		.loc 1 596 13 is_stmt 0 view .LVU374
 1838 0000 1523     		movs	r3, #21
 1839 0002 0370     		strb	r3, [r0]
 597:u8g2_lib/u8g2_d_memory.c ****   return buf;
 1840              		.loc 1 597 3 is_stmt 1 view .LVU375
 598:u8g2_lib/u8g2_d_memory.c ****   #endif
 599:u8g2_lib/u8g2_d_memory.c **** }
 1841              		.loc 1 599 1 is_stmt 0 view .LVU376
 1842 0004 0048     		ldr	r0, .L161
 1843              	.LVL107:
 1844              		.loc 1 599 1 view .LVU377
 1845 0006 7047     		bx	lr
ARM GAS  C:\Users\GKQ\AppData\Local\Temp\ccTZzUR2.s 			page 42


 1846              	.L162:
 1847              		.align	2
 1848              	.L161:
 1849 0008 00000000 		.word	.LANCHOR52
 1850              		.cfi_endproc
 1851              	.LFE53:
 1853              		.section	.text.u8g2_m_13_8_1,"ax",%progbits
 1854              		.align	1
 1855              		.global	u8g2_m_13_8_1
 1856              		.syntax unified
 1857              		.thumb
 1858              		.thumb_func
 1859              		.fpu softvfp
 1861              	u8g2_m_13_8_1:
 1862              	.LVL108:
 1863              	.LFB54:
 600:u8g2_lib/u8g2_d_memory.c **** uint8_t *u8g2_m_13_8_1(uint8_t *page_cnt)
 601:u8g2_lib/u8g2_d_memory.c **** {
 1864              		.loc 1 601 1 is_stmt 1 view -0
 1865              		.cfi_startproc
 1866              		@ args = 0, pretend = 0, frame = 0
 1867              		@ frame_needed = 0, uses_anonymous_args = 0
 1868              		@ link register save eliminated.
 602:u8g2_lib/u8g2_d_memory.c ****   #ifdef U8G2_USE_DYNAMIC_ALLOC
 603:u8g2_lib/u8g2_d_memory.c ****   *page_cnt = 1;
 604:u8g2_lib/u8g2_d_memory.c ****   return 0;
 605:u8g2_lib/u8g2_d_memory.c ****   #else
 606:u8g2_lib/u8g2_d_memory.c ****   static uint8_t buf[104];
 1869              		.loc 1 606 3 view .LVU379
 607:u8g2_lib/u8g2_d_memory.c ****   *page_cnt = 1;
 1870              		.loc 1 607 3 view .LVU380
 1871              		.loc 1 607 13 is_stmt 0 view .LVU381
 1872 0000 0123     		movs	r3, #1
 1873 0002 0370     		strb	r3, [r0]
 608:u8g2_lib/u8g2_d_memory.c ****   return buf;
 1874              		.loc 1 608 3 is_stmt 1 view .LVU382
 609:u8g2_lib/u8g2_d_memory.c ****   #endif
 610:u8g2_lib/u8g2_d_memory.c **** }
 1875              		.loc 1 610 1 is_stmt 0 view .LVU383
 1876 0004 0048     		ldr	r0, .L164
 1877              	.LVL109:
 1878              		.loc 1 610 1 view .LVU384
 1879 0006 7047     		bx	lr
 1880              	.L165:
 1881              		.align	2
 1882              	.L164:
 1883 0008 00000000 		.word	.LANCHOR53
 1884              		.cfi_endproc
 1885              	.LFE54:
 1887              		.section	.text.u8g2_m_13_8_2,"ax",%progbits
 1888              		.align	1
 1889              		.global	u8g2_m_13_8_2
 1890              		.syntax unified
 1891              		.thumb
 1892              		.thumb_func
 1893              		.fpu softvfp
 1895              	u8g2_m_13_8_2:
ARM GAS  C:\Users\GKQ\AppData\Local\Temp\ccTZzUR2.s 			page 43


 1896              	.LVL110:
 1897              	.LFB55:
 611:u8g2_lib/u8g2_d_memory.c **** uint8_t *u8g2_m_13_8_2(uint8_t *page_cnt)
 612:u8g2_lib/u8g2_d_memory.c **** {
 1898              		.loc 1 612 1 is_stmt 1 view -0
 1899              		.cfi_startproc
 1900              		@ args = 0, pretend = 0, frame = 0
 1901              		@ frame_needed = 0, uses_anonymous_args = 0
 1902              		@ link register save eliminated.
 613:u8g2_lib/u8g2_d_memory.c ****   #ifdef U8G2_USE_DYNAMIC_ALLOC
 614:u8g2_lib/u8g2_d_memory.c ****   *page_cnt = 2;
 615:u8g2_lib/u8g2_d_memory.c ****   return 0;
 616:u8g2_lib/u8g2_d_memory.c ****   #else
 617:u8g2_lib/u8g2_d_memory.c ****   static uint8_t buf[208];
 1903              		.loc 1 617 3 view .LVU386
 618:u8g2_lib/u8g2_d_memory.c ****   *page_cnt = 2;
 1904              		.loc 1 618 3 view .LVU387
 1905              		.loc 1 618 13 is_stmt 0 view .LVU388
 1906 0000 0223     		movs	r3, #2
 1907 0002 0370     		strb	r3, [r0]
 619:u8g2_lib/u8g2_d_memory.c ****   return buf;
 1908              		.loc 1 619 3 is_stmt 1 view .LVU389
 620:u8g2_lib/u8g2_d_memory.c ****   #endif
 621:u8g2_lib/u8g2_d_memory.c **** }
 1909              		.loc 1 621 1 is_stmt 0 view .LVU390
 1910 0004 0048     		ldr	r0, .L167
 1911              	.LVL111:
 1912              		.loc 1 621 1 view .LVU391
 1913 0006 7047     		bx	lr
 1914              	.L168:
 1915              		.align	2
 1916              	.L167:
 1917 0008 00000000 		.word	.LANCHOR54
 1918              		.cfi_endproc
 1919              	.LFE55:
 1921              		.section	.text.u8g2_m_13_8_f,"ax",%progbits
 1922              		.align	1
 1923              		.global	u8g2_m_13_8_f
 1924              		.syntax unified
 1925              		.thumb
 1926              		.thumb_func
 1927              		.fpu softvfp
 1929              	u8g2_m_13_8_f:
 1930              	.LVL112:
 1931              	.LFB56:
 622:u8g2_lib/u8g2_d_memory.c **** uint8_t *u8g2_m_13_8_f(uint8_t *page_cnt)
 623:u8g2_lib/u8g2_d_memory.c **** {
 1932              		.loc 1 623 1 is_stmt 1 view -0
 1933              		.cfi_startproc
 1934              		@ args = 0, pretend = 0, frame = 0
 1935              		@ frame_needed = 0, uses_anonymous_args = 0
 1936              		@ link register save eliminated.
 624:u8g2_lib/u8g2_d_memory.c ****   #ifdef U8G2_USE_DYNAMIC_ALLOC
 625:u8g2_lib/u8g2_d_memory.c ****   *page_cnt = 8;
 626:u8g2_lib/u8g2_d_memory.c ****   return 0;
 627:u8g2_lib/u8g2_d_memory.c ****   #else
 628:u8g2_lib/u8g2_d_memory.c ****   static uint8_t buf[832];
ARM GAS  C:\Users\GKQ\AppData\Local\Temp\ccTZzUR2.s 			page 44


 1937              		.loc 1 628 3 view .LVU393
 629:u8g2_lib/u8g2_d_memory.c ****   *page_cnt = 8;
 1938              		.loc 1 629 3 view .LVU394
 1939              		.loc 1 629 13 is_stmt 0 view .LVU395
 1940 0000 0823     		movs	r3, #8
 1941 0002 0370     		strb	r3, [r0]
 630:u8g2_lib/u8g2_d_memory.c ****   return buf;
 1942              		.loc 1 630 3 is_stmt 1 view .LVU396
 631:u8g2_lib/u8g2_d_memory.c ****   #endif
 632:u8g2_lib/u8g2_d_memory.c **** }
 1943              		.loc 1 632 1 is_stmt 0 view .LVU397
 1944 0004 0048     		ldr	r0, .L170
 1945              	.LVL113:
 1946              		.loc 1 632 1 view .LVU398
 1947 0006 7047     		bx	lr
 1948              	.L171:
 1949              		.align	2
 1950              	.L170:
 1951 0008 00000000 		.word	.LANCHOR55
 1952              		.cfi_endproc
 1953              	.LFE56:
 1955              		.section	.text.u8g2_m_11_6_1,"ax",%progbits
 1956              		.align	1
 1957              		.global	u8g2_m_11_6_1
 1958              		.syntax unified
 1959              		.thumb
 1960              		.thumb_func
 1961              		.fpu softvfp
 1963              	u8g2_m_11_6_1:
 1964              	.LVL114:
 1965              	.LFB57:
 633:u8g2_lib/u8g2_d_memory.c **** uint8_t *u8g2_m_11_6_1(uint8_t *page_cnt)
 634:u8g2_lib/u8g2_d_memory.c **** {
 1966              		.loc 1 634 1 is_stmt 1 view -0
 1967              		.cfi_startproc
 1968              		@ args = 0, pretend = 0, frame = 0
 1969              		@ frame_needed = 0, uses_anonymous_args = 0
 1970              		@ link register save eliminated.
 635:u8g2_lib/u8g2_d_memory.c ****   #ifdef U8G2_USE_DYNAMIC_ALLOC
 636:u8g2_lib/u8g2_d_memory.c ****   *page_cnt = 1;
 637:u8g2_lib/u8g2_d_memory.c ****   return 0;
 638:u8g2_lib/u8g2_d_memory.c ****   #else
 639:u8g2_lib/u8g2_d_memory.c ****   static uint8_t buf[88];
 1971              		.loc 1 639 3 view .LVU400
 640:u8g2_lib/u8g2_d_memory.c ****   *page_cnt = 1;
 1972              		.loc 1 640 3 view .LVU401
 1973              		.loc 1 640 13 is_stmt 0 view .LVU402
 1974 0000 0123     		movs	r3, #1
 1975 0002 0370     		strb	r3, [r0]
 641:u8g2_lib/u8g2_d_memory.c ****   return buf;
 1976              		.loc 1 641 3 is_stmt 1 view .LVU403
 642:u8g2_lib/u8g2_d_memory.c ****   #endif
 643:u8g2_lib/u8g2_d_memory.c **** }
 1977              		.loc 1 643 1 is_stmt 0 view .LVU404
 1978 0004 0048     		ldr	r0, .L173
 1979              	.LVL115:
 1980              		.loc 1 643 1 view .LVU405
ARM GAS  C:\Users\GKQ\AppData\Local\Temp\ccTZzUR2.s 			page 45


 1981 0006 7047     		bx	lr
 1982              	.L174:
 1983              		.align	2
 1984              	.L173:
 1985 0008 00000000 		.word	.LANCHOR56
 1986              		.cfi_endproc
 1987              	.LFE57:
 1989              		.section	.text.u8g2_m_11_6_2,"ax",%progbits
 1990              		.align	1
 1991              		.global	u8g2_m_11_6_2
 1992              		.syntax unified
 1993              		.thumb
 1994              		.thumb_func
 1995              		.fpu softvfp
 1997              	u8g2_m_11_6_2:
 1998              	.LVL116:
 1999              	.LFB58:
 644:u8g2_lib/u8g2_d_memory.c **** uint8_t *u8g2_m_11_6_2(uint8_t *page_cnt)
 645:u8g2_lib/u8g2_d_memory.c **** {
 2000              		.loc 1 645 1 is_stmt 1 view -0
 2001              		.cfi_startproc
 2002              		@ args = 0, pretend = 0, frame = 0
 2003              		@ frame_needed = 0, uses_anonymous_args = 0
 2004              		@ link register save eliminated.
 646:u8g2_lib/u8g2_d_memory.c ****   #ifdef U8G2_USE_DYNAMIC_ALLOC
 647:u8g2_lib/u8g2_d_memory.c ****   *page_cnt = 2;
 648:u8g2_lib/u8g2_d_memory.c ****   return 0;
 649:u8g2_lib/u8g2_d_memory.c ****   #else
 650:u8g2_lib/u8g2_d_memory.c ****   static uint8_t buf[176];
 2005              		.loc 1 650 3 view .LVU407
 651:u8g2_lib/u8g2_d_memory.c ****   *page_cnt = 2;
 2006              		.loc 1 651 3 view .LVU408
 2007              		.loc 1 651 13 is_stmt 0 view .LVU409
 2008 0000 0223     		movs	r3, #2
 2009 0002 0370     		strb	r3, [r0]
 652:u8g2_lib/u8g2_d_memory.c ****   return buf;
 2010              		.loc 1 652 3 is_stmt 1 view .LVU410
 653:u8g2_lib/u8g2_d_memory.c ****   #endif
 654:u8g2_lib/u8g2_d_memory.c **** }
 2011              		.loc 1 654 1 is_stmt 0 view .LVU411
 2012 0004 0048     		ldr	r0, .L176
 2013              	.LVL117:
 2014              		.loc 1 654 1 view .LVU412
 2015 0006 7047     		bx	lr
 2016              	.L177:
 2017              		.align	2
 2018              	.L176:
 2019 0008 00000000 		.word	.LANCHOR57
 2020              		.cfi_endproc
 2021              	.LFE58:
 2023              		.section	.text.u8g2_m_11_6_f,"ax",%progbits
 2024              		.align	1
 2025              		.global	u8g2_m_11_6_f
 2026              		.syntax unified
 2027              		.thumb
 2028              		.thumb_func
 2029              		.fpu softvfp
ARM GAS  C:\Users\GKQ\AppData\Local\Temp\ccTZzUR2.s 			page 46


 2031              	u8g2_m_11_6_f:
 2032              	.LVL118:
 2033              	.LFB59:
 655:u8g2_lib/u8g2_d_memory.c **** uint8_t *u8g2_m_11_6_f(uint8_t *page_cnt)
 656:u8g2_lib/u8g2_d_memory.c **** {
 2034              		.loc 1 656 1 is_stmt 1 view -0
 2035              		.cfi_startproc
 2036              		@ args = 0, pretend = 0, frame = 0
 2037              		@ frame_needed = 0, uses_anonymous_args = 0
 2038              		@ link register save eliminated.
 657:u8g2_lib/u8g2_d_memory.c ****   #ifdef U8G2_USE_DYNAMIC_ALLOC
 658:u8g2_lib/u8g2_d_memory.c ****   *page_cnt = 6;
 659:u8g2_lib/u8g2_d_memory.c ****   return 0;
 660:u8g2_lib/u8g2_d_memory.c ****   #else
 661:u8g2_lib/u8g2_d_memory.c ****   static uint8_t buf[528];
 2039              		.loc 1 661 3 view .LVU414
 662:u8g2_lib/u8g2_d_memory.c ****   *page_cnt = 6;
 2040              		.loc 1 662 3 view .LVU415
 2041              		.loc 1 662 13 is_stmt 0 view .LVU416
 2042 0000 0623     		movs	r3, #6
 2043 0002 0370     		strb	r3, [r0]
 663:u8g2_lib/u8g2_d_memory.c ****   return buf;
 2044              		.loc 1 663 3 is_stmt 1 view .LVU417
 664:u8g2_lib/u8g2_d_memory.c ****   #endif
 665:u8g2_lib/u8g2_d_memory.c **** }
 2045              		.loc 1 665 1 is_stmt 0 view .LVU418
 2046 0004 0048     		ldr	r0, .L179
 2047              	.LVL119:
 2048              		.loc 1 665 1 view .LVU419
 2049 0006 7047     		bx	lr
 2050              	.L180:
 2051              		.align	2
 2052              	.L179:
 2053 0008 00000000 		.word	.LANCHOR58
 2054              		.cfi_endproc
 2055              	.LFE59:
 2057              		.section	.text.u8g2_m_12_9_1,"ax",%progbits
 2058              		.align	1
 2059              		.global	u8g2_m_12_9_1
 2060              		.syntax unified
 2061              		.thumb
 2062              		.thumb_func
 2063              		.fpu softvfp
 2065              	u8g2_m_12_9_1:
 2066              	.LVL120:
 2067              	.LFB60:
 666:u8g2_lib/u8g2_d_memory.c **** uint8_t *u8g2_m_12_9_1(uint8_t *page_cnt)
 667:u8g2_lib/u8g2_d_memory.c **** {
 2068              		.loc 1 667 1 is_stmt 1 view -0
 2069              		.cfi_startproc
 2070              		@ args = 0, pretend = 0, frame = 0
 2071              		@ frame_needed = 0, uses_anonymous_args = 0
 2072              		@ link register save eliminated.
 668:u8g2_lib/u8g2_d_memory.c ****   #ifdef U8G2_USE_DYNAMIC_ALLOC
 669:u8g2_lib/u8g2_d_memory.c ****   *page_cnt = 1;
 670:u8g2_lib/u8g2_d_memory.c ****   return 0;
 671:u8g2_lib/u8g2_d_memory.c ****   #else
ARM GAS  C:\Users\GKQ\AppData\Local\Temp\ccTZzUR2.s 			page 47


 672:u8g2_lib/u8g2_d_memory.c ****   static uint8_t buf[96];
 2073              		.loc 1 672 3 view .LVU421
 673:u8g2_lib/u8g2_d_memory.c ****   *page_cnt = 1;
 2074              		.loc 1 673 3 view .LVU422
 2075              		.loc 1 673 13 is_stmt 0 view .LVU423
 2076 0000 0123     		movs	r3, #1
 2077 0002 0370     		strb	r3, [r0]
 674:u8g2_lib/u8g2_d_memory.c ****   return buf;
 2078              		.loc 1 674 3 is_stmt 1 view .LVU424
 675:u8g2_lib/u8g2_d_memory.c ****   #endif
 676:u8g2_lib/u8g2_d_memory.c **** }
 2079              		.loc 1 676 1 is_stmt 0 view .LVU425
 2080 0004 0048     		ldr	r0, .L182
 2081              	.LVL121:
 2082              		.loc 1 676 1 view .LVU426
 2083 0006 7047     		bx	lr
 2084              	.L183:
 2085              		.align	2
 2086              	.L182:
 2087 0008 00000000 		.word	.LANCHOR59
 2088              		.cfi_endproc
 2089              	.LFE60:
 2091              		.section	.text.u8g2_m_12_9_2,"ax",%progbits
 2092              		.align	1
 2093              		.global	u8g2_m_12_9_2
 2094              		.syntax unified
 2095              		.thumb
 2096              		.thumb_func
 2097              		.fpu softvfp
 2099              	u8g2_m_12_9_2:
 2100              	.LVL122:
 2101              	.LFB61:
 677:u8g2_lib/u8g2_d_memory.c **** uint8_t *u8g2_m_12_9_2(uint8_t *page_cnt)
 678:u8g2_lib/u8g2_d_memory.c **** {
 2102              		.loc 1 678 1 is_stmt 1 view -0
 2103              		.cfi_startproc
 2104              		@ args = 0, pretend = 0, frame = 0
 2105              		@ frame_needed = 0, uses_anonymous_args = 0
 2106              		@ link register save eliminated.
 679:u8g2_lib/u8g2_d_memory.c ****   #ifdef U8G2_USE_DYNAMIC_ALLOC
 680:u8g2_lib/u8g2_d_memory.c ****   *page_cnt = 2;
 681:u8g2_lib/u8g2_d_memory.c ****   return 0;
 682:u8g2_lib/u8g2_d_memory.c ****   #else
 683:u8g2_lib/u8g2_d_memory.c ****   static uint8_t buf[192];
 2107              		.loc 1 683 3 view .LVU428
 684:u8g2_lib/u8g2_d_memory.c ****   *page_cnt = 2;
 2108              		.loc 1 684 3 view .LVU429
 2109              		.loc 1 684 13 is_stmt 0 view .LVU430
 2110 0000 0223     		movs	r3, #2
 2111 0002 0370     		strb	r3, [r0]
 685:u8g2_lib/u8g2_d_memory.c ****   return buf;
 2112              		.loc 1 685 3 is_stmt 1 view .LVU431
 686:u8g2_lib/u8g2_d_memory.c ****   #endif
 687:u8g2_lib/u8g2_d_memory.c **** }
 2113              		.loc 1 687 1 is_stmt 0 view .LVU432
 2114 0004 0048     		ldr	r0, .L185
 2115              	.LVL123:
ARM GAS  C:\Users\GKQ\AppData\Local\Temp\ccTZzUR2.s 			page 48


 2116              		.loc 1 687 1 view .LVU433
 2117 0006 7047     		bx	lr
 2118              	.L186:
 2119              		.align	2
 2120              	.L185:
 2121 0008 00000000 		.word	.LANCHOR60
 2122              		.cfi_endproc
 2123              	.LFE61:
 2125              		.section	.text.u8g2_m_12_9_f,"ax",%progbits
 2126              		.align	1
 2127              		.global	u8g2_m_12_9_f
 2128              		.syntax unified
 2129              		.thumb
 2130              		.thumb_func
 2131              		.fpu softvfp
 2133              	u8g2_m_12_9_f:
 2134              	.LVL124:
 2135              	.LFB62:
 688:u8g2_lib/u8g2_d_memory.c **** uint8_t *u8g2_m_12_9_f(uint8_t *page_cnt)
 689:u8g2_lib/u8g2_d_memory.c **** {
 2136              		.loc 1 689 1 is_stmt 1 view -0
 2137              		.cfi_startproc
 2138              		@ args = 0, pretend = 0, frame = 0
 2139              		@ frame_needed = 0, uses_anonymous_args = 0
 2140              		@ link register save eliminated.
 690:u8g2_lib/u8g2_d_memory.c ****   #ifdef U8G2_USE_DYNAMIC_ALLOC
 691:u8g2_lib/u8g2_d_memory.c ****   *page_cnt = 9;
 692:u8g2_lib/u8g2_d_memory.c ****   return 0;
 693:u8g2_lib/u8g2_d_memory.c ****   #else
 694:u8g2_lib/u8g2_d_memory.c ****   static uint8_t buf[864];
 2141              		.loc 1 694 3 view .LVU435
 695:u8g2_lib/u8g2_d_memory.c ****   *page_cnt = 9;
 2142              		.loc 1 695 3 view .LVU436
 2143              		.loc 1 695 13 is_stmt 0 view .LVU437
 2144 0000 0923     		movs	r3, #9
 2145 0002 0370     		strb	r3, [r0]
 696:u8g2_lib/u8g2_d_memory.c ****   return buf;
 2146              		.loc 1 696 3 is_stmt 1 view .LVU438
 697:u8g2_lib/u8g2_d_memory.c ****   #endif
 698:u8g2_lib/u8g2_d_memory.c **** }
 2147              		.loc 1 698 1 is_stmt 0 view .LVU439
 2148 0004 0048     		ldr	r0, .L188
 2149              	.LVL125:
 2150              		.loc 1 698 1 view .LVU440
 2151 0006 7047     		bx	lr
 2152              	.L189:
 2153              		.align	2
 2154              	.L188:
 2155 0008 00000000 		.word	.LANCHOR61
 2156              		.cfi_endproc
 2157              	.LFE62:
 2159              		.section	.text.u8g2_m_24_8_1,"ax",%progbits
 2160              		.align	1
 2161              		.global	u8g2_m_24_8_1
 2162              		.syntax unified
 2163              		.thumb
 2164              		.thumb_func
ARM GAS  C:\Users\GKQ\AppData\Local\Temp\ccTZzUR2.s 			page 49


 2165              		.fpu softvfp
 2167              	u8g2_m_24_8_1:
 2168              	.LVL126:
 2169              	.LFB63:
 699:u8g2_lib/u8g2_d_memory.c **** uint8_t *u8g2_m_24_8_1(uint8_t *page_cnt)
 700:u8g2_lib/u8g2_d_memory.c **** {
 2170              		.loc 1 700 1 is_stmt 1 view -0
 2171              		.cfi_startproc
 2172              		@ args = 0, pretend = 0, frame = 0
 2173              		@ frame_needed = 0, uses_anonymous_args = 0
 2174              		@ link register save eliminated.
 701:u8g2_lib/u8g2_d_memory.c ****   #ifdef U8G2_USE_DYNAMIC_ALLOC
 702:u8g2_lib/u8g2_d_memory.c ****   *page_cnt = 1;
 703:u8g2_lib/u8g2_d_memory.c ****   return 0;
 704:u8g2_lib/u8g2_d_memory.c ****   #else
 705:u8g2_lib/u8g2_d_memory.c ****   static uint8_t buf[192];
 2175              		.loc 1 705 3 view .LVU442
 706:u8g2_lib/u8g2_d_memory.c ****   *page_cnt = 1;
 2176              		.loc 1 706 3 view .LVU443
 2177              		.loc 1 706 13 is_stmt 0 view .LVU444
 2178 0000 0123     		movs	r3, #1
 2179 0002 0370     		strb	r3, [r0]
 707:u8g2_lib/u8g2_d_memory.c ****   return buf;
 2180              		.loc 1 707 3 is_stmt 1 view .LVU445
 708:u8g2_lib/u8g2_d_memory.c ****   #endif
 709:u8g2_lib/u8g2_d_memory.c **** }
 2181              		.loc 1 709 1 is_stmt 0 view .LVU446
 2182 0004 0048     		ldr	r0, .L191
 2183              	.LVL127:
 2184              		.loc 1 709 1 view .LVU447
 2185 0006 7047     		bx	lr
 2186              	.L192:
 2187              		.align	2
 2188              	.L191:
 2189 0008 00000000 		.word	.LANCHOR62
 2190              		.cfi_endproc
 2191              	.LFE63:
 2193              		.section	.text.u8g2_m_24_8_2,"ax",%progbits
 2194              		.align	1
 2195              		.global	u8g2_m_24_8_2
 2196              		.syntax unified
 2197              		.thumb
 2198              		.thumb_func
 2199              		.fpu softvfp
 2201              	u8g2_m_24_8_2:
 2202              	.LVL128:
 2203              	.LFB64:
 710:u8g2_lib/u8g2_d_memory.c **** uint8_t *u8g2_m_24_8_2(uint8_t *page_cnt)
 711:u8g2_lib/u8g2_d_memory.c **** {
 2204              		.loc 1 711 1 is_stmt 1 view -0
 2205              		.cfi_startproc
 2206              		@ args = 0, pretend = 0, frame = 0
 2207              		@ frame_needed = 0, uses_anonymous_args = 0
 2208              		@ link register save eliminated.
 712:u8g2_lib/u8g2_d_memory.c ****   #ifdef U8G2_USE_DYNAMIC_ALLOC
 713:u8g2_lib/u8g2_d_memory.c ****   *page_cnt = 2;
 714:u8g2_lib/u8g2_d_memory.c ****   return 0;
ARM GAS  C:\Users\GKQ\AppData\Local\Temp\ccTZzUR2.s 			page 50


 715:u8g2_lib/u8g2_d_memory.c ****   #else
 716:u8g2_lib/u8g2_d_memory.c ****   static uint8_t buf[384];
 2209              		.loc 1 716 3 view .LVU449
 717:u8g2_lib/u8g2_d_memory.c ****   *page_cnt = 2;
 2210              		.loc 1 717 3 view .LVU450
 2211              		.loc 1 717 13 is_stmt 0 view .LVU451
 2212 0000 0223     		movs	r3, #2
 2213 0002 0370     		strb	r3, [r0]
 718:u8g2_lib/u8g2_d_memory.c ****   return buf;
 2214              		.loc 1 718 3 is_stmt 1 view .LVU452
 719:u8g2_lib/u8g2_d_memory.c ****   #endif
 720:u8g2_lib/u8g2_d_memory.c **** }
 2215              		.loc 1 720 1 is_stmt 0 view .LVU453
 2216 0004 0048     		ldr	r0, .L194
 2217              	.LVL129:
 2218              		.loc 1 720 1 view .LVU454
 2219 0006 7047     		bx	lr
 2220              	.L195:
 2221              		.align	2
 2222              	.L194:
 2223 0008 00000000 		.word	.LANCHOR63
 2224              		.cfi_endproc
 2225              	.LFE64:
 2227              		.section	.text.u8g2_m_24_8_f,"ax",%progbits
 2228              		.align	1
 2229              		.global	u8g2_m_24_8_f
 2230              		.syntax unified
 2231              		.thumb
 2232              		.thumb_func
 2233              		.fpu softvfp
 2235              	u8g2_m_24_8_f:
 2236              	.LVL130:
 2237              	.LFB65:
 721:u8g2_lib/u8g2_d_memory.c **** uint8_t *u8g2_m_24_8_f(uint8_t *page_cnt)
 722:u8g2_lib/u8g2_d_memory.c **** {
 2238              		.loc 1 722 1 is_stmt 1 view -0
 2239              		.cfi_startproc
 2240              		@ args = 0, pretend = 0, frame = 0
 2241              		@ frame_needed = 0, uses_anonymous_args = 0
 2242              		@ link register save eliminated.
 723:u8g2_lib/u8g2_d_memory.c ****   #ifdef U8G2_USE_DYNAMIC_ALLOC
 724:u8g2_lib/u8g2_d_memory.c ****   *page_cnt = 8;
 725:u8g2_lib/u8g2_d_memory.c ****   return 0;
 726:u8g2_lib/u8g2_d_memory.c ****   #else
 727:u8g2_lib/u8g2_d_memory.c ****   static uint8_t buf[1536];
 2243              		.loc 1 727 3 view .LVU456
 728:u8g2_lib/u8g2_d_memory.c ****   *page_cnt = 8;
 2244              		.loc 1 728 3 view .LVU457
 2245              		.loc 1 728 13 is_stmt 0 view .LVU458
 2246 0000 0823     		movs	r3, #8
 2247 0002 0370     		strb	r3, [r0]
 729:u8g2_lib/u8g2_d_memory.c ****   return buf;
 2248              		.loc 1 729 3 is_stmt 1 view .LVU459
 730:u8g2_lib/u8g2_d_memory.c ****   #endif
 731:u8g2_lib/u8g2_d_memory.c **** }
 2249              		.loc 1 731 1 is_stmt 0 view .LVU460
 2250 0004 0048     		ldr	r0, .L197
ARM GAS  C:\Users\GKQ\AppData\Local\Temp\ccTZzUR2.s 			page 51


 2251              	.LVL131:
 2252              		.loc 1 731 1 view .LVU461
 2253 0006 7047     		bx	lr
 2254              	.L198:
 2255              		.align	2
 2256              	.L197:
 2257 0008 00000000 		.word	.LANCHOR64
 2258              		.cfi_endproc
 2259              	.LFE65:
 2261              		.section	.text.u8g2_m_30_8_1,"ax",%progbits
 2262              		.align	1
 2263              		.global	u8g2_m_30_8_1
 2264              		.syntax unified
 2265              		.thumb
 2266              		.thumb_func
 2267              		.fpu softvfp
 2269              	u8g2_m_30_8_1:
 2270              	.LVL132:
 2271              	.LFB66:
 732:u8g2_lib/u8g2_d_memory.c **** uint8_t *u8g2_m_30_8_1(uint8_t *page_cnt)
 733:u8g2_lib/u8g2_d_memory.c **** {
 2272              		.loc 1 733 1 is_stmt 1 view -0
 2273              		.cfi_startproc
 2274              		@ args = 0, pretend = 0, frame = 0
 2275              		@ frame_needed = 0, uses_anonymous_args = 0
 2276              		@ link register save eliminated.
 734:u8g2_lib/u8g2_d_memory.c ****   #ifdef U8G2_USE_DYNAMIC_ALLOC
 735:u8g2_lib/u8g2_d_memory.c ****   *page_cnt = 1;
 736:u8g2_lib/u8g2_d_memory.c ****   return 0;
 737:u8g2_lib/u8g2_d_memory.c ****   #else
 738:u8g2_lib/u8g2_d_memory.c ****   static uint8_t buf[240];
 2277              		.loc 1 738 3 view .LVU463
 739:u8g2_lib/u8g2_d_memory.c ****   *page_cnt = 1;
 2278              		.loc 1 739 3 view .LVU464
 2279              		.loc 1 739 13 is_stmt 0 view .LVU465
 2280 0000 0123     		movs	r3, #1
 2281 0002 0370     		strb	r3, [r0]
 740:u8g2_lib/u8g2_d_memory.c ****   return buf;
 2282              		.loc 1 740 3 is_stmt 1 view .LVU466
 741:u8g2_lib/u8g2_d_memory.c ****   #endif
 742:u8g2_lib/u8g2_d_memory.c **** }
 2283              		.loc 1 742 1 is_stmt 0 view .LVU467
 2284 0004 0048     		ldr	r0, .L200
 2285              	.LVL133:
 2286              		.loc 1 742 1 view .LVU468
 2287 0006 7047     		bx	lr
 2288              	.L201:
 2289              		.align	2
 2290              	.L200:
 2291 0008 00000000 		.word	.LANCHOR65
 2292              		.cfi_endproc
 2293              	.LFE66:
 2295              		.section	.text.u8g2_m_30_8_2,"ax",%progbits
 2296              		.align	1
 2297              		.global	u8g2_m_30_8_2
 2298              		.syntax unified
 2299              		.thumb
ARM GAS  C:\Users\GKQ\AppData\Local\Temp\ccTZzUR2.s 			page 52


 2300              		.thumb_func
 2301              		.fpu softvfp
 2303              	u8g2_m_30_8_2:
 2304              	.LVL134:
 2305              	.LFB67:
 743:u8g2_lib/u8g2_d_memory.c **** uint8_t *u8g2_m_30_8_2(uint8_t *page_cnt)
 744:u8g2_lib/u8g2_d_memory.c **** {
 2306              		.loc 1 744 1 is_stmt 1 view -0
 2307              		.cfi_startproc
 2308              		@ args = 0, pretend = 0, frame = 0
 2309              		@ frame_needed = 0, uses_anonymous_args = 0
 2310              		@ link register save eliminated.
 745:u8g2_lib/u8g2_d_memory.c ****   #ifdef U8G2_USE_DYNAMIC_ALLOC
 746:u8g2_lib/u8g2_d_memory.c ****   *page_cnt = 2;
 747:u8g2_lib/u8g2_d_memory.c ****   return 0;
 748:u8g2_lib/u8g2_d_memory.c ****   #else
 749:u8g2_lib/u8g2_d_memory.c ****   static uint8_t buf[480];
 2311              		.loc 1 749 3 view .LVU470
 750:u8g2_lib/u8g2_d_memory.c ****   *page_cnt = 2;
 2312              		.loc 1 750 3 view .LVU471
 2313              		.loc 1 750 13 is_stmt 0 view .LVU472
 2314 0000 0223     		movs	r3, #2
 2315 0002 0370     		strb	r3, [r0]
 751:u8g2_lib/u8g2_d_memory.c ****   return buf;
 2316              		.loc 1 751 3 is_stmt 1 view .LVU473
 752:u8g2_lib/u8g2_d_memory.c ****   #endif
 753:u8g2_lib/u8g2_d_memory.c **** }
 2317              		.loc 1 753 1 is_stmt 0 view .LVU474
 2318 0004 0048     		ldr	r0, .L203
 2319              	.LVL135:
 2320              		.loc 1 753 1 view .LVU475
 2321 0006 7047     		bx	lr
 2322              	.L204:
 2323              		.align	2
 2324              	.L203:
 2325 0008 00000000 		.word	.LANCHOR66
 2326              		.cfi_endproc
 2327              	.LFE67:
 2329              		.section	.text.u8g2_m_30_8_f,"ax",%progbits
 2330              		.align	1
 2331              		.global	u8g2_m_30_8_f
 2332              		.syntax unified
 2333              		.thumb
 2334              		.thumb_func
 2335              		.fpu softvfp
 2337              	u8g2_m_30_8_f:
 2338              	.LVL136:
 2339              	.LFB68:
 754:u8g2_lib/u8g2_d_memory.c **** uint8_t *u8g2_m_30_8_f(uint8_t *page_cnt)
 755:u8g2_lib/u8g2_d_memory.c **** {
 2340              		.loc 1 755 1 is_stmt 1 view -0
 2341              		.cfi_startproc
 2342              		@ args = 0, pretend = 0, frame = 0
 2343              		@ frame_needed = 0, uses_anonymous_args = 0
 2344              		@ link register save eliminated.
 756:u8g2_lib/u8g2_d_memory.c ****   #ifdef U8G2_USE_DYNAMIC_ALLOC
 757:u8g2_lib/u8g2_d_memory.c ****   *page_cnt = 8;
ARM GAS  C:\Users\GKQ\AppData\Local\Temp\ccTZzUR2.s 			page 53


 758:u8g2_lib/u8g2_d_memory.c ****   return 0;
 759:u8g2_lib/u8g2_d_memory.c ****   #else
 760:u8g2_lib/u8g2_d_memory.c ****   static uint8_t buf[1920];
 2345              		.loc 1 760 3 view .LVU477
 761:u8g2_lib/u8g2_d_memory.c ****   *page_cnt = 8;
 2346              		.loc 1 761 3 view .LVU478
 2347              		.loc 1 761 13 is_stmt 0 view .LVU479
 2348 0000 0823     		movs	r3, #8
 2349 0002 0370     		strb	r3, [r0]
 762:u8g2_lib/u8g2_d_memory.c ****   return buf;
 2350              		.loc 1 762 3 is_stmt 1 view .LVU480
 763:u8g2_lib/u8g2_d_memory.c ****   #endif
 764:u8g2_lib/u8g2_d_memory.c **** }
 2351              		.loc 1 764 1 is_stmt 0 view .LVU481
 2352 0004 0048     		ldr	r0, .L206
 2353              	.LVL137:
 2354              		.loc 1 764 1 view .LVU482
 2355 0006 7047     		bx	lr
 2356              	.L207:
 2357              		.align	2
 2358              	.L206:
 2359 0008 00000000 		.word	.LANCHOR67
 2360              		.cfi_endproc
 2361              	.LFE68:
 2363              		.section	.text.u8g2_m_30_15_1,"ax",%progbits
 2364              		.align	1
 2365              		.global	u8g2_m_30_15_1
 2366              		.syntax unified
 2367              		.thumb
 2368              		.thumb_func
 2369              		.fpu softvfp
 2371              	u8g2_m_30_15_1:
 2372              	.LVL138:
 2373              	.LFB69:
 765:u8g2_lib/u8g2_d_memory.c **** uint8_t *u8g2_m_30_15_1(uint8_t *page_cnt)
 766:u8g2_lib/u8g2_d_memory.c **** {
 2374              		.loc 1 766 1 is_stmt 1 view -0
 2375              		.cfi_startproc
 2376              		@ args = 0, pretend = 0, frame = 0
 2377              		@ frame_needed = 0, uses_anonymous_args = 0
 2378              		@ link register save eliminated.
 767:u8g2_lib/u8g2_d_memory.c ****   #ifdef U8G2_USE_DYNAMIC_ALLOC
 768:u8g2_lib/u8g2_d_memory.c ****   *page_cnt = 1;
 769:u8g2_lib/u8g2_d_memory.c ****   return 0;
 770:u8g2_lib/u8g2_d_memory.c ****   #else
 771:u8g2_lib/u8g2_d_memory.c ****   static uint8_t buf[240];
 2379              		.loc 1 771 3 view .LVU484
 772:u8g2_lib/u8g2_d_memory.c ****   *page_cnt = 1;
 2380              		.loc 1 772 3 view .LVU485
 2381              		.loc 1 772 13 is_stmt 0 view .LVU486
 2382 0000 0123     		movs	r3, #1
 2383 0002 0370     		strb	r3, [r0]
 773:u8g2_lib/u8g2_d_memory.c ****   return buf;
 2384              		.loc 1 773 3 is_stmt 1 view .LVU487
 774:u8g2_lib/u8g2_d_memory.c ****   #endif
 775:u8g2_lib/u8g2_d_memory.c **** }
 2385              		.loc 1 775 1 is_stmt 0 view .LVU488
ARM GAS  C:\Users\GKQ\AppData\Local\Temp\ccTZzUR2.s 			page 54


 2386 0004 0048     		ldr	r0, .L209
 2387              	.LVL139:
 2388              		.loc 1 775 1 view .LVU489
 2389 0006 7047     		bx	lr
 2390              	.L210:
 2391              		.align	2
 2392              	.L209:
 2393 0008 00000000 		.word	.LANCHOR68
 2394              		.cfi_endproc
 2395              	.LFE69:
 2397              		.section	.text.u8g2_m_30_15_2,"ax",%progbits
 2398              		.align	1
 2399              		.global	u8g2_m_30_15_2
 2400              		.syntax unified
 2401              		.thumb
 2402              		.thumb_func
 2403              		.fpu softvfp
 2405              	u8g2_m_30_15_2:
 2406              	.LVL140:
 2407              	.LFB70:
 776:u8g2_lib/u8g2_d_memory.c **** uint8_t *u8g2_m_30_15_2(uint8_t *page_cnt)
 777:u8g2_lib/u8g2_d_memory.c **** {
 2408              		.loc 1 777 1 is_stmt 1 view -0
 2409              		.cfi_startproc
 2410              		@ args = 0, pretend = 0, frame = 0
 2411              		@ frame_needed = 0, uses_anonymous_args = 0
 2412              		@ link register save eliminated.
 778:u8g2_lib/u8g2_d_memory.c ****   #ifdef U8G2_USE_DYNAMIC_ALLOC
 779:u8g2_lib/u8g2_d_memory.c ****   *page_cnt = 2;
 780:u8g2_lib/u8g2_d_memory.c ****   return 0;
 781:u8g2_lib/u8g2_d_memory.c ****   #else
 782:u8g2_lib/u8g2_d_memory.c ****   static uint8_t buf[480];
 2413              		.loc 1 782 3 view .LVU491
 783:u8g2_lib/u8g2_d_memory.c ****   *page_cnt = 2;
 2414              		.loc 1 783 3 view .LVU492
 2415              		.loc 1 783 13 is_stmt 0 view .LVU493
 2416 0000 0223     		movs	r3, #2
 2417 0002 0370     		strb	r3, [r0]
 784:u8g2_lib/u8g2_d_memory.c ****   return buf;
 2418              		.loc 1 784 3 is_stmt 1 view .LVU494
 785:u8g2_lib/u8g2_d_memory.c ****   #endif
 786:u8g2_lib/u8g2_d_memory.c **** }
 2419              		.loc 1 786 1 is_stmt 0 view .LVU495
 2420 0004 0048     		ldr	r0, .L212
 2421              	.LVL141:
 2422              		.loc 1 786 1 view .LVU496
 2423 0006 7047     		bx	lr
 2424              	.L213:
 2425              		.align	2
 2426              	.L212:
 2427 0008 00000000 		.word	.LANCHOR69
 2428              		.cfi_endproc
 2429              	.LFE70:
 2431              		.section	.text.u8g2_m_30_15_f,"ax",%progbits
 2432              		.align	1
 2433              		.global	u8g2_m_30_15_f
 2434              		.syntax unified
ARM GAS  C:\Users\GKQ\AppData\Local\Temp\ccTZzUR2.s 			page 55


 2435              		.thumb
 2436              		.thumb_func
 2437              		.fpu softvfp
 2439              	u8g2_m_30_15_f:
 2440              	.LVL142:
 2441              	.LFB71:
 787:u8g2_lib/u8g2_d_memory.c **** uint8_t *u8g2_m_30_15_f(uint8_t *page_cnt)
 788:u8g2_lib/u8g2_d_memory.c **** {
 2442              		.loc 1 788 1 is_stmt 1 view -0
 2443              		.cfi_startproc
 2444              		@ args = 0, pretend = 0, frame = 0
 2445              		@ frame_needed = 0, uses_anonymous_args = 0
 2446              		@ link register save eliminated.
 789:u8g2_lib/u8g2_d_memory.c ****   #ifdef U8G2_USE_DYNAMIC_ALLOC
 790:u8g2_lib/u8g2_d_memory.c ****   *page_cnt = 15;
 791:u8g2_lib/u8g2_d_memory.c ****   return 0;
 792:u8g2_lib/u8g2_d_memory.c ****   #else
 793:u8g2_lib/u8g2_d_memory.c ****   static uint8_t buf[3600];
 2447              		.loc 1 793 3 view .LVU498
 794:u8g2_lib/u8g2_d_memory.c ****   *page_cnt = 15;
 2448              		.loc 1 794 3 view .LVU499
 2449              		.loc 1 794 13 is_stmt 0 view .LVU500
 2450 0000 0F23     		movs	r3, #15
 2451 0002 0370     		strb	r3, [r0]
 795:u8g2_lib/u8g2_d_memory.c ****   return buf;
 2452              		.loc 1 795 3 is_stmt 1 view .LVU501
 796:u8g2_lib/u8g2_d_memory.c ****   #endif
 797:u8g2_lib/u8g2_d_memory.c **** }
 2453              		.loc 1 797 1 is_stmt 0 view .LVU502
 2454 0004 0048     		ldr	r0, .L215
 2455              	.LVL143:
 2456              		.loc 1 797 1 view .LVU503
 2457 0006 7047     		bx	lr
 2458              	.L216:
 2459              		.align	2
 2460              	.L215:
 2461 0008 00000000 		.word	.LANCHOR70
 2462              		.cfi_endproc
 2463              	.LFE71:
 2465              		.section	.text.u8g2_m_30_16_1,"ax",%progbits
 2466              		.align	1
 2467              		.global	u8g2_m_30_16_1
 2468              		.syntax unified
 2469              		.thumb
 2470              		.thumb_func
 2471              		.fpu softvfp
 2473              	u8g2_m_30_16_1:
 2474              	.LVL144:
 2475              	.LFB72:
 798:u8g2_lib/u8g2_d_memory.c **** uint8_t *u8g2_m_30_16_1(uint8_t *page_cnt)
 799:u8g2_lib/u8g2_d_memory.c **** {
 2476              		.loc 1 799 1 is_stmt 1 view -0
 2477              		.cfi_startproc
 2478              		@ args = 0, pretend = 0, frame = 0
 2479              		@ frame_needed = 0, uses_anonymous_args = 0
 2480              		@ link register save eliminated.
 800:u8g2_lib/u8g2_d_memory.c ****   #ifdef U8G2_USE_DYNAMIC_ALLOC
ARM GAS  C:\Users\GKQ\AppData\Local\Temp\ccTZzUR2.s 			page 56


 801:u8g2_lib/u8g2_d_memory.c ****   *page_cnt = 1;
 802:u8g2_lib/u8g2_d_memory.c ****   return 0;
 803:u8g2_lib/u8g2_d_memory.c ****   #else
 804:u8g2_lib/u8g2_d_memory.c ****   static uint8_t buf[240];
 2481              		.loc 1 804 3 view .LVU505
 805:u8g2_lib/u8g2_d_memory.c ****   *page_cnt = 1;
 2482              		.loc 1 805 3 view .LVU506
 2483              		.loc 1 805 13 is_stmt 0 view .LVU507
 2484 0000 0123     		movs	r3, #1
 2485 0002 0370     		strb	r3, [r0]
 806:u8g2_lib/u8g2_d_memory.c ****   return buf;
 2486              		.loc 1 806 3 is_stmt 1 view .LVU508
 807:u8g2_lib/u8g2_d_memory.c ****   #endif
 808:u8g2_lib/u8g2_d_memory.c **** }
 2487              		.loc 1 808 1 is_stmt 0 view .LVU509
 2488 0004 0048     		ldr	r0, .L218
 2489              	.LVL145:
 2490              		.loc 1 808 1 view .LVU510
 2491 0006 7047     		bx	lr
 2492              	.L219:
 2493              		.align	2
 2494              	.L218:
 2495 0008 00000000 		.word	.LANCHOR71
 2496              		.cfi_endproc
 2497              	.LFE72:
 2499              		.section	.text.u8g2_m_30_16_2,"ax",%progbits
 2500              		.align	1
 2501              		.global	u8g2_m_30_16_2
 2502              		.syntax unified
 2503              		.thumb
 2504              		.thumb_func
 2505              		.fpu softvfp
 2507              	u8g2_m_30_16_2:
 2508              	.LVL146:
 2509              	.LFB73:
 809:u8g2_lib/u8g2_d_memory.c **** uint8_t *u8g2_m_30_16_2(uint8_t *page_cnt)
 810:u8g2_lib/u8g2_d_memory.c **** {
 2510              		.loc 1 810 1 is_stmt 1 view -0
 2511              		.cfi_startproc
 2512              		@ args = 0, pretend = 0, frame = 0
 2513              		@ frame_needed = 0, uses_anonymous_args = 0
 2514              		@ link register save eliminated.
 811:u8g2_lib/u8g2_d_memory.c ****   #ifdef U8G2_USE_DYNAMIC_ALLOC
 812:u8g2_lib/u8g2_d_memory.c ****   *page_cnt = 2;
 813:u8g2_lib/u8g2_d_memory.c ****   return 0;
 814:u8g2_lib/u8g2_d_memory.c ****   #else
 815:u8g2_lib/u8g2_d_memory.c ****   static uint8_t buf[480];
 2515              		.loc 1 815 3 view .LVU512
 816:u8g2_lib/u8g2_d_memory.c ****   *page_cnt = 2;
 2516              		.loc 1 816 3 view .LVU513
 2517              		.loc 1 816 13 is_stmt 0 view .LVU514
 2518 0000 0223     		movs	r3, #2
 2519 0002 0370     		strb	r3, [r0]
 817:u8g2_lib/u8g2_d_memory.c ****   return buf;
 2520              		.loc 1 817 3 is_stmt 1 view .LVU515
 818:u8g2_lib/u8g2_d_memory.c ****   #endif
 819:u8g2_lib/u8g2_d_memory.c **** }
ARM GAS  C:\Users\GKQ\AppData\Local\Temp\ccTZzUR2.s 			page 57


 2521              		.loc 1 819 1 is_stmt 0 view .LVU516
 2522 0004 0048     		ldr	r0, .L221
 2523              	.LVL147:
 2524              		.loc 1 819 1 view .LVU517
 2525 0006 7047     		bx	lr
 2526              	.L222:
 2527              		.align	2
 2528              	.L221:
 2529 0008 00000000 		.word	.LANCHOR72
 2530              		.cfi_endproc
 2531              	.LFE73:
 2533              		.section	.text.u8g2_m_30_16_f,"ax",%progbits
 2534              		.align	1
 2535              		.global	u8g2_m_30_16_f
 2536              		.syntax unified
 2537              		.thumb
 2538              		.thumb_func
 2539              		.fpu softvfp
 2541              	u8g2_m_30_16_f:
 2542              	.LVL148:
 2543              	.LFB74:
 820:u8g2_lib/u8g2_d_memory.c **** uint8_t *u8g2_m_30_16_f(uint8_t *page_cnt)
 821:u8g2_lib/u8g2_d_memory.c **** {
 2544              		.loc 1 821 1 is_stmt 1 view -0
 2545              		.cfi_startproc
 2546              		@ args = 0, pretend = 0, frame = 0
 2547              		@ frame_needed = 0, uses_anonymous_args = 0
 2548              		@ link register save eliminated.
 822:u8g2_lib/u8g2_d_memory.c ****   #ifdef U8G2_USE_DYNAMIC_ALLOC
 823:u8g2_lib/u8g2_d_memory.c ****   *page_cnt = 16;
 824:u8g2_lib/u8g2_d_memory.c ****   return 0;
 825:u8g2_lib/u8g2_d_memory.c ****   #else
 826:u8g2_lib/u8g2_d_memory.c ****   static uint8_t buf[3840];
 2549              		.loc 1 826 3 view .LVU519
 827:u8g2_lib/u8g2_d_memory.c ****   *page_cnt = 16;
 2550              		.loc 1 827 3 view .LVU520
 2551              		.loc 1 827 13 is_stmt 0 view .LVU521
 2552 0000 1023     		movs	r3, #16
 2553 0002 0370     		strb	r3, [r0]
 828:u8g2_lib/u8g2_d_memory.c ****   return buf;
 2554              		.loc 1 828 3 is_stmt 1 view .LVU522
 829:u8g2_lib/u8g2_d_memory.c ****   #endif
 830:u8g2_lib/u8g2_d_memory.c **** }
 2555              		.loc 1 830 1 is_stmt 0 view .LVU523
 2556 0004 0048     		ldr	r0, .L224
 2557              	.LVL149:
 2558              		.loc 1 830 1 view .LVU524
 2559 0006 7047     		bx	lr
 2560              	.L225:
 2561              		.align	2
 2562              	.L224:
 2563 0008 00000000 		.word	.LANCHOR73
 2564              		.cfi_endproc
 2565              	.LFE74:
 2567              		.section	.text.u8g2_m_20_16_1,"ax",%progbits
 2568              		.align	1
 2569              		.global	u8g2_m_20_16_1
ARM GAS  C:\Users\GKQ\AppData\Local\Temp\ccTZzUR2.s 			page 58


 2570              		.syntax unified
 2571              		.thumb
 2572              		.thumb_func
 2573              		.fpu softvfp
 2575              	u8g2_m_20_16_1:
 2576              	.LVL150:
 2577              	.LFB75:
 831:u8g2_lib/u8g2_d_memory.c **** uint8_t *u8g2_m_20_16_1(uint8_t *page_cnt)
 832:u8g2_lib/u8g2_d_memory.c **** {
 2578              		.loc 1 832 1 is_stmt 1 view -0
 2579              		.cfi_startproc
 2580              		@ args = 0, pretend = 0, frame = 0
 2581              		@ frame_needed = 0, uses_anonymous_args = 0
 2582              		@ link register save eliminated.
 833:u8g2_lib/u8g2_d_memory.c ****   #ifdef U8G2_USE_DYNAMIC_ALLOC
 834:u8g2_lib/u8g2_d_memory.c ****   *page_cnt = 1;
 835:u8g2_lib/u8g2_d_memory.c ****   return 0;
 836:u8g2_lib/u8g2_d_memory.c ****   #else
 837:u8g2_lib/u8g2_d_memory.c ****   static uint8_t buf[160];
 2583              		.loc 1 837 3 view .LVU526
 838:u8g2_lib/u8g2_d_memory.c ****   *page_cnt = 1;
 2584              		.loc 1 838 3 view .LVU527
 2585              		.loc 1 838 13 is_stmt 0 view .LVU528
 2586 0000 0123     		movs	r3, #1
 2587 0002 0370     		strb	r3, [r0]
 839:u8g2_lib/u8g2_d_memory.c ****   return buf;
 2588              		.loc 1 839 3 is_stmt 1 view .LVU529
 840:u8g2_lib/u8g2_d_memory.c ****   #endif
 841:u8g2_lib/u8g2_d_memory.c **** }
 2589              		.loc 1 841 1 is_stmt 0 view .LVU530
 2590 0004 0048     		ldr	r0, .L227
 2591              	.LVL151:
 2592              		.loc 1 841 1 view .LVU531
 2593 0006 7047     		bx	lr
 2594              	.L228:
 2595              		.align	2
 2596              	.L227:
 2597 0008 00000000 		.word	.LANCHOR74
 2598              		.cfi_endproc
 2599              	.LFE75:
 2601              		.section	.text.u8g2_m_20_16_2,"ax",%progbits
 2602              		.align	1
 2603              		.global	u8g2_m_20_16_2
 2604              		.syntax unified
 2605              		.thumb
 2606              		.thumb_func
 2607              		.fpu softvfp
 2609              	u8g2_m_20_16_2:
 2610              	.LVL152:
 2611              	.LFB76:
 842:u8g2_lib/u8g2_d_memory.c **** uint8_t *u8g2_m_20_16_2(uint8_t *page_cnt)
 843:u8g2_lib/u8g2_d_memory.c **** {
 2612              		.loc 1 843 1 is_stmt 1 view -0
 2613              		.cfi_startproc
 2614              		@ args = 0, pretend = 0, frame = 0
 2615              		@ frame_needed = 0, uses_anonymous_args = 0
 2616              		@ link register save eliminated.
ARM GAS  C:\Users\GKQ\AppData\Local\Temp\ccTZzUR2.s 			page 59


 844:u8g2_lib/u8g2_d_memory.c ****   #ifdef U8G2_USE_DYNAMIC_ALLOC
 845:u8g2_lib/u8g2_d_memory.c ****   *page_cnt = 2;
 846:u8g2_lib/u8g2_d_memory.c ****   return 0;
 847:u8g2_lib/u8g2_d_memory.c ****   #else
 848:u8g2_lib/u8g2_d_memory.c ****   static uint8_t buf[320];
 2617              		.loc 1 848 3 view .LVU533
 849:u8g2_lib/u8g2_d_memory.c ****   *page_cnt = 2;
 2618              		.loc 1 849 3 view .LVU534
 2619              		.loc 1 849 13 is_stmt 0 view .LVU535
 2620 0000 0223     		movs	r3, #2
 2621 0002 0370     		strb	r3, [r0]
 850:u8g2_lib/u8g2_d_memory.c ****   return buf;
 2622              		.loc 1 850 3 is_stmt 1 view .LVU536
 851:u8g2_lib/u8g2_d_memory.c ****   #endif
 852:u8g2_lib/u8g2_d_memory.c **** }
 2623              		.loc 1 852 1 is_stmt 0 view .LVU537
 2624 0004 0048     		ldr	r0, .L230
 2625              	.LVL153:
 2626              		.loc 1 852 1 view .LVU538
 2627 0006 7047     		bx	lr
 2628              	.L231:
 2629              		.align	2
 2630              	.L230:
 2631 0008 00000000 		.word	.LANCHOR75
 2632              		.cfi_endproc
 2633              	.LFE76:
 2635              		.section	.text.u8g2_m_20_16_f,"ax",%progbits
 2636              		.align	1
 2637              		.global	u8g2_m_20_16_f
 2638              		.syntax unified
 2639              		.thumb
 2640              		.thumb_func
 2641              		.fpu softvfp
 2643              	u8g2_m_20_16_f:
 2644              	.LVL154:
 2645              	.LFB77:
 853:u8g2_lib/u8g2_d_memory.c **** uint8_t *u8g2_m_20_16_f(uint8_t *page_cnt)
 854:u8g2_lib/u8g2_d_memory.c **** {
 2646              		.loc 1 854 1 is_stmt 1 view -0
 2647              		.cfi_startproc
 2648              		@ args = 0, pretend = 0, frame = 0
 2649              		@ frame_needed = 0, uses_anonymous_args = 0
 2650              		@ link register save eliminated.
 855:u8g2_lib/u8g2_d_memory.c ****   #ifdef U8G2_USE_DYNAMIC_ALLOC
 856:u8g2_lib/u8g2_d_memory.c ****   *page_cnt = 16;
 857:u8g2_lib/u8g2_d_memory.c ****   return 0;
 858:u8g2_lib/u8g2_d_memory.c ****   #else
 859:u8g2_lib/u8g2_d_memory.c ****   static uint8_t buf[2560];
 2651              		.loc 1 859 3 view .LVU540
 860:u8g2_lib/u8g2_d_memory.c ****   *page_cnt = 16;
 2652              		.loc 1 860 3 view .LVU541
 2653              		.loc 1 860 13 is_stmt 0 view .LVU542
 2654 0000 1023     		movs	r3, #16
 2655 0002 0370     		strb	r3, [r0]
 861:u8g2_lib/u8g2_d_memory.c ****   return buf;
 2656              		.loc 1 861 3 is_stmt 1 view .LVU543
 862:u8g2_lib/u8g2_d_memory.c ****   #endif
ARM GAS  C:\Users\GKQ\AppData\Local\Temp\ccTZzUR2.s 			page 60


 863:u8g2_lib/u8g2_d_memory.c **** }
 2657              		.loc 1 863 1 is_stmt 0 view .LVU544
 2658 0004 0048     		ldr	r0, .L233
 2659              	.LVL155:
 2660              		.loc 1 863 1 view .LVU545
 2661 0006 7047     		bx	lr
 2662              	.L234:
 2663              		.align	2
 2664              	.L233:
 2665 0008 00000000 		.word	.LANCHOR76
 2666              		.cfi_endproc
 2667              	.LFE77:
 2669              		.section	.text.u8g2_m_20_13_1,"ax",%progbits
 2670              		.align	1
 2671              		.global	u8g2_m_20_13_1
 2672              		.syntax unified
 2673              		.thumb
 2674              		.thumb_func
 2675              		.fpu softvfp
 2677              	u8g2_m_20_13_1:
 2678              	.LVL156:
 2679              	.LFB78:
 864:u8g2_lib/u8g2_d_memory.c **** uint8_t *u8g2_m_20_13_1(uint8_t *page_cnt)
 865:u8g2_lib/u8g2_d_memory.c **** {
 2680              		.loc 1 865 1 is_stmt 1 view -0
 2681              		.cfi_startproc
 2682              		@ args = 0, pretend = 0, frame = 0
 2683              		@ frame_needed = 0, uses_anonymous_args = 0
 2684              		@ link register save eliminated.
 866:u8g2_lib/u8g2_d_memory.c ****   #ifdef U8G2_USE_DYNAMIC_ALLOC
 867:u8g2_lib/u8g2_d_memory.c ****   *page_cnt = 1;
 868:u8g2_lib/u8g2_d_memory.c ****   return 0;
 869:u8g2_lib/u8g2_d_memory.c ****   #else
 870:u8g2_lib/u8g2_d_memory.c ****   static uint8_t buf[160];
 2685              		.loc 1 870 3 view .LVU547
 871:u8g2_lib/u8g2_d_memory.c ****   *page_cnt = 1;
 2686              		.loc 1 871 3 view .LVU548
 2687              		.loc 1 871 13 is_stmt 0 view .LVU549
 2688 0000 0123     		movs	r3, #1
 2689 0002 0370     		strb	r3, [r0]
 872:u8g2_lib/u8g2_d_memory.c ****   return buf;
 2690              		.loc 1 872 3 is_stmt 1 view .LVU550
 873:u8g2_lib/u8g2_d_memory.c ****   #endif
 874:u8g2_lib/u8g2_d_memory.c **** }
 2691              		.loc 1 874 1 is_stmt 0 view .LVU551
 2692 0004 0048     		ldr	r0, .L236
 2693              	.LVL157:
 2694              		.loc 1 874 1 view .LVU552
 2695 0006 7047     		bx	lr
 2696              	.L237:
 2697              		.align	2
 2698              	.L236:
 2699 0008 00000000 		.word	.LANCHOR77
 2700              		.cfi_endproc
 2701              	.LFE78:
 2703              		.section	.text.u8g2_m_20_13_2,"ax",%progbits
 2704              		.align	1
ARM GAS  C:\Users\GKQ\AppData\Local\Temp\ccTZzUR2.s 			page 61


 2705              		.global	u8g2_m_20_13_2
 2706              		.syntax unified
 2707              		.thumb
 2708              		.thumb_func
 2709              		.fpu softvfp
 2711              	u8g2_m_20_13_2:
 2712              	.LVL158:
 2713              	.LFB79:
 875:u8g2_lib/u8g2_d_memory.c **** uint8_t *u8g2_m_20_13_2(uint8_t *page_cnt)
 876:u8g2_lib/u8g2_d_memory.c **** {
 2714              		.loc 1 876 1 is_stmt 1 view -0
 2715              		.cfi_startproc
 2716              		@ args = 0, pretend = 0, frame = 0
 2717              		@ frame_needed = 0, uses_anonymous_args = 0
 2718              		@ link register save eliminated.
 877:u8g2_lib/u8g2_d_memory.c ****   #ifdef U8G2_USE_DYNAMIC_ALLOC
 878:u8g2_lib/u8g2_d_memory.c ****   *page_cnt = 2;
 879:u8g2_lib/u8g2_d_memory.c ****   return 0;
 880:u8g2_lib/u8g2_d_memory.c ****   #else
 881:u8g2_lib/u8g2_d_memory.c ****   static uint8_t buf[320];
 2719              		.loc 1 881 3 view .LVU554
 882:u8g2_lib/u8g2_d_memory.c ****   *page_cnt = 2;
 2720              		.loc 1 882 3 view .LVU555
 2721              		.loc 1 882 13 is_stmt 0 view .LVU556
 2722 0000 0223     		movs	r3, #2
 2723 0002 0370     		strb	r3, [r0]
 883:u8g2_lib/u8g2_d_memory.c ****   return buf;
 2724              		.loc 1 883 3 is_stmt 1 view .LVU557
 884:u8g2_lib/u8g2_d_memory.c ****   #endif
 885:u8g2_lib/u8g2_d_memory.c **** }
 2725              		.loc 1 885 1 is_stmt 0 view .LVU558
 2726 0004 0048     		ldr	r0, .L239
 2727              	.LVL159:
 2728              		.loc 1 885 1 view .LVU559
 2729 0006 7047     		bx	lr
 2730              	.L240:
 2731              		.align	2
 2732              	.L239:
 2733 0008 00000000 		.word	.LANCHOR78
 2734              		.cfi_endproc
 2735              	.LFE79:
 2737              		.section	.text.u8g2_m_20_13_f,"ax",%progbits
 2738              		.align	1
 2739              		.global	u8g2_m_20_13_f
 2740              		.syntax unified
 2741              		.thumb
 2742              		.thumb_func
 2743              		.fpu softvfp
 2745              	u8g2_m_20_13_f:
 2746              	.LVL160:
 2747              	.LFB80:
 886:u8g2_lib/u8g2_d_memory.c **** uint8_t *u8g2_m_20_13_f(uint8_t *page_cnt)
 887:u8g2_lib/u8g2_d_memory.c **** {
 2748              		.loc 1 887 1 is_stmt 1 view -0
 2749              		.cfi_startproc
 2750              		@ args = 0, pretend = 0, frame = 0
 2751              		@ frame_needed = 0, uses_anonymous_args = 0
ARM GAS  C:\Users\GKQ\AppData\Local\Temp\ccTZzUR2.s 			page 62


 2752              		@ link register save eliminated.
 888:u8g2_lib/u8g2_d_memory.c ****   #ifdef U8G2_USE_DYNAMIC_ALLOC
 889:u8g2_lib/u8g2_d_memory.c ****   *page_cnt = 13;
 890:u8g2_lib/u8g2_d_memory.c ****   return 0;
 891:u8g2_lib/u8g2_d_memory.c ****   #else
 892:u8g2_lib/u8g2_d_memory.c ****   static uint8_t buf[2080];
 2753              		.loc 1 892 3 view .LVU561
 893:u8g2_lib/u8g2_d_memory.c ****   *page_cnt = 13;
 2754              		.loc 1 893 3 view .LVU562
 2755              		.loc 1 893 13 is_stmt 0 view .LVU563
 2756 0000 0D23     		movs	r3, #13
 2757 0002 0370     		strb	r3, [r0]
 894:u8g2_lib/u8g2_d_memory.c ****   return buf;
 2758              		.loc 1 894 3 is_stmt 1 view .LVU564
 895:u8g2_lib/u8g2_d_memory.c ****   #endif
 896:u8g2_lib/u8g2_d_memory.c **** }
 2759              		.loc 1 896 1 is_stmt 0 view .LVU565
 2760 0004 0048     		ldr	r0, .L242
 2761              	.LVL161:
 2762              		.loc 1 896 1 view .LVU566
 2763 0006 7047     		bx	lr
 2764              	.L243:
 2765              		.align	2
 2766              	.L242:
 2767 0008 00000000 		.word	.LANCHOR79
 2768              		.cfi_endproc
 2769              	.LFE80:
 2771              		.section	.text.u8g2_m_30_20_1,"ax",%progbits
 2772              		.align	1
 2773              		.global	u8g2_m_30_20_1
 2774              		.syntax unified
 2775              		.thumb
 2776              		.thumb_func
 2777              		.fpu softvfp
 2779              	u8g2_m_30_20_1:
 2780              	.LVL162:
 2781              	.LFB81:
 897:u8g2_lib/u8g2_d_memory.c **** uint8_t *u8g2_m_30_20_1(uint8_t *page_cnt)
 898:u8g2_lib/u8g2_d_memory.c **** {
 2782              		.loc 1 898 1 is_stmt 1 view -0
 2783              		.cfi_startproc
 2784              		@ args = 0, pretend = 0, frame = 0
 2785              		@ frame_needed = 0, uses_anonymous_args = 0
 2786              		@ link register save eliminated.
 899:u8g2_lib/u8g2_d_memory.c ****   #ifdef U8G2_USE_DYNAMIC_ALLOC
 900:u8g2_lib/u8g2_d_memory.c ****   *page_cnt = 1;
 901:u8g2_lib/u8g2_d_memory.c ****   return 0;
 902:u8g2_lib/u8g2_d_memory.c ****   #else
 903:u8g2_lib/u8g2_d_memory.c ****   static uint8_t buf[240];
 2787              		.loc 1 903 3 view .LVU568
 904:u8g2_lib/u8g2_d_memory.c ****   *page_cnt = 1;
 2788              		.loc 1 904 3 view .LVU569
 2789              		.loc 1 904 13 is_stmt 0 view .LVU570
 2790 0000 0123     		movs	r3, #1
 2791 0002 0370     		strb	r3, [r0]
 905:u8g2_lib/u8g2_d_memory.c ****   return buf;
 2792              		.loc 1 905 3 is_stmt 1 view .LVU571
ARM GAS  C:\Users\GKQ\AppData\Local\Temp\ccTZzUR2.s 			page 63


 906:u8g2_lib/u8g2_d_memory.c ****   #endif
 907:u8g2_lib/u8g2_d_memory.c **** }
 2793              		.loc 1 907 1 is_stmt 0 view .LVU572
 2794 0004 0048     		ldr	r0, .L245
 2795              	.LVL163:
 2796              		.loc 1 907 1 view .LVU573
 2797 0006 7047     		bx	lr
 2798              	.L246:
 2799              		.align	2
 2800              	.L245:
 2801 0008 00000000 		.word	.LANCHOR80
 2802              		.cfi_endproc
 2803              	.LFE81:
 2805              		.section	.text.u8g2_m_30_20_2,"ax",%progbits
 2806              		.align	1
 2807              		.global	u8g2_m_30_20_2
 2808              		.syntax unified
 2809              		.thumb
 2810              		.thumb_func
 2811              		.fpu softvfp
 2813              	u8g2_m_30_20_2:
 2814              	.LVL164:
 2815              	.LFB82:
 908:u8g2_lib/u8g2_d_memory.c **** uint8_t *u8g2_m_30_20_2(uint8_t *page_cnt)
 909:u8g2_lib/u8g2_d_memory.c **** {
 2816              		.loc 1 909 1 is_stmt 1 view -0
 2817              		.cfi_startproc
 2818              		@ args = 0, pretend = 0, frame = 0
 2819              		@ frame_needed = 0, uses_anonymous_args = 0
 2820              		@ link register save eliminated.
 910:u8g2_lib/u8g2_d_memory.c ****   #ifdef U8G2_USE_DYNAMIC_ALLOC
 911:u8g2_lib/u8g2_d_memory.c ****   *page_cnt = 2;
 912:u8g2_lib/u8g2_d_memory.c ****   return 0;
 913:u8g2_lib/u8g2_d_memory.c ****   #else
 914:u8g2_lib/u8g2_d_memory.c ****   static uint8_t buf[480];
 2821              		.loc 1 914 3 view .LVU575
 915:u8g2_lib/u8g2_d_memory.c ****   *page_cnt = 2;
 2822              		.loc 1 915 3 view .LVU576
 2823              		.loc 1 915 13 is_stmt 0 view .LVU577
 2824 0000 0223     		movs	r3, #2
 2825 0002 0370     		strb	r3, [r0]
 916:u8g2_lib/u8g2_d_memory.c ****   return buf;
 2826              		.loc 1 916 3 is_stmt 1 view .LVU578
 917:u8g2_lib/u8g2_d_memory.c ****   #endif
 918:u8g2_lib/u8g2_d_memory.c **** }
 2827              		.loc 1 918 1 is_stmt 0 view .LVU579
 2828 0004 0048     		ldr	r0, .L248
 2829              	.LVL165:
 2830              		.loc 1 918 1 view .LVU580
 2831 0006 7047     		bx	lr
 2832              	.L249:
 2833              		.align	2
 2834              	.L248:
 2835 0008 00000000 		.word	.LANCHOR81
 2836              		.cfi_endproc
 2837              	.LFE82:
 2839              		.section	.text.u8g2_m_30_20_f,"ax",%progbits
ARM GAS  C:\Users\GKQ\AppData\Local\Temp\ccTZzUR2.s 			page 64


 2840              		.align	1
 2841              		.global	u8g2_m_30_20_f
 2842              		.syntax unified
 2843              		.thumb
 2844              		.thumb_func
 2845              		.fpu softvfp
 2847              	u8g2_m_30_20_f:
 2848              	.LVL166:
 2849              	.LFB83:
 919:u8g2_lib/u8g2_d_memory.c **** uint8_t *u8g2_m_30_20_f(uint8_t *page_cnt)
 920:u8g2_lib/u8g2_d_memory.c **** {
 2850              		.loc 1 920 1 is_stmt 1 view -0
 2851              		.cfi_startproc
 2852              		@ args = 0, pretend = 0, frame = 0
 2853              		@ frame_needed = 0, uses_anonymous_args = 0
 2854              		@ link register save eliminated.
 921:u8g2_lib/u8g2_d_memory.c ****   #ifdef U8G2_USE_DYNAMIC_ALLOC
 922:u8g2_lib/u8g2_d_memory.c ****   *page_cnt = 20;
 923:u8g2_lib/u8g2_d_memory.c ****   return 0;
 924:u8g2_lib/u8g2_d_memory.c ****   #else
 925:u8g2_lib/u8g2_d_memory.c ****   static uint8_t buf[4800];
 2855              		.loc 1 925 3 view .LVU582
 926:u8g2_lib/u8g2_d_memory.c ****   *page_cnt = 20;
 2856              		.loc 1 926 3 view .LVU583
 2857              		.loc 1 926 13 is_stmt 0 view .LVU584
 2858 0000 1423     		movs	r3, #20
 2859 0002 0370     		strb	r3, [r0]
 927:u8g2_lib/u8g2_d_memory.c ****   return buf;
 2860              		.loc 1 927 3 is_stmt 1 view .LVU585
 928:u8g2_lib/u8g2_d_memory.c ****   #endif
 929:u8g2_lib/u8g2_d_memory.c **** }
 2861              		.loc 1 929 1 is_stmt 0 view .LVU586
 2862 0004 0048     		ldr	r0, .L251
 2863              	.LVL167:
 2864              		.loc 1 929 1 view .LVU587
 2865 0006 7047     		bx	lr
 2866              	.L252:
 2867              		.align	2
 2868              	.L251:
 2869 0008 00000000 		.word	buf.11353
 2870              		.cfi_endproc
 2871              	.LFE83:
 2873              		.section	.text.u8g2_m_40_30_1,"ax",%progbits
 2874              		.align	1
 2875              		.global	u8g2_m_40_30_1
 2876              		.syntax unified
 2877              		.thumb
 2878              		.thumb_func
 2879              		.fpu softvfp
 2881              	u8g2_m_40_30_1:
 2882              	.LVL168:
 2883              	.LFB84:
 930:u8g2_lib/u8g2_d_memory.c **** uint8_t *u8g2_m_40_30_1(uint8_t *page_cnt)
 931:u8g2_lib/u8g2_d_memory.c **** {
 2884              		.loc 1 931 1 is_stmt 1 view -0
 2885              		.cfi_startproc
 2886              		@ args = 0, pretend = 0, frame = 0
ARM GAS  C:\Users\GKQ\AppData\Local\Temp\ccTZzUR2.s 			page 65


 2887              		@ frame_needed = 0, uses_anonymous_args = 0
 2888              		@ link register save eliminated.
 932:u8g2_lib/u8g2_d_memory.c ****   #ifdef U8G2_USE_DYNAMIC_ALLOC
 933:u8g2_lib/u8g2_d_memory.c ****   *page_cnt = 1;
 934:u8g2_lib/u8g2_d_memory.c ****   return 0;
 935:u8g2_lib/u8g2_d_memory.c ****   #else
 936:u8g2_lib/u8g2_d_memory.c ****   static uint8_t buf[320];
 2889              		.loc 1 936 3 view .LVU589
 937:u8g2_lib/u8g2_d_memory.c ****   *page_cnt = 1;
 2890              		.loc 1 937 3 view .LVU590
 2891              		.loc 1 937 13 is_stmt 0 view .LVU591
 2892 0000 0123     		movs	r3, #1
 2893 0002 0370     		strb	r3, [r0]
 938:u8g2_lib/u8g2_d_memory.c ****   return buf;
 2894              		.loc 1 938 3 is_stmt 1 view .LVU592
 939:u8g2_lib/u8g2_d_memory.c ****   #endif
 940:u8g2_lib/u8g2_d_memory.c **** }
 2895              		.loc 1 940 1 is_stmt 0 view .LVU593
 2896 0004 0048     		ldr	r0, .L254
 2897              	.LVL169:
 2898              		.loc 1 940 1 view .LVU594
 2899 0006 7047     		bx	lr
 2900              	.L255:
 2901              		.align	2
 2902              	.L254:
 2903 0008 00000000 		.word	.LANCHOR82
 2904              		.cfi_endproc
 2905              	.LFE84:
 2907              		.section	.text.u8g2_m_40_30_2,"ax",%progbits
 2908              		.align	1
 2909              		.global	u8g2_m_40_30_2
 2910              		.syntax unified
 2911              		.thumb
 2912              		.thumb_func
 2913              		.fpu softvfp
 2915              	u8g2_m_40_30_2:
 2916              	.LVL170:
 2917              	.LFB85:
 941:u8g2_lib/u8g2_d_memory.c **** uint8_t *u8g2_m_40_30_2(uint8_t *page_cnt)
 942:u8g2_lib/u8g2_d_memory.c **** {
 2918              		.loc 1 942 1 is_stmt 1 view -0
 2919              		.cfi_startproc
 2920              		@ args = 0, pretend = 0, frame = 0
 2921              		@ frame_needed = 0, uses_anonymous_args = 0
 2922              		@ link register save eliminated.
 943:u8g2_lib/u8g2_d_memory.c ****   #ifdef U8G2_USE_DYNAMIC_ALLOC
 944:u8g2_lib/u8g2_d_memory.c ****   *page_cnt = 2;
 945:u8g2_lib/u8g2_d_memory.c ****   return 0;
 946:u8g2_lib/u8g2_d_memory.c ****   #else
 947:u8g2_lib/u8g2_d_memory.c ****   static uint8_t buf[640];
 2923              		.loc 1 947 3 view .LVU596
 948:u8g2_lib/u8g2_d_memory.c ****   *page_cnt = 2;
 2924              		.loc 1 948 3 view .LVU597
 2925              		.loc 1 948 13 is_stmt 0 view .LVU598
 2926 0000 0223     		movs	r3, #2
 2927 0002 0370     		strb	r3, [r0]
 949:u8g2_lib/u8g2_d_memory.c ****   return buf;
ARM GAS  C:\Users\GKQ\AppData\Local\Temp\ccTZzUR2.s 			page 66


 2928              		.loc 1 949 3 is_stmt 1 view .LVU599
 950:u8g2_lib/u8g2_d_memory.c ****   #endif
 951:u8g2_lib/u8g2_d_memory.c **** }
 2929              		.loc 1 951 1 is_stmt 0 view .LVU600
 2930 0004 0048     		ldr	r0, .L257
 2931              	.LVL171:
 2932              		.loc 1 951 1 view .LVU601
 2933 0006 7047     		bx	lr
 2934              	.L258:
 2935              		.align	2
 2936              	.L257:
 2937 0008 00000000 		.word	.LANCHOR83
 2938              		.cfi_endproc
 2939              	.LFE85:
 2941              		.section	.text.u8g2_m_40_30_f,"ax",%progbits
 2942              		.align	1
 2943              		.global	u8g2_m_40_30_f
 2944              		.syntax unified
 2945              		.thumb
 2946              		.thumb_func
 2947              		.fpu softvfp
 2949              	u8g2_m_40_30_f:
 2950              	.LVL172:
 2951              	.LFB86:
 952:u8g2_lib/u8g2_d_memory.c **** uint8_t *u8g2_m_40_30_f(uint8_t *page_cnt)
 953:u8g2_lib/u8g2_d_memory.c **** {
 2952              		.loc 1 953 1 is_stmt 1 view -0
 2953              		.cfi_startproc
 2954              		@ args = 0, pretend = 0, frame = 0
 2955              		@ frame_needed = 0, uses_anonymous_args = 0
 2956              		@ link register save eliminated.
 954:u8g2_lib/u8g2_d_memory.c ****   #ifdef U8G2_USE_DYNAMIC_ALLOC
 955:u8g2_lib/u8g2_d_memory.c ****   *page_cnt = 30;
 956:u8g2_lib/u8g2_d_memory.c ****   return 0;
 957:u8g2_lib/u8g2_d_memory.c ****   #else
 958:u8g2_lib/u8g2_d_memory.c ****   static uint8_t buf[9600];
 2957              		.loc 1 958 3 view .LVU603
 959:u8g2_lib/u8g2_d_memory.c ****   *page_cnt = 30;
 2958              		.loc 1 959 3 view .LVU604
 2959              		.loc 1 959 13 is_stmt 0 view .LVU605
 2960 0000 1E23     		movs	r3, #30
 2961 0002 0370     		strb	r3, [r0]
 960:u8g2_lib/u8g2_d_memory.c ****   return buf;
 2962              		.loc 1 960 3 is_stmt 1 view .LVU606
 961:u8g2_lib/u8g2_d_memory.c ****   #endif
 962:u8g2_lib/u8g2_d_memory.c **** }
 2963              		.loc 1 962 1 is_stmt 0 view .LVU607
 2964 0004 0048     		ldr	r0, .L260
 2965              	.LVL173:
 2966              		.loc 1 962 1 view .LVU608
 2967 0006 7047     		bx	lr
 2968              	.L261:
 2969              		.align	2
 2970              	.L260:
 2971 0008 00000000 		.word	buf.11365
 2972              		.cfi_endproc
 2973              	.LFE86:
ARM GAS  C:\Users\GKQ\AppData\Local\Temp\ccTZzUR2.s 			page 67


 2975              		.section	.text.u8g2_m_17_4_1,"ax",%progbits
 2976              		.align	1
 2977              		.global	u8g2_m_17_4_1
 2978              		.syntax unified
 2979              		.thumb
 2980              		.thumb_func
 2981              		.fpu softvfp
 2983              	u8g2_m_17_4_1:
 2984              	.LVL174:
 2985              	.LFB87:
 963:u8g2_lib/u8g2_d_memory.c **** uint8_t *u8g2_m_17_4_1(uint8_t *page_cnt)
 964:u8g2_lib/u8g2_d_memory.c **** {
 2986              		.loc 1 964 1 is_stmt 1 view -0
 2987              		.cfi_startproc
 2988              		@ args = 0, pretend = 0, frame = 0
 2989              		@ frame_needed = 0, uses_anonymous_args = 0
 2990              		@ link register save eliminated.
 965:u8g2_lib/u8g2_d_memory.c ****   #ifdef U8G2_USE_DYNAMIC_ALLOC
 966:u8g2_lib/u8g2_d_memory.c ****   *page_cnt = 1;
 967:u8g2_lib/u8g2_d_memory.c ****   return 0;
 968:u8g2_lib/u8g2_d_memory.c ****   #else
 969:u8g2_lib/u8g2_d_memory.c ****   static uint8_t buf[136];
 2991              		.loc 1 969 3 view .LVU610
 970:u8g2_lib/u8g2_d_memory.c ****   *page_cnt = 1;
 2992              		.loc 1 970 3 view .LVU611
 2993              		.loc 1 970 13 is_stmt 0 view .LVU612
 2994 0000 0123     		movs	r3, #1
 2995 0002 0370     		strb	r3, [r0]
 971:u8g2_lib/u8g2_d_memory.c ****   return buf;
 2996              		.loc 1 971 3 is_stmt 1 view .LVU613
 972:u8g2_lib/u8g2_d_memory.c ****   #endif
 973:u8g2_lib/u8g2_d_memory.c **** }
 2997              		.loc 1 973 1 is_stmt 0 view .LVU614
 2998 0004 0048     		ldr	r0, .L263
 2999              	.LVL175:
 3000              		.loc 1 973 1 view .LVU615
 3001 0006 7047     		bx	lr
 3002              	.L264:
 3003              		.align	2
 3004              	.L263:
 3005 0008 00000000 		.word	.LANCHOR84
 3006              		.cfi_endproc
 3007              	.LFE87:
 3009              		.section	.text.u8g2_m_17_4_2,"ax",%progbits
 3010              		.align	1
 3011              		.global	u8g2_m_17_4_2
 3012              		.syntax unified
 3013              		.thumb
 3014              		.thumb_func
 3015              		.fpu softvfp
 3017              	u8g2_m_17_4_2:
 3018              	.LVL176:
 3019              	.LFB88:
 974:u8g2_lib/u8g2_d_memory.c **** uint8_t *u8g2_m_17_4_2(uint8_t *page_cnt)
 975:u8g2_lib/u8g2_d_memory.c **** {
 3020              		.loc 1 975 1 is_stmt 1 view -0
 3021              		.cfi_startproc
ARM GAS  C:\Users\GKQ\AppData\Local\Temp\ccTZzUR2.s 			page 68


 3022              		@ args = 0, pretend = 0, frame = 0
 3023              		@ frame_needed = 0, uses_anonymous_args = 0
 3024              		@ link register save eliminated.
 976:u8g2_lib/u8g2_d_memory.c ****   #ifdef U8G2_USE_DYNAMIC_ALLOC
 977:u8g2_lib/u8g2_d_memory.c ****   *page_cnt = 2;
 978:u8g2_lib/u8g2_d_memory.c ****   return 0;
 979:u8g2_lib/u8g2_d_memory.c ****   #else
 980:u8g2_lib/u8g2_d_memory.c ****   static uint8_t buf[272];
 3025              		.loc 1 980 3 view .LVU617
 981:u8g2_lib/u8g2_d_memory.c ****   *page_cnt = 2;
 3026              		.loc 1 981 3 view .LVU618
 3027              		.loc 1 981 13 is_stmt 0 view .LVU619
 3028 0000 0223     		movs	r3, #2
 3029 0002 0370     		strb	r3, [r0]
 982:u8g2_lib/u8g2_d_memory.c ****   return buf;
 3030              		.loc 1 982 3 is_stmt 1 view .LVU620
 983:u8g2_lib/u8g2_d_memory.c ****   #endif
 984:u8g2_lib/u8g2_d_memory.c **** }
 3031              		.loc 1 984 1 is_stmt 0 view .LVU621
 3032 0004 0048     		ldr	r0, .L266
 3033              	.LVL177:
 3034              		.loc 1 984 1 view .LVU622
 3035 0006 7047     		bx	lr
 3036              	.L267:
 3037              		.align	2
 3038              	.L266:
 3039 0008 00000000 		.word	.LANCHOR85
 3040              		.cfi_endproc
 3041              	.LFE88:
 3043              		.section	.text.u8g2_m_17_4_f,"ax",%progbits
 3044              		.align	1
 3045              		.global	u8g2_m_17_4_f
 3046              		.syntax unified
 3047              		.thumb
 3048              		.thumb_func
 3049              		.fpu softvfp
 3051              	u8g2_m_17_4_f:
 3052              	.LVL178:
 3053              	.LFB89:
 985:u8g2_lib/u8g2_d_memory.c **** uint8_t *u8g2_m_17_4_f(uint8_t *page_cnt)
 986:u8g2_lib/u8g2_d_memory.c **** {
 3054              		.loc 1 986 1 is_stmt 1 view -0
 3055              		.cfi_startproc
 3056              		@ args = 0, pretend = 0, frame = 0
 3057              		@ frame_needed = 0, uses_anonymous_args = 0
 3058              		@ link register save eliminated.
 987:u8g2_lib/u8g2_d_memory.c ****   #ifdef U8G2_USE_DYNAMIC_ALLOC
 988:u8g2_lib/u8g2_d_memory.c ****   *page_cnt = 4;
 989:u8g2_lib/u8g2_d_memory.c ****   return 0;
 990:u8g2_lib/u8g2_d_memory.c ****   #else
 991:u8g2_lib/u8g2_d_memory.c ****   static uint8_t buf[544];
 3059              		.loc 1 991 3 view .LVU624
 992:u8g2_lib/u8g2_d_memory.c ****   *page_cnt = 4;
 3060              		.loc 1 992 3 view .LVU625
 3061              		.loc 1 992 13 is_stmt 0 view .LVU626
 3062 0000 0423     		movs	r3, #4
 3063 0002 0370     		strb	r3, [r0]
ARM GAS  C:\Users\GKQ\AppData\Local\Temp\ccTZzUR2.s 			page 69


 993:u8g2_lib/u8g2_d_memory.c ****   return buf;
 3064              		.loc 1 993 3 is_stmt 1 view .LVU627
 994:u8g2_lib/u8g2_d_memory.c ****   #endif
 995:u8g2_lib/u8g2_d_memory.c **** }
 3065              		.loc 1 995 1 is_stmt 0 view .LVU628
 3066 0004 0048     		ldr	r0, .L269
 3067              	.LVL179:
 3068              		.loc 1 995 1 view .LVU629
 3069 0006 7047     		bx	lr
 3070              	.L270:
 3071              		.align	2
 3072              	.L269:
 3073 0008 00000000 		.word	.LANCHOR86
 3074              		.cfi_endproc
 3075              	.LFE89:
 3077              		.section	.text.u8g2_m_17_8_1,"ax",%progbits
 3078              		.align	1
 3079              		.global	u8g2_m_17_8_1
 3080              		.syntax unified
 3081              		.thumb
 3082              		.thumb_func
 3083              		.fpu softvfp
 3085              	u8g2_m_17_8_1:
 3086              	.LVL180:
 3087              	.LFB90:
 996:u8g2_lib/u8g2_d_memory.c **** uint8_t *u8g2_m_17_8_1(uint8_t *page_cnt)
 997:u8g2_lib/u8g2_d_memory.c **** {
 3088              		.loc 1 997 1 is_stmt 1 view -0
 3089              		.cfi_startproc
 3090              		@ args = 0, pretend = 0, frame = 0
 3091              		@ frame_needed = 0, uses_anonymous_args = 0
 3092              		@ link register save eliminated.
 998:u8g2_lib/u8g2_d_memory.c ****   #ifdef U8G2_USE_DYNAMIC_ALLOC
 999:u8g2_lib/u8g2_d_memory.c ****   *page_cnt = 1;
1000:u8g2_lib/u8g2_d_memory.c ****   return 0;
1001:u8g2_lib/u8g2_d_memory.c ****   #else
1002:u8g2_lib/u8g2_d_memory.c ****   static uint8_t buf[136];
 3093              		.loc 1 1002 3 view .LVU631
1003:u8g2_lib/u8g2_d_memory.c ****   *page_cnt = 1;
 3094              		.loc 1 1003 3 view .LVU632
 3095              		.loc 1 1003 13 is_stmt 0 view .LVU633
 3096 0000 0123     		movs	r3, #1
 3097 0002 0370     		strb	r3, [r0]
1004:u8g2_lib/u8g2_d_memory.c ****   return buf;
 3098              		.loc 1 1004 3 is_stmt 1 view .LVU634
1005:u8g2_lib/u8g2_d_memory.c ****   #endif
1006:u8g2_lib/u8g2_d_memory.c **** }
 3099              		.loc 1 1006 1 is_stmt 0 view .LVU635
 3100 0004 0048     		ldr	r0, .L272
 3101              	.LVL181:
 3102              		.loc 1 1006 1 view .LVU636
 3103 0006 7047     		bx	lr
 3104              	.L273:
 3105              		.align	2
 3106              	.L272:
 3107 0008 00000000 		.word	.LANCHOR87
 3108              		.cfi_endproc
ARM GAS  C:\Users\GKQ\AppData\Local\Temp\ccTZzUR2.s 			page 70


 3109              	.LFE90:
 3111              		.section	.text.u8g2_m_17_8_2,"ax",%progbits
 3112              		.align	1
 3113              		.global	u8g2_m_17_8_2
 3114              		.syntax unified
 3115              		.thumb
 3116              		.thumb_func
 3117              		.fpu softvfp
 3119              	u8g2_m_17_8_2:
 3120              	.LVL182:
 3121              	.LFB91:
1007:u8g2_lib/u8g2_d_memory.c **** uint8_t *u8g2_m_17_8_2(uint8_t *page_cnt)
1008:u8g2_lib/u8g2_d_memory.c **** {
 3122              		.loc 1 1008 1 is_stmt 1 view -0
 3123              		.cfi_startproc
 3124              		@ args = 0, pretend = 0, frame = 0
 3125              		@ frame_needed = 0, uses_anonymous_args = 0
 3126              		@ link register save eliminated.
1009:u8g2_lib/u8g2_d_memory.c ****   #ifdef U8G2_USE_DYNAMIC_ALLOC
1010:u8g2_lib/u8g2_d_memory.c ****   *page_cnt = 2;
1011:u8g2_lib/u8g2_d_memory.c ****   return 0;
1012:u8g2_lib/u8g2_d_memory.c ****   #else
1013:u8g2_lib/u8g2_d_memory.c ****   static uint8_t buf[272];
 3127              		.loc 1 1013 3 view .LVU638
1014:u8g2_lib/u8g2_d_memory.c ****   *page_cnt = 2;
 3128              		.loc 1 1014 3 view .LVU639
 3129              		.loc 1 1014 13 is_stmt 0 view .LVU640
 3130 0000 0223     		movs	r3, #2
 3131 0002 0370     		strb	r3, [r0]
1015:u8g2_lib/u8g2_d_memory.c ****   return buf;
 3132              		.loc 1 1015 3 is_stmt 1 view .LVU641
1016:u8g2_lib/u8g2_d_memory.c ****   #endif
1017:u8g2_lib/u8g2_d_memory.c **** }
 3133              		.loc 1 1017 1 is_stmt 0 view .LVU642
 3134 0004 0048     		ldr	r0, .L275
 3135              	.LVL183:
 3136              		.loc 1 1017 1 view .LVU643
 3137 0006 7047     		bx	lr
 3138              	.L276:
 3139              		.align	2
 3140              	.L275:
 3141 0008 00000000 		.word	.LANCHOR88
 3142              		.cfi_endproc
 3143              	.LFE91:
 3145              		.section	.text.u8g2_m_17_8_f,"ax",%progbits
 3146              		.align	1
 3147              		.global	u8g2_m_17_8_f
 3148              		.syntax unified
 3149              		.thumb
 3150              		.thumb_func
 3151              		.fpu softvfp
 3153              	u8g2_m_17_8_f:
 3154              	.LVL184:
 3155              	.LFB92:
1018:u8g2_lib/u8g2_d_memory.c **** uint8_t *u8g2_m_17_8_f(uint8_t *page_cnt)
1019:u8g2_lib/u8g2_d_memory.c **** {
 3156              		.loc 1 1019 1 is_stmt 1 view -0
ARM GAS  C:\Users\GKQ\AppData\Local\Temp\ccTZzUR2.s 			page 71


 3157              		.cfi_startproc
 3158              		@ args = 0, pretend = 0, frame = 0
 3159              		@ frame_needed = 0, uses_anonymous_args = 0
 3160              		@ link register save eliminated.
1020:u8g2_lib/u8g2_d_memory.c ****   #ifdef U8G2_USE_DYNAMIC_ALLOC
1021:u8g2_lib/u8g2_d_memory.c ****   *page_cnt = 8;
1022:u8g2_lib/u8g2_d_memory.c ****   return 0;
1023:u8g2_lib/u8g2_d_memory.c ****   #else
1024:u8g2_lib/u8g2_d_memory.c ****   static uint8_t buf[1088];
 3161              		.loc 1 1024 3 view .LVU645
1025:u8g2_lib/u8g2_d_memory.c ****   *page_cnt = 8;
 3162              		.loc 1 1025 3 view .LVU646
 3163              		.loc 1 1025 13 is_stmt 0 view .LVU647
 3164 0000 0823     		movs	r3, #8
 3165 0002 0370     		strb	r3, [r0]
1026:u8g2_lib/u8g2_d_memory.c ****   return buf;
 3166              		.loc 1 1026 3 is_stmt 1 view .LVU648
1027:u8g2_lib/u8g2_d_memory.c ****   #endif
1028:u8g2_lib/u8g2_d_memory.c **** }
 3167              		.loc 1 1028 1 is_stmt 0 view .LVU649
 3168 0004 0048     		ldr	r0, .L278
 3169              	.LVL185:
 3170              		.loc 1 1028 1 view .LVU650
 3171 0006 7047     		bx	lr
 3172              	.L279:
 3173              		.align	2
 3174              	.L278:
 3175 0008 00000000 		.word	.LANCHOR89
 3176              		.cfi_endproc
 3177              	.LFE92:
 3179              		.section	.text.u8g2_m_48_17_1,"ax",%progbits
 3180              		.align	1
 3181              		.global	u8g2_m_48_17_1
 3182              		.syntax unified
 3183              		.thumb
 3184              		.thumb_func
 3185              		.fpu softvfp
 3187              	u8g2_m_48_17_1:
 3188              	.LVL186:
 3189              	.LFB93:
1029:u8g2_lib/u8g2_d_memory.c **** uint8_t *u8g2_m_48_17_1(uint8_t *page_cnt)
1030:u8g2_lib/u8g2_d_memory.c **** {
 3190              		.loc 1 1030 1 is_stmt 1 view -0
 3191              		.cfi_startproc
 3192              		@ args = 0, pretend = 0, frame = 0
 3193              		@ frame_needed = 0, uses_anonymous_args = 0
 3194              		@ link register save eliminated.
1031:u8g2_lib/u8g2_d_memory.c ****   #ifdef U8G2_USE_DYNAMIC_ALLOC
1032:u8g2_lib/u8g2_d_memory.c ****   *page_cnt = 1;
1033:u8g2_lib/u8g2_d_memory.c ****   return 0;
1034:u8g2_lib/u8g2_d_memory.c ****   #else
1035:u8g2_lib/u8g2_d_memory.c ****   static uint8_t buf[384];
 3195              		.loc 1 1035 3 view .LVU652
1036:u8g2_lib/u8g2_d_memory.c ****   *page_cnt = 1;
 3196              		.loc 1 1036 3 view .LVU653
 3197              		.loc 1 1036 13 is_stmt 0 view .LVU654
 3198 0000 0123     		movs	r3, #1
ARM GAS  C:\Users\GKQ\AppData\Local\Temp\ccTZzUR2.s 			page 72


 3199 0002 0370     		strb	r3, [r0]
1037:u8g2_lib/u8g2_d_memory.c ****   return buf;
 3200              		.loc 1 1037 3 is_stmt 1 view .LVU655
1038:u8g2_lib/u8g2_d_memory.c ****   #endif
1039:u8g2_lib/u8g2_d_memory.c **** }
 3201              		.loc 1 1039 1 is_stmt 0 view .LVU656
 3202 0004 0048     		ldr	r0, .L281
 3203              	.LVL187:
 3204              		.loc 1 1039 1 view .LVU657
 3205 0006 7047     		bx	lr
 3206              	.L282:
 3207              		.align	2
 3208              	.L281:
 3209 0008 00000000 		.word	.LANCHOR90
 3210              		.cfi_endproc
 3211              	.LFE93:
 3213              		.section	.text.u8g2_m_48_17_2,"ax",%progbits
 3214              		.align	1
 3215              		.global	u8g2_m_48_17_2
 3216              		.syntax unified
 3217              		.thumb
 3218              		.thumb_func
 3219              		.fpu softvfp
 3221              	u8g2_m_48_17_2:
 3222              	.LVL188:
 3223              	.LFB94:
1040:u8g2_lib/u8g2_d_memory.c **** uint8_t *u8g2_m_48_17_2(uint8_t *page_cnt)
1041:u8g2_lib/u8g2_d_memory.c **** {
 3224              		.loc 1 1041 1 is_stmt 1 view -0
 3225              		.cfi_startproc
 3226              		@ args = 0, pretend = 0, frame = 0
 3227              		@ frame_needed = 0, uses_anonymous_args = 0
 3228              		@ link register save eliminated.
1042:u8g2_lib/u8g2_d_memory.c ****   #ifdef U8G2_USE_DYNAMIC_ALLOC
1043:u8g2_lib/u8g2_d_memory.c ****   *page_cnt = 2;
1044:u8g2_lib/u8g2_d_memory.c ****   return 0;
1045:u8g2_lib/u8g2_d_memory.c ****   #else
1046:u8g2_lib/u8g2_d_memory.c ****   static uint8_t buf[768];
 3229              		.loc 1 1046 3 view .LVU659
1047:u8g2_lib/u8g2_d_memory.c ****   *page_cnt = 2;
 3230              		.loc 1 1047 3 view .LVU660
 3231              		.loc 1 1047 13 is_stmt 0 view .LVU661
 3232 0000 0223     		movs	r3, #2
 3233 0002 0370     		strb	r3, [r0]
1048:u8g2_lib/u8g2_d_memory.c ****   return buf;
 3234              		.loc 1 1048 3 is_stmt 1 view .LVU662
1049:u8g2_lib/u8g2_d_memory.c ****   #endif
1050:u8g2_lib/u8g2_d_memory.c **** }
 3235              		.loc 1 1050 1 is_stmt 0 view .LVU663
 3236 0004 0048     		ldr	r0, .L284
 3237              	.LVL189:
 3238              		.loc 1 1050 1 view .LVU664
 3239 0006 7047     		bx	lr
 3240              	.L285:
 3241              		.align	2
 3242              	.L284:
 3243 0008 00000000 		.word	.LANCHOR91
ARM GAS  C:\Users\GKQ\AppData\Local\Temp\ccTZzUR2.s 			page 73


 3244              		.cfi_endproc
 3245              	.LFE94:
 3247              		.section	.text.u8g2_m_48_17_f,"ax",%progbits
 3248              		.align	1
 3249              		.global	u8g2_m_48_17_f
 3250              		.syntax unified
 3251              		.thumb
 3252              		.thumb_func
 3253              		.fpu softvfp
 3255              	u8g2_m_48_17_f:
 3256              	.LVL190:
 3257              	.LFB95:
1051:u8g2_lib/u8g2_d_memory.c **** uint8_t *u8g2_m_48_17_f(uint8_t *page_cnt)
1052:u8g2_lib/u8g2_d_memory.c **** {
 3258              		.loc 1 1052 1 is_stmt 1 view -0
 3259              		.cfi_startproc
 3260              		@ args = 0, pretend = 0, frame = 0
 3261              		@ frame_needed = 0, uses_anonymous_args = 0
 3262              		@ link register save eliminated.
1053:u8g2_lib/u8g2_d_memory.c ****   #ifdef U8G2_USE_DYNAMIC_ALLOC
1054:u8g2_lib/u8g2_d_memory.c ****   *page_cnt = 17;
1055:u8g2_lib/u8g2_d_memory.c ****   return 0;
1056:u8g2_lib/u8g2_d_memory.c ****   #else
1057:u8g2_lib/u8g2_d_memory.c ****   static uint8_t buf[6528];
 3263              		.loc 1 1057 3 view .LVU666
1058:u8g2_lib/u8g2_d_memory.c ****   *page_cnt = 17;
 3264              		.loc 1 1058 3 view .LVU667
 3265              		.loc 1 1058 13 is_stmt 0 view .LVU668
 3266 0000 1123     		movs	r3, #17
 3267 0002 0370     		strb	r3, [r0]
1059:u8g2_lib/u8g2_d_memory.c ****   return buf;
 3268              		.loc 1 1059 3 is_stmt 1 view .LVU669
1060:u8g2_lib/u8g2_d_memory.c ****   #endif
1061:u8g2_lib/u8g2_d_memory.c **** }
 3269              		.loc 1 1061 1 is_stmt 0 view .LVU670
 3270 0004 0048     		ldr	r0, .L287
 3271              	.LVL191:
 3272              		.loc 1 1061 1 view .LVU671
 3273 0006 7047     		bx	lr
 3274              	.L288:
 3275              		.align	2
 3276              	.L287:
 3277 0008 00000000 		.word	buf.11401
 3278              		.cfi_endproc
 3279              	.LFE95:
 3281              		.section	.text.u8g2_m_32_16_1,"ax",%progbits
 3282              		.align	1
 3283              		.global	u8g2_m_32_16_1
 3284              		.syntax unified
 3285              		.thumb
 3286              		.thumb_func
 3287              		.fpu softvfp
 3289              	u8g2_m_32_16_1:
 3290              	.LVL192:
 3291              	.LFB96:
1062:u8g2_lib/u8g2_d_memory.c **** uint8_t *u8g2_m_32_16_1(uint8_t *page_cnt)
1063:u8g2_lib/u8g2_d_memory.c **** {
ARM GAS  C:\Users\GKQ\AppData\Local\Temp\ccTZzUR2.s 			page 74


 3292              		.loc 1 1063 1 is_stmt 1 view -0
 3293              		.cfi_startproc
 3294              		@ args = 0, pretend = 0, frame = 0
 3295              		@ frame_needed = 0, uses_anonymous_args = 0
 3296              		@ link register save eliminated.
1064:u8g2_lib/u8g2_d_memory.c ****   #ifdef U8G2_USE_DYNAMIC_ALLOC
1065:u8g2_lib/u8g2_d_memory.c ****   *page_cnt = 1;
1066:u8g2_lib/u8g2_d_memory.c ****   return 0;
1067:u8g2_lib/u8g2_d_memory.c ****   #else
1068:u8g2_lib/u8g2_d_memory.c ****   static uint8_t buf[256];
 3297              		.loc 1 1068 3 view .LVU673
1069:u8g2_lib/u8g2_d_memory.c ****   *page_cnt = 1;
 3298              		.loc 1 1069 3 view .LVU674
 3299              		.loc 1 1069 13 is_stmt 0 view .LVU675
 3300 0000 0123     		movs	r3, #1
 3301 0002 0370     		strb	r3, [r0]
1070:u8g2_lib/u8g2_d_memory.c ****   return buf;
 3302              		.loc 1 1070 3 is_stmt 1 view .LVU676
1071:u8g2_lib/u8g2_d_memory.c ****   #endif
1072:u8g2_lib/u8g2_d_memory.c **** }
 3303              		.loc 1 1072 1 is_stmt 0 view .LVU677
 3304 0004 0048     		ldr	r0, .L290
 3305              	.LVL193:
 3306              		.loc 1 1072 1 view .LVU678
 3307 0006 7047     		bx	lr
 3308              	.L291:
 3309              		.align	2
 3310              	.L290:
 3311 0008 00000000 		.word	.LANCHOR92
 3312              		.cfi_endproc
 3313              	.LFE96:
 3315              		.section	.text.u8g2_m_32_16_2,"ax",%progbits
 3316              		.align	1
 3317              		.global	u8g2_m_32_16_2
 3318              		.syntax unified
 3319              		.thumb
 3320              		.thumb_func
 3321              		.fpu softvfp
 3323              	u8g2_m_32_16_2:
 3324              	.LVL194:
 3325              	.LFB97:
1073:u8g2_lib/u8g2_d_memory.c **** uint8_t *u8g2_m_32_16_2(uint8_t *page_cnt)
1074:u8g2_lib/u8g2_d_memory.c **** {
 3326              		.loc 1 1074 1 is_stmt 1 view -0
 3327              		.cfi_startproc
 3328              		@ args = 0, pretend = 0, frame = 0
 3329              		@ frame_needed = 0, uses_anonymous_args = 0
 3330              		@ link register save eliminated.
1075:u8g2_lib/u8g2_d_memory.c ****   #ifdef U8G2_USE_DYNAMIC_ALLOC
1076:u8g2_lib/u8g2_d_memory.c ****   *page_cnt = 2;
1077:u8g2_lib/u8g2_d_memory.c ****   return 0;
1078:u8g2_lib/u8g2_d_memory.c ****   #else
1079:u8g2_lib/u8g2_d_memory.c ****   static uint8_t buf[512];
 3331              		.loc 1 1079 3 view .LVU680
1080:u8g2_lib/u8g2_d_memory.c ****   *page_cnt = 2;
 3332              		.loc 1 1080 3 view .LVU681
 3333              		.loc 1 1080 13 is_stmt 0 view .LVU682
ARM GAS  C:\Users\GKQ\AppData\Local\Temp\ccTZzUR2.s 			page 75


 3334 0000 0223     		movs	r3, #2
 3335 0002 0370     		strb	r3, [r0]
1081:u8g2_lib/u8g2_d_memory.c ****   return buf;
 3336              		.loc 1 1081 3 is_stmt 1 view .LVU683
1082:u8g2_lib/u8g2_d_memory.c ****   #endif
1083:u8g2_lib/u8g2_d_memory.c **** }
 3337              		.loc 1 1083 1 is_stmt 0 view .LVU684
 3338 0004 0048     		ldr	r0, .L293
 3339              	.LVL195:
 3340              		.loc 1 1083 1 view .LVU685
 3341 0006 7047     		bx	lr
 3342              	.L294:
 3343              		.align	2
 3344              	.L293:
 3345 0008 00000000 		.word	.LANCHOR93
 3346              		.cfi_endproc
 3347              	.LFE97:
 3349              		.section	.text.u8g2_m_32_16_f,"ax",%progbits
 3350              		.align	1
 3351              		.global	u8g2_m_32_16_f
 3352              		.syntax unified
 3353              		.thumb
 3354              		.thumb_func
 3355              		.fpu softvfp
 3357              	u8g2_m_32_16_f:
 3358              	.LVL196:
 3359              	.LFB98:
1084:u8g2_lib/u8g2_d_memory.c **** uint8_t *u8g2_m_32_16_f(uint8_t *page_cnt)
1085:u8g2_lib/u8g2_d_memory.c **** {
 3360              		.loc 1 1085 1 is_stmt 1 view -0
 3361              		.cfi_startproc
 3362              		@ args = 0, pretend = 0, frame = 0
 3363              		@ frame_needed = 0, uses_anonymous_args = 0
 3364              		@ link register save eliminated.
1086:u8g2_lib/u8g2_d_memory.c ****   #ifdef U8G2_USE_DYNAMIC_ALLOC
1087:u8g2_lib/u8g2_d_memory.c ****   *page_cnt = 16;
1088:u8g2_lib/u8g2_d_memory.c ****   return 0;
1089:u8g2_lib/u8g2_d_memory.c ****   #else
1090:u8g2_lib/u8g2_d_memory.c ****   static uint8_t buf[4096];
 3365              		.loc 1 1090 3 view .LVU687
1091:u8g2_lib/u8g2_d_memory.c ****   *page_cnt = 16;
 3366              		.loc 1 1091 3 view .LVU688
 3367              		.loc 1 1091 13 is_stmt 0 view .LVU689
 3368 0000 1023     		movs	r3, #16
 3369 0002 0370     		strb	r3, [r0]
1092:u8g2_lib/u8g2_d_memory.c ****   return buf;
 3370              		.loc 1 1092 3 is_stmt 1 view .LVU690
1093:u8g2_lib/u8g2_d_memory.c ****   #endif
1094:u8g2_lib/u8g2_d_memory.c **** }
 3371              		.loc 1 1094 1 is_stmt 0 view .LVU691
 3372 0004 0048     		ldr	r0, .L296
 3373              	.LVL197:
 3374              		.loc 1 1094 1 view .LVU692
 3375 0006 7047     		bx	lr
 3376              	.L297:
 3377              		.align	2
 3378              	.L296:
ARM GAS  C:\Users\GKQ\AppData\Local\Temp\ccTZzUR2.s 			page 76


 3379 0008 00000000 		.word	buf.11413
 3380              		.cfi_endproc
 3381              	.LFE98:
 3383              		.section	.text.u8g2_m_32_20_1,"ax",%progbits
 3384              		.align	1
 3385              		.global	u8g2_m_32_20_1
 3386              		.syntax unified
 3387              		.thumb
 3388              		.thumb_func
 3389              		.fpu softvfp
 3391              	u8g2_m_32_20_1:
 3392              	.LVL198:
 3393              	.LFB99:
1095:u8g2_lib/u8g2_d_memory.c **** uint8_t *u8g2_m_32_20_1(uint8_t *page_cnt)
1096:u8g2_lib/u8g2_d_memory.c **** {
 3394              		.loc 1 1096 1 is_stmt 1 view -0
 3395              		.cfi_startproc
 3396              		@ args = 0, pretend = 0, frame = 0
 3397              		@ frame_needed = 0, uses_anonymous_args = 0
 3398              		@ link register save eliminated.
1097:u8g2_lib/u8g2_d_memory.c ****   #ifdef U8G2_USE_DYNAMIC_ALLOC
1098:u8g2_lib/u8g2_d_memory.c ****   *page_cnt = 1;
1099:u8g2_lib/u8g2_d_memory.c ****   return 0;
1100:u8g2_lib/u8g2_d_memory.c ****   #else
1101:u8g2_lib/u8g2_d_memory.c ****   static uint8_t buf[256];
 3399              		.loc 1 1101 3 view .LVU694
1102:u8g2_lib/u8g2_d_memory.c ****   *page_cnt = 1;
 3400              		.loc 1 1102 3 view .LVU695
 3401              		.loc 1 1102 13 is_stmt 0 view .LVU696
 3402 0000 0123     		movs	r3, #1
 3403 0002 0370     		strb	r3, [r0]
1103:u8g2_lib/u8g2_d_memory.c ****   return buf;
 3404              		.loc 1 1103 3 is_stmt 1 view .LVU697
1104:u8g2_lib/u8g2_d_memory.c ****   #endif
1105:u8g2_lib/u8g2_d_memory.c **** }
 3405              		.loc 1 1105 1 is_stmt 0 view .LVU698
 3406 0004 0048     		ldr	r0, .L299
 3407              	.LVL199:
 3408              		.loc 1 1105 1 view .LVU699
 3409 0006 7047     		bx	lr
 3410              	.L300:
 3411              		.align	2
 3412              	.L299:
 3413 0008 00000000 		.word	.LANCHOR94
 3414              		.cfi_endproc
 3415              	.LFE99:
 3417              		.section	.text.u8g2_m_32_20_2,"ax",%progbits
 3418              		.align	1
 3419              		.global	u8g2_m_32_20_2
 3420              		.syntax unified
 3421              		.thumb
 3422              		.thumb_func
 3423              		.fpu softvfp
 3425              	u8g2_m_32_20_2:
 3426              	.LVL200:
 3427              	.LFB100:
1106:u8g2_lib/u8g2_d_memory.c **** uint8_t *u8g2_m_32_20_2(uint8_t *page_cnt)
ARM GAS  C:\Users\GKQ\AppData\Local\Temp\ccTZzUR2.s 			page 77


1107:u8g2_lib/u8g2_d_memory.c **** {
 3428              		.loc 1 1107 1 is_stmt 1 view -0
 3429              		.cfi_startproc
 3430              		@ args = 0, pretend = 0, frame = 0
 3431              		@ frame_needed = 0, uses_anonymous_args = 0
 3432              		@ link register save eliminated.
1108:u8g2_lib/u8g2_d_memory.c ****   #ifdef U8G2_USE_DYNAMIC_ALLOC
1109:u8g2_lib/u8g2_d_memory.c ****   *page_cnt = 2;
1110:u8g2_lib/u8g2_d_memory.c ****   return 0;
1111:u8g2_lib/u8g2_d_memory.c ****   #else
1112:u8g2_lib/u8g2_d_memory.c ****   static uint8_t buf[512];
 3433              		.loc 1 1112 3 view .LVU701
1113:u8g2_lib/u8g2_d_memory.c ****   *page_cnt = 2;
 3434              		.loc 1 1113 3 view .LVU702
 3435              		.loc 1 1113 13 is_stmt 0 view .LVU703
 3436 0000 0223     		movs	r3, #2
 3437 0002 0370     		strb	r3, [r0]
1114:u8g2_lib/u8g2_d_memory.c ****   return buf;
 3438              		.loc 1 1114 3 is_stmt 1 view .LVU704
1115:u8g2_lib/u8g2_d_memory.c ****   #endif
1116:u8g2_lib/u8g2_d_memory.c **** }
 3439              		.loc 1 1116 1 is_stmt 0 view .LVU705
 3440 0004 0048     		ldr	r0, .L302
 3441              	.LVL201:
 3442              		.loc 1 1116 1 view .LVU706
 3443 0006 7047     		bx	lr
 3444              	.L303:
 3445              		.align	2
 3446              	.L302:
 3447 0008 00000000 		.word	.LANCHOR95
 3448              		.cfi_endproc
 3449              	.LFE100:
 3451              		.section	.text.u8g2_m_32_20_f,"ax",%progbits
 3452              		.align	1
 3453              		.global	u8g2_m_32_20_f
 3454              		.syntax unified
 3455              		.thumb
 3456              		.thumb_func
 3457              		.fpu softvfp
 3459              	u8g2_m_32_20_f:
 3460              	.LVL202:
 3461              	.LFB101:
1117:u8g2_lib/u8g2_d_memory.c **** uint8_t *u8g2_m_32_20_f(uint8_t *page_cnt)
1118:u8g2_lib/u8g2_d_memory.c **** {
 3462              		.loc 1 1118 1 is_stmt 1 view -0
 3463              		.cfi_startproc
 3464              		@ args = 0, pretend = 0, frame = 0
 3465              		@ frame_needed = 0, uses_anonymous_args = 0
 3466              		@ link register save eliminated.
1119:u8g2_lib/u8g2_d_memory.c ****   #ifdef U8G2_USE_DYNAMIC_ALLOC
1120:u8g2_lib/u8g2_d_memory.c ****   *page_cnt = 20;
1121:u8g2_lib/u8g2_d_memory.c ****   return 0;
1122:u8g2_lib/u8g2_d_memory.c ****   #else
1123:u8g2_lib/u8g2_d_memory.c ****   static uint8_t buf[5120];
 3467              		.loc 1 1123 3 view .LVU708
1124:u8g2_lib/u8g2_d_memory.c ****   *page_cnt = 20;
 3468              		.loc 1 1124 3 view .LVU709
ARM GAS  C:\Users\GKQ\AppData\Local\Temp\ccTZzUR2.s 			page 78


 3469              		.loc 1 1124 13 is_stmt 0 view .LVU710
 3470 0000 1423     		movs	r3, #20
 3471 0002 0370     		strb	r3, [r0]
1125:u8g2_lib/u8g2_d_memory.c ****   return buf;
 3472              		.loc 1 1125 3 is_stmt 1 view .LVU711
1126:u8g2_lib/u8g2_d_memory.c ****   #endif
1127:u8g2_lib/u8g2_d_memory.c **** }
 3473              		.loc 1 1127 1 is_stmt 0 view .LVU712
 3474 0004 0048     		ldr	r0, .L305
 3475              	.LVL203:
 3476              		.loc 1 1127 1 view .LVU713
 3477 0006 7047     		bx	lr
 3478              	.L306:
 3479              		.align	2
 3480              	.L305:
 3481 0008 00000000 		.word	buf.11425
 3482              		.cfi_endproc
 3483              	.LFE101:
 3485              		.section	.text.u8g2_m_22_13_1,"ax",%progbits
 3486              		.align	1
 3487              		.global	u8g2_m_22_13_1
 3488              		.syntax unified
 3489              		.thumb
 3490              		.thumb_func
 3491              		.fpu softvfp
 3493              	u8g2_m_22_13_1:
 3494              	.LVL204:
 3495              	.LFB102:
1128:u8g2_lib/u8g2_d_memory.c **** uint8_t *u8g2_m_22_13_1(uint8_t *page_cnt)
1129:u8g2_lib/u8g2_d_memory.c **** {
 3496              		.loc 1 1129 1 is_stmt 1 view -0
 3497              		.cfi_startproc
 3498              		@ args = 0, pretend = 0, frame = 0
 3499              		@ frame_needed = 0, uses_anonymous_args = 0
 3500              		@ link register save eliminated.
1130:u8g2_lib/u8g2_d_memory.c ****   #ifdef U8G2_USE_DYNAMIC_ALLOC
1131:u8g2_lib/u8g2_d_memory.c ****   *page_cnt = 1;
1132:u8g2_lib/u8g2_d_memory.c ****   return 0;
1133:u8g2_lib/u8g2_d_memory.c ****   #else
1134:u8g2_lib/u8g2_d_memory.c ****   static uint8_t buf[176];
 3501              		.loc 1 1134 3 view .LVU715
1135:u8g2_lib/u8g2_d_memory.c ****   *page_cnt = 1;
 3502              		.loc 1 1135 3 view .LVU716
 3503              		.loc 1 1135 13 is_stmt 0 view .LVU717
 3504 0000 0123     		movs	r3, #1
 3505 0002 0370     		strb	r3, [r0]
1136:u8g2_lib/u8g2_d_memory.c ****   return buf;
 3506              		.loc 1 1136 3 is_stmt 1 view .LVU718
1137:u8g2_lib/u8g2_d_memory.c ****   #endif
1138:u8g2_lib/u8g2_d_memory.c **** }
 3507              		.loc 1 1138 1 is_stmt 0 view .LVU719
 3508 0004 0048     		ldr	r0, .L308
 3509              	.LVL205:
 3510              		.loc 1 1138 1 view .LVU720
 3511 0006 7047     		bx	lr
 3512              	.L309:
 3513              		.align	2
ARM GAS  C:\Users\GKQ\AppData\Local\Temp\ccTZzUR2.s 			page 79


 3514              	.L308:
 3515 0008 00000000 		.word	.LANCHOR96
 3516              		.cfi_endproc
 3517              	.LFE102:
 3519              		.section	.text.u8g2_m_22_13_2,"ax",%progbits
 3520              		.align	1
 3521              		.global	u8g2_m_22_13_2
 3522              		.syntax unified
 3523              		.thumb
 3524              		.thumb_func
 3525              		.fpu softvfp
 3527              	u8g2_m_22_13_2:
 3528              	.LVL206:
 3529              	.LFB103:
1139:u8g2_lib/u8g2_d_memory.c **** uint8_t *u8g2_m_22_13_2(uint8_t *page_cnt)
1140:u8g2_lib/u8g2_d_memory.c **** {
 3530              		.loc 1 1140 1 is_stmt 1 view -0
 3531              		.cfi_startproc
 3532              		@ args = 0, pretend = 0, frame = 0
 3533              		@ frame_needed = 0, uses_anonymous_args = 0
 3534              		@ link register save eliminated.
1141:u8g2_lib/u8g2_d_memory.c ****   #ifdef U8G2_USE_DYNAMIC_ALLOC
1142:u8g2_lib/u8g2_d_memory.c ****   *page_cnt = 2;
1143:u8g2_lib/u8g2_d_memory.c ****   return 0;
1144:u8g2_lib/u8g2_d_memory.c ****   #else
1145:u8g2_lib/u8g2_d_memory.c ****   static uint8_t buf[352];
 3535              		.loc 1 1145 3 view .LVU722
1146:u8g2_lib/u8g2_d_memory.c ****   *page_cnt = 2;
 3536              		.loc 1 1146 3 view .LVU723
 3537              		.loc 1 1146 13 is_stmt 0 view .LVU724
 3538 0000 0223     		movs	r3, #2
 3539 0002 0370     		strb	r3, [r0]
1147:u8g2_lib/u8g2_d_memory.c ****   return buf;
 3540              		.loc 1 1147 3 is_stmt 1 view .LVU725
1148:u8g2_lib/u8g2_d_memory.c ****   #endif
1149:u8g2_lib/u8g2_d_memory.c **** }
 3541              		.loc 1 1149 1 is_stmt 0 view .LVU726
 3542 0004 0048     		ldr	r0, .L311
 3543              	.LVL207:
 3544              		.loc 1 1149 1 view .LVU727
 3545 0006 7047     		bx	lr
 3546              	.L312:
 3547              		.align	2
 3548              	.L311:
 3549 0008 00000000 		.word	.LANCHOR97
 3550              		.cfi_endproc
 3551              	.LFE103:
 3553              		.section	.text.u8g2_m_22_13_f,"ax",%progbits
 3554              		.align	1
 3555              		.global	u8g2_m_22_13_f
 3556              		.syntax unified
 3557              		.thumb
 3558              		.thumb_func
 3559              		.fpu softvfp
 3561              	u8g2_m_22_13_f:
 3562              	.LVL208:
 3563              	.LFB104:
ARM GAS  C:\Users\GKQ\AppData\Local\Temp\ccTZzUR2.s 			page 80


1150:u8g2_lib/u8g2_d_memory.c **** uint8_t *u8g2_m_22_13_f(uint8_t *page_cnt)
1151:u8g2_lib/u8g2_d_memory.c **** {
 3564              		.loc 1 1151 1 is_stmt 1 view -0
 3565              		.cfi_startproc
 3566              		@ args = 0, pretend = 0, frame = 0
 3567              		@ frame_needed = 0, uses_anonymous_args = 0
 3568              		@ link register save eliminated.
1152:u8g2_lib/u8g2_d_memory.c ****   #ifdef U8G2_USE_DYNAMIC_ALLOC
1153:u8g2_lib/u8g2_d_memory.c ****   *page_cnt = 13;
1154:u8g2_lib/u8g2_d_memory.c ****   return 0;
1155:u8g2_lib/u8g2_d_memory.c ****   #else
1156:u8g2_lib/u8g2_d_memory.c ****   static uint8_t buf[2288];
 3569              		.loc 1 1156 3 view .LVU729
1157:u8g2_lib/u8g2_d_memory.c ****   *page_cnt = 13;
 3570              		.loc 1 1157 3 view .LVU730
 3571              		.loc 1 1157 13 is_stmt 0 view .LVU731
 3572 0000 0D23     		movs	r3, #13
 3573 0002 0370     		strb	r3, [r0]
1158:u8g2_lib/u8g2_d_memory.c ****   return buf;
 3574              		.loc 1 1158 3 is_stmt 1 view .LVU732
1159:u8g2_lib/u8g2_d_memory.c ****   #endif
1160:u8g2_lib/u8g2_d_memory.c **** }
 3575              		.loc 1 1160 1 is_stmt 0 view .LVU733
 3576 0004 0048     		ldr	r0, .L314
 3577              	.LVL209:
 3578              		.loc 1 1160 1 view .LVU734
 3579 0006 7047     		bx	lr
 3580              	.L315:
 3581              		.align	2
 3582              	.L314:
 3583 0008 00000000 		.word	.LANCHOR98
 3584              		.cfi_endproc
 3585              	.LFE104:
 3587              		.section	.text.u8g2_m_24_12_1,"ax",%progbits
 3588              		.align	1
 3589              		.global	u8g2_m_24_12_1
 3590              		.syntax unified
 3591              		.thumb
 3592              		.thumb_func
 3593              		.fpu softvfp
 3595              	u8g2_m_24_12_1:
 3596              	.LVL210:
 3597              	.LFB105:
1161:u8g2_lib/u8g2_d_memory.c **** uint8_t *u8g2_m_24_12_1(uint8_t *page_cnt)
1162:u8g2_lib/u8g2_d_memory.c **** {
 3598              		.loc 1 1162 1 is_stmt 1 view -0
 3599              		.cfi_startproc
 3600              		@ args = 0, pretend = 0, frame = 0
 3601              		@ frame_needed = 0, uses_anonymous_args = 0
 3602              		@ link register save eliminated.
1163:u8g2_lib/u8g2_d_memory.c ****   #ifdef U8G2_USE_DYNAMIC_ALLOC
1164:u8g2_lib/u8g2_d_memory.c ****   *page_cnt = 1;
1165:u8g2_lib/u8g2_d_memory.c ****   return 0;
1166:u8g2_lib/u8g2_d_memory.c ****   #else
1167:u8g2_lib/u8g2_d_memory.c ****   static uint8_t buf[192];
 3603              		.loc 1 1167 3 view .LVU736
1168:u8g2_lib/u8g2_d_memory.c ****   *page_cnt = 1;
ARM GAS  C:\Users\GKQ\AppData\Local\Temp\ccTZzUR2.s 			page 81


 3604              		.loc 1 1168 3 view .LVU737
 3605              		.loc 1 1168 13 is_stmt 0 view .LVU738
 3606 0000 0123     		movs	r3, #1
 3607 0002 0370     		strb	r3, [r0]
1169:u8g2_lib/u8g2_d_memory.c ****   return buf;
 3608              		.loc 1 1169 3 is_stmt 1 view .LVU739
1170:u8g2_lib/u8g2_d_memory.c ****   #endif
1171:u8g2_lib/u8g2_d_memory.c **** }
 3609              		.loc 1 1171 1 is_stmt 0 view .LVU740
 3610 0004 0048     		ldr	r0, .L317
 3611              	.LVL211:
 3612              		.loc 1 1171 1 view .LVU741
 3613 0006 7047     		bx	lr
 3614              	.L318:
 3615              		.align	2
 3616              	.L317:
 3617 0008 00000000 		.word	.LANCHOR99
 3618              		.cfi_endproc
 3619              	.LFE105:
 3621              		.section	.text.u8g2_m_24_12_2,"ax",%progbits
 3622              		.align	1
 3623              		.global	u8g2_m_24_12_2
 3624              		.syntax unified
 3625              		.thumb
 3626              		.thumb_func
 3627              		.fpu softvfp
 3629              	u8g2_m_24_12_2:
 3630              	.LVL212:
 3631              	.LFB106:
1172:u8g2_lib/u8g2_d_memory.c **** uint8_t *u8g2_m_24_12_2(uint8_t *page_cnt)
1173:u8g2_lib/u8g2_d_memory.c **** {
 3632              		.loc 1 1173 1 is_stmt 1 view -0
 3633              		.cfi_startproc
 3634              		@ args = 0, pretend = 0, frame = 0
 3635              		@ frame_needed = 0, uses_anonymous_args = 0
 3636              		@ link register save eliminated.
1174:u8g2_lib/u8g2_d_memory.c ****   #ifdef U8G2_USE_DYNAMIC_ALLOC
1175:u8g2_lib/u8g2_d_memory.c ****   *page_cnt = 2;
1176:u8g2_lib/u8g2_d_memory.c ****   return 0;
1177:u8g2_lib/u8g2_d_memory.c ****   #else
1178:u8g2_lib/u8g2_d_memory.c ****   static uint8_t buf[384];
 3637              		.loc 1 1178 3 view .LVU743
1179:u8g2_lib/u8g2_d_memory.c ****   *page_cnt = 2;
 3638              		.loc 1 1179 3 view .LVU744
 3639              		.loc 1 1179 13 is_stmt 0 view .LVU745
 3640 0000 0223     		movs	r3, #2
 3641 0002 0370     		strb	r3, [r0]
1180:u8g2_lib/u8g2_d_memory.c ****   return buf;
 3642              		.loc 1 1180 3 is_stmt 1 view .LVU746
1181:u8g2_lib/u8g2_d_memory.c ****   #endif
1182:u8g2_lib/u8g2_d_memory.c **** }
 3643              		.loc 1 1182 1 is_stmt 0 view .LVU747
 3644 0004 0048     		ldr	r0, .L320
 3645              	.LVL213:
 3646              		.loc 1 1182 1 view .LVU748
 3647 0006 7047     		bx	lr
 3648              	.L321:
ARM GAS  C:\Users\GKQ\AppData\Local\Temp\ccTZzUR2.s 			page 82


 3649              		.align	2
 3650              	.L320:
 3651 0008 00000000 		.word	.LANCHOR100
 3652              		.cfi_endproc
 3653              	.LFE106:
 3655              		.section	.text.u8g2_m_24_12_f,"ax",%progbits
 3656              		.align	1
 3657              		.global	u8g2_m_24_12_f
 3658              		.syntax unified
 3659              		.thumb
 3660              		.thumb_func
 3661              		.fpu softvfp
 3663              	u8g2_m_24_12_f:
 3664              	.LVL214:
 3665              	.LFB107:
1183:u8g2_lib/u8g2_d_memory.c **** uint8_t *u8g2_m_24_12_f(uint8_t *page_cnt)
1184:u8g2_lib/u8g2_d_memory.c **** {
 3666              		.loc 1 1184 1 is_stmt 1 view -0
 3667              		.cfi_startproc
 3668              		@ args = 0, pretend = 0, frame = 0
 3669              		@ frame_needed = 0, uses_anonymous_args = 0
 3670              		@ link register save eliminated.
1185:u8g2_lib/u8g2_d_memory.c ****   #ifdef U8G2_USE_DYNAMIC_ALLOC
1186:u8g2_lib/u8g2_d_memory.c ****   *page_cnt = 12;
1187:u8g2_lib/u8g2_d_memory.c ****   return 0;
1188:u8g2_lib/u8g2_d_memory.c ****   #else
1189:u8g2_lib/u8g2_d_memory.c ****   static uint8_t buf[2304];
 3671              		.loc 1 1189 3 view .LVU750
1190:u8g2_lib/u8g2_d_memory.c ****   *page_cnt = 12;
 3672              		.loc 1 1190 3 view .LVU751
 3673              		.loc 1 1190 13 is_stmt 0 view .LVU752
 3674 0000 0C23     		movs	r3, #12
 3675 0002 0370     		strb	r3, [r0]
1191:u8g2_lib/u8g2_d_memory.c ****   return buf;
 3676              		.loc 1 1191 3 is_stmt 1 view .LVU753
1192:u8g2_lib/u8g2_d_memory.c ****   #endif
1193:u8g2_lib/u8g2_d_memory.c **** }
 3677              		.loc 1 1193 1 is_stmt 0 view .LVU754
 3678 0004 0048     		ldr	r0, .L323
 3679              	.LVL215:
 3680              		.loc 1 1193 1 view .LVU755
 3681 0006 7047     		bx	lr
 3682              	.L324:
 3683              		.align	2
 3684              	.L323:
 3685 0008 00000000 		.word	.LANCHOR101
 3686              		.cfi_endproc
 3687              	.LFE107:
 3689              		.section	.text.u8g2_m_20_10_1,"ax",%progbits
 3690              		.align	1
 3691              		.global	u8g2_m_20_10_1
 3692              		.syntax unified
 3693              		.thumb
 3694              		.thumb_func
 3695              		.fpu softvfp
 3697              	u8g2_m_20_10_1:
 3698              	.LVL216:
ARM GAS  C:\Users\GKQ\AppData\Local\Temp\ccTZzUR2.s 			page 83


 3699              	.LFB108:
1194:u8g2_lib/u8g2_d_memory.c **** uint8_t *u8g2_m_20_10_1(uint8_t *page_cnt)
1195:u8g2_lib/u8g2_d_memory.c **** {
 3700              		.loc 1 1195 1 is_stmt 1 view -0
 3701              		.cfi_startproc
 3702              		@ args = 0, pretend = 0, frame = 0
 3703              		@ frame_needed = 0, uses_anonymous_args = 0
 3704              		@ link register save eliminated.
1196:u8g2_lib/u8g2_d_memory.c ****   #ifdef U8G2_USE_DYNAMIC_ALLOC
1197:u8g2_lib/u8g2_d_memory.c ****   *page_cnt = 1;
1198:u8g2_lib/u8g2_d_memory.c ****   return 0;
1199:u8g2_lib/u8g2_d_memory.c ****   #else
1200:u8g2_lib/u8g2_d_memory.c ****   static uint8_t buf[160];
 3705              		.loc 1 1200 3 view .LVU757
1201:u8g2_lib/u8g2_d_memory.c ****   *page_cnt = 1;
 3706              		.loc 1 1201 3 view .LVU758
 3707              		.loc 1 1201 13 is_stmt 0 view .LVU759
 3708 0000 0123     		movs	r3, #1
 3709 0002 0370     		strb	r3, [r0]
1202:u8g2_lib/u8g2_d_memory.c ****   return buf;
 3710              		.loc 1 1202 3 is_stmt 1 view .LVU760
1203:u8g2_lib/u8g2_d_memory.c ****   #endif
1204:u8g2_lib/u8g2_d_memory.c **** }
 3711              		.loc 1 1204 1 is_stmt 0 view .LVU761
 3712 0004 0048     		ldr	r0, .L326
 3713              	.LVL217:
 3714              		.loc 1 1204 1 view .LVU762
 3715 0006 7047     		bx	lr
 3716              	.L327:
 3717              		.align	2
 3718              	.L326:
 3719 0008 00000000 		.word	.LANCHOR102
 3720              		.cfi_endproc
 3721              	.LFE108:
 3723              		.section	.text.u8g2_m_20_10_2,"ax",%progbits
 3724              		.align	1
 3725              		.global	u8g2_m_20_10_2
 3726              		.syntax unified
 3727              		.thumb
 3728              		.thumb_func
 3729              		.fpu softvfp
 3731              	u8g2_m_20_10_2:
 3732              	.LVL218:
 3733              	.LFB109:
1205:u8g2_lib/u8g2_d_memory.c **** uint8_t *u8g2_m_20_10_2(uint8_t *page_cnt)
1206:u8g2_lib/u8g2_d_memory.c **** {
 3734              		.loc 1 1206 1 is_stmt 1 view -0
 3735              		.cfi_startproc
 3736              		@ args = 0, pretend = 0, frame = 0
 3737              		@ frame_needed = 0, uses_anonymous_args = 0
 3738              		@ link register save eliminated.
1207:u8g2_lib/u8g2_d_memory.c ****   #ifdef U8G2_USE_DYNAMIC_ALLOC
1208:u8g2_lib/u8g2_d_memory.c ****   *page_cnt = 2;
1209:u8g2_lib/u8g2_d_memory.c ****   return 0;
1210:u8g2_lib/u8g2_d_memory.c ****   #else
1211:u8g2_lib/u8g2_d_memory.c ****   static uint8_t buf[320];
 3739              		.loc 1 1211 3 view .LVU764
ARM GAS  C:\Users\GKQ\AppData\Local\Temp\ccTZzUR2.s 			page 84


1212:u8g2_lib/u8g2_d_memory.c ****   *page_cnt = 2;
 3740              		.loc 1 1212 3 view .LVU765
 3741              		.loc 1 1212 13 is_stmt 0 view .LVU766
 3742 0000 0223     		movs	r3, #2
 3743 0002 0370     		strb	r3, [r0]
1213:u8g2_lib/u8g2_d_memory.c ****   return buf;
 3744              		.loc 1 1213 3 is_stmt 1 view .LVU767
1214:u8g2_lib/u8g2_d_memory.c ****   #endif
1215:u8g2_lib/u8g2_d_memory.c **** }
 3745              		.loc 1 1215 1 is_stmt 0 view .LVU768
 3746 0004 0048     		ldr	r0, .L329
 3747              	.LVL219:
 3748              		.loc 1 1215 1 view .LVU769
 3749 0006 7047     		bx	lr
 3750              	.L330:
 3751              		.align	2
 3752              	.L329:
 3753 0008 00000000 		.word	.LANCHOR103
 3754              		.cfi_endproc
 3755              	.LFE109:
 3757              		.section	.text.u8g2_m_20_10_f,"ax",%progbits
 3758              		.align	1
 3759              		.global	u8g2_m_20_10_f
 3760              		.syntax unified
 3761              		.thumb
 3762              		.thumb_func
 3763              		.fpu softvfp
 3765              	u8g2_m_20_10_f:
 3766              	.LVL220:
 3767              	.LFB110:
1216:u8g2_lib/u8g2_d_memory.c **** uint8_t *u8g2_m_20_10_f(uint8_t *page_cnt)
1217:u8g2_lib/u8g2_d_memory.c **** {
 3768              		.loc 1 1217 1 is_stmt 1 view -0
 3769              		.cfi_startproc
 3770              		@ args = 0, pretend = 0, frame = 0
 3771              		@ frame_needed = 0, uses_anonymous_args = 0
 3772              		@ link register save eliminated.
1218:u8g2_lib/u8g2_d_memory.c ****   #ifdef U8G2_USE_DYNAMIC_ALLOC
1219:u8g2_lib/u8g2_d_memory.c ****   *page_cnt = 10;
1220:u8g2_lib/u8g2_d_memory.c ****   return 0;
1221:u8g2_lib/u8g2_d_memory.c ****   #else
1222:u8g2_lib/u8g2_d_memory.c ****   static uint8_t buf[1600];
 3773              		.loc 1 1222 3 view .LVU771
1223:u8g2_lib/u8g2_d_memory.c ****   *page_cnt = 10;
 3774              		.loc 1 1223 3 view .LVU772
 3775              		.loc 1 1223 13 is_stmt 0 view .LVU773
 3776 0000 0A23     		movs	r3, #10
 3777 0002 0370     		strb	r3, [r0]
1224:u8g2_lib/u8g2_d_memory.c ****   return buf;
 3778              		.loc 1 1224 3 is_stmt 1 view .LVU774
1225:u8g2_lib/u8g2_d_memory.c ****   #endif
1226:u8g2_lib/u8g2_d_memory.c **** }
 3779              		.loc 1 1226 1 is_stmt 0 view .LVU775
 3780 0004 0048     		ldr	r0, .L332
 3781              	.LVL221:
 3782              		.loc 1 1226 1 view .LVU776
 3783 0006 7047     		bx	lr
ARM GAS  C:\Users\GKQ\AppData\Local\Temp\ccTZzUR2.s 			page 85


 3784              	.L333:
 3785              		.align	2
 3786              	.L332:
 3787 0008 00000000 		.word	.LANCHOR104
 3788              		.cfi_endproc
 3789              	.LFE110:
 3791              		.section	.text.u8g2_m_22_9_1,"ax",%progbits
 3792              		.align	1
 3793              		.global	u8g2_m_22_9_1
 3794              		.syntax unified
 3795              		.thumb
 3796              		.thumb_func
 3797              		.fpu softvfp
 3799              	u8g2_m_22_9_1:
 3800              	.LVL222:
 3801              	.LFB111:
1227:u8g2_lib/u8g2_d_memory.c **** uint8_t *u8g2_m_22_9_1(uint8_t *page_cnt)
1228:u8g2_lib/u8g2_d_memory.c **** {
 3802              		.loc 1 1228 1 is_stmt 1 view -0
 3803              		.cfi_startproc
 3804              		@ args = 0, pretend = 0, frame = 0
 3805              		@ frame_needed = 0, uses_anonymous_args = 0
 3806              		@ link register save eliminated.
1229:u8g2_lib/u8g2_d_memory.c ****   #ifdef U8G2_USE_DYNAMIC_ALLOC
1230:u8g2_lib/u8g2_d_memory.c ****   *page_cnt = 1;
1231:u8g2_lib/u8g2_d_memory.c ****   return 0;
1232:u8g2_lib/u8g2_d_memory.c ****   #else
1233:u8g2_lib/u8g2_d_memory.c ****   static uint8_t buf[176];
 3807              		.loc 1 1233 3 view .LVU778
1234:u8g2_lib/u8g2_d_memory.c ****   *page_cnt = 1;
 3808              		.loc 1 1234 3 view .LVU779
 3809              		.loc 1 1234 13 is_stmt 0 view .LVU780
 3810 0000 0123     		movs	r3, #1
 3811 0002 0370     		strb	r3, [r0]
1235:u8g2_lib/u8g2_d_memory.c ****   return buf;
 3812              		.loc 1 1235 3 is_stmt 1 view .LVU781
1236:u8g2_lib/u8g2_d_memory.c ****   #endif
1237:u8g2_lib/u8g2_d_memory.c **** }
 3813              		.loc 1 1237 1 is_stmt 0 view .LVU782
 3814 0004 0048     		ldr	r0, .L335
 3815              	.LVL223:
 3816              		.loc 1 1237 1 view .LVU783
 3817 0006 7047     		bx	lr
 3818              	.L336:
 3819              		.align	2
 3820              	.L335:
 3821 0008 00000000 		.word	.LANCHOR105
 3822              		.cfi_endproc
 3823              	.LFE111:
 3825              		.section	.text.u8g2_m_22_9_2,"ax",%progbits
 3826              		.align	1
 3827              		.global	u8g2_m_22_9_2
 3828              		.syntax unified
 3829              		.thumb
 3830              		.thumb_func
 3831              		.fpu softvfp
 3833              	u8g2_m_22_9_2:
ARM GAS  C:\Users\GKQ\AppData\Local\Temp\ccTZzUR2.s 			page 86


 3834              	.LVL224:
 3835              	.LFB112:
1238:u8g2_lib/u8g2_d_memory.c **** uint8_t *u8g2_m_22_9_2(uint8_t *page_cnt)
1239:u8g2_lib/u8g2_d_memory.c **** {
 3836              		.loc 1 1239 1 is_stmt 1 view -0
 3837              		.cfi_startproc
 3838              		@ args = 0, pretend = 0, frame = 0
 3839              		@ frame_needed = 0, uses_anonymous_args = 0
 3840              		@ link register save eliminated.
1240:u8g2_lib/u8g2_d_memory.c ****   #ifdef U8G2_USE_DYNAMIC_ALLOC
1241:u8g2_lib/u8g2_d_memory.c ****   *page_cnt = 2;
1242:u8g2_lib/u8g2_d_memory.c ****   return 0;
1243:u8g2_lib/u8g2_d_memory.c ****   #else
1244:u8g2_lib/u8g2_d_memory.c ****   static uint8_t buf[352];
 3841              		.loc 1 1244 3 view .LVU785
1245:u8g2_lib/u8g2_d_memory.c ****   *page_cnt = 2;
 3842              		.loc 1 1245 3 view .LVU786
 3843              		.loc 1 1245 13 is_stmt 0 view .LVU787
 3844 0000 0223     		movs	r3, #2
 3845 0002 0370     		strb	r3, [r0]
1246:u8g2_lib/u8g2_d_memory.c ****   return buf;
 3846              		.loc 1 1246 3 is_stmt 1 view .LVU788
1247:u8g2_lib/u8g2_d_memory.c ****   #endif
1248:u8g2_lib/u8g2_d_memory.c **** }
 3847              		.loc 1 1248 1 is_stmt 0 view .LVU789
 3848 0004 0048     		ldr	r0, .L338
 3849              	.LVL225:
 3850              		.loc 1 1248 1 view .LVU790
 3851 0006 7047     		bx	lr
 3852              	.L339:
 3853              		.align	2
 3854              	.L338:
 3855 0008 00000000 		.word	.LANCHOR106
 3856              		.cfi_endproc
 3857              	.LFE112:
 3859              		.section	.text.u8g2_m_22_9_f,"ax",%progbits
 3860              		.align	1
 3861              		.global	u8g2_m_22_9_f
 3862              		.syntax unified
 3863              		.thumb
 3864              		.thumb_func
 3865              		.fpu softvfp
 3867              	u8g2_m_22_9_f:
 3868              	.LVL226:
 3869              	.LFB113:
1249:u8g2_lib/u8g2_d_memory.c **** uint8_t *u8g2_m_22_9_f(uint8_t *page_cnt)
1250:u8g2_lib/u8g2_d_memory.c **** {
 3870              		.loc 1 1250 1 is_stmt 1 view -0
 3871              		.cfi_startproc
 3872              		@ args = 0, pretend = 0, frame = 0
 3873              		@ frame_needed = 0, uses_anonymous_args = 0
 3874              		@ link register save eliminated.
1251:u8g2_lib/u8g2_d_memory.c ****   #ifdef U8G2_USE_DYNAMIC_ALLOC
1252:u8g2_lib/u8g2_d_memory.c ****   *page_cnt = 9;
1253:u8g2_lib/u8g2_d_memory.c ****   return 0;
1254:u8g2_lib/u8g2_d_memory.c ****   #else
1255:u8g2_lib/u8g2_d_memory.c ****   static uint8_t buf[1584];
ARM GAS  C:\Users\GKQ\AppData\Local\Temp\ccTZzUR2.s 			page 87


 3875              		.loc 1 1255 3 view .LVU792
1256:u8g2_lib/u8g2_d_memory.c ****   *page_cnt = 9;
 3876              		.loc 1 1256 3 view .LVU793
 3877              		.loc 1 1256 13 is_stmt 0 view .LVU794
 3878 0000 0923     		movs	r3, #9
 3879 0002 0370     		strb	r3, [r0]
1257:u8g2_lib/u8g2_d_memory.c ****   return buf;
 3880              		.loc 1 1257 3 is_stmt 1 view .LVU795
1258:u8g2_lib/u8g2_d_memory.c ****   #endif
1259:u8g2_lib/u8g2_d_memory.c **** }
 3881              		.loc 1 1259 1 is_stmt 0 view .LVU796
 3882 0004 0048     		ldr	r0, .L341
 3883              	.LVL227:
 3884              		.loc 1 1259 1 view .LVU797
 3885 0006 7047     		bx	lr
 3886              	.L342:
 3887              		.align	2
 3888              	.L341:
 3889 0008 00000000 		.word	.LANCHOR107
 3890              		.cfi_endproc
 3891              	.LFE113:
 3893              		.section	.text.u8g2_m_25_25_1,"ax",%progbits
 3894              		.align	1
 3895              		.global	u8g2_m_25_25_1
 3896              		.syntax unified
 3897              		.thumb
 3898              		.thumb_func
 3899              		.fpu softvfp
 3901              	u8g2_m_25_25_1:
 3902              	.LVL228:
 3903              	.LFB114:
1260:u8g2_lib/u8g2_d_memory.c **** uint8_t *u8g2_m_25_25_1(uint8_t *page_cnt)
1261:u8g2_lib/u8g2_d_memory.c **** {
 3904              		.loc 1 1261 1 is_stmt 1 view -0
 3905              		.cfi_startproc
 3906              		@ args = 0, pretend = 0, frame = 0
 3907              		@ frame_needed = 0, uses_anonymous_args = 0
 3908              		@ link register save eliminated.
1262:u8g2_lib/u8g2_d_memory.c ****   #ifdef U8G2_USE_DYNAMIC_ALLOC
1263:u8g2_lib/u8g2_d_memory.c ****   *page_cnt = 1;
1264:u8g2_lib/u8g2_d_memory.c ****   return 0;
1265:u8g2_lib/u8g2_d_memory.c ****   #else
1266:u8g2_lib/u8g2_d_memory.c ****   static uint8_t buf[200];
 3909              		.loc 1 1266 3 view .LVU799
1267:u8g2_lib/u8g2_d_memory.c ****   *page_cnt = 1;
 3910              		.loc 1 1267 3 view .LVU800
 3911              		.loc 1 1267 13 is_stmt 0 view .LVU801
 3912 0000 0123     		movs	r3, #1
 3913 0002 0370     		strb	r3, [r0]
1268:u8g2_lib/u8g2_d_memory.c ****   return buf;
 3914              		.loc 1 1268 3 is_stmt 1 view .LVU802
1269:u8g2_lib/u8g2_d_memory.c ****   #endif
1270:u8g2_lib/u8g2_d_memory.c **** }
 3915              		.loc 1 1270 1 is_stmt 0 view .LVU803
 3916 0004 0048     		ldr	r0, .L344
 3917              	.LVL229:
 3918              		.loc 1 1270 1 view .LVU804
ARM GAS  C:\Users\GKQ\AppData\Local\Temp\ccTZzUR2.s 			page 88


 3919 0006 7047     		bx	lr
 3920              	.L345:
 3921              		.align	2
 3922              	.L344:
 3923 0008 00000000 		.word	.LANCHOR108
 3924              		.cfi_endproc
 3925              	.LFE114:
 3927              		.section	.text.u8g2_m_25_25_2,"ax",%progbits
 3928              		.align	1
 3929              		.global	u8g2_m_25_25_2
 3930              		.syntax unified
 3931              		.thumb
 3932              		.thumb_func
 3933              		.fpu softvfp
 3935              	u8g2_m_25_25_2:
 3936              	.LVL230:
 3937              	.LFB115:
1271:u8g2_lib/u8g2_d_memory.c **** uint8_t *u8g2_m_25_25_2(uint8_t *page_cnt)
1272:u8g2_lib/u8g2_d_memory.c **** {
 3938              		.loc 1 1272 1 is_stmt 1 view -0
 3939              		.cfi_startproc
 3940              		@ args = 0, pretend = 0, frame = 0
 3941              		@ frame_needed = 0, uses_anonymous_args = 0
 3942              		@ link register save eliminated.
1273:u8g2_lib/u8g2_d_memory.c ****   #ifdef U8G2_USE_DYNAMIC_ALLOC
1274:u8g2_lib/u8g2_d_memory.c ****   *page_cnt = 2;
1275:u8g2_lib/u8g2_d_memory.c ****   return 0;
1276:u8g2_lib/u8g2_d_memory.c ****   #else
1277:u8g2_lib/u8g2_d_memory.c ****   static uint8_t buf[400];
 3943              		.loc 1 1277 3 view .LVU806
1278:u8g2_lib/u8g2_d_memory.c ****   *page_cnt = 2;
 3944              		.loc 1 1278 3 view .LVU807
 3945              		.loc 1 1278 13 is_stmt 0 view .LVU808
 3946 0000 0223     		movs	r3, #2
 3947 0002 0370     		strb	r3, [r0]
1279:u8g2_lib/u8g2_d_memory.c ****   return buf;
 3948              		.loc 1 1279 3 is_stmt 1 view .LVU809
1280:u8g2_lib/u8g2_d_memory.c ****   #endif
1281:u8g2_lib/u8g2_d_memory.c **** }
 3949              		.loc 1 1281 1 is_stmt 0 view .LVU810
 3950 0004 0048     		ldr	r0, .L347
 3951              	.LVL231:
 3952              		.loc 1 1281 1 view .LVU811
 3953 0006 7047     		bx	lr
 3954              	.L348:
 3955              		.align	2
 3956              	.L347:
 3957 0008 00000000 		.word	.LANCHOR109
 3958              		.cfi_endproc
 3959              	.LFE115:
 3961              		.section	.text.u8g2_m_25_25_f,"ax",%progbits
 3962              		.align	1
 3963              		.global	u8g2_m_25_25_f
 3964              		.syntax unified
 3965              		.thumb
 3966              		.thumb_func
 3967              		.fpu softvfp
ARM GAS  C:\Users\GKQ\AppData\Local\Temp\ccTZzUR2.s 			page 89


 3969              	u8g2_m_25_25_f:
 3970              	.LVL232:
 3971              	.LFB116:
1282:u8g2_lib/u8g2_d_memory.c **** uint8_t *u8g2_m_25_25_f(uint8_t *page_cnt)
1283:u8g2_lib/u8g2_d_memory.c **** {
 3972              		.loc 1 1283 1 is_stmt 1 view -0
 3973              		.cfi_startproc
 3974              		@ args = 0, pretend = 0, frame = 0
 3975              		@ frame_needed = 0, uses_anonymous_args = 0
 3976              		@ link register save eliminated.
1284:u8g2_lib/u8g2_d_memory.c ****   #ifdef U8G2_USE_DYNAMIC_ALLOC
1285:u8g2_lib/u8g2_d_memory.c ****   *page_cnt = 25;
1286:u8g2_lib/u8g2_d_memory.c ****   return 0;
1287:u8g2_lib/u8g2_d_memory.c ****   #else
1288:u8g2_lib/u8g2_d_memory.c ****   static uint8_t buf[5000];
 3977              		.loc 1 1288 3 view .LVU813
1289:u8g2_lib/u8g2_d_memory.c ****   *page_cnt = 25;
 3978              		.loc 1 1289 3 view .LVU814
 3979              		.loc 1 1289 13 is_stmt 0 view .LVU815
 3980 0000 1923     		movs	r3, #25
 3981 0002 0370     		strb	r3, [r0]
1290:u8g2_lib/u8g2_d_memory.c ****   return buf;
 3982              		.loc 1 1290 3 is_stmt 1 view .LVU816
1291:u8g2_lib/u8g2_d_memory.c ****   #endif
1292:u8g2_lib/u8g2_d_memory.c **** }
 3983              		.loc 1 1292 1 is_stmt 0 view .LVU817
 3984 0004 0048     		ldr	r0, .L350
 3985              	.LVL233:
 3986              		.loc 1 1292 1 view .LVU818
 3987 0006 7047     		bx	lr
 3988              	.L351:
 3989              		.align	2
 3990              	.L350:
 3991 0008 00000000 		.word	buf.11485
 3992              		.cfi_endproc
 3993              	.LFE116:
 3995              		.section	.text.u8g2_m_37_16_1,"ax",%progbits
 3996              		.align	1
 3997              		.global	u8g2_m_37_16_1
 3998              		.syntax unified
 3999              		.thumb
 4000              		.thumb_func
 4001              		.fpu softvfp
 4003              	u8g2_m_37_16_1:
 4004              	.LVL234:
 4005              	.LFB117:
1293:u8g2_lib/u8g2_d_memory.c **** uint8_t *u8g2_m_37_16_1(uint8_t *page_cnt)
1294:u8g2_lib/u8g2_d_memory.c **** {
 4006              		.loc 1 1294 1 is_stmt 1 view -0
 4007              		.cfi_startproc
 4008              		@ args = 0, pretend = 0, frame = 0
 4009              		@ frame_needed = 0, uses_anonymous_args = 0
 4010              		@ link register save eliminated.
1295:u8g2_lib/u8g2_d_memory.c ****   #ifdef U8G2_USE_DYNAMIC_ALLOC
1296:u8g2_lib/u8g2_d_memory.c ****   *page_cnt = 1;
1297:u8g2_lib/u8g2_d_memory.c ****   return 0;
1298:u8g2_lib/u8g2_d_memory.c ****   #else
ARM GAS  C:\Users\GKQ\AppData\Local\Temp\ccTZzUR2.s 			page 90


1299:u8g2_lib/u8g2_d_memory.c ****   static uint8_t buf[296];
 4011              		.loc 1 1299 3 view .LVU820
1300:u8g2_lib/u8g2_d_memory.c ****   *page_cnt = 1;
 4012              		.loc 1 1300 3 view .LVU821
 4013              		.loc 1 1300 13 is_stmt 0 view .LVU822
 4014 0000 0123     		movs	r3, #1
 4015 0002 0370     		strb	r3, [r0]
1301:u8g2_lib/u8g2_d_memory.c ****   return buf;
 4016              		.loc 1 1301 3 is_stmt 1 view .LVU823
1302:u8g2_lib/u8g2_d_memory.c ****   #endif
1303:u8g2_lib/u8g2_d_memory.c **** }
 4017              		.loc 1 1303 1 is_stmt 0 view .LVU824
 4018 0004 0048     		ldr	r0, .L353
 4019              	.LVL235:
 4020              		.loc 1 1303 1 view .LVU825
 4021 0006 7047     		bx	lr
 4022              	.L354:
 4023              		.align	2
 4024              	.L353:
 4025 0008 00000000 		.word	.LANCHOR110
 4026              		.cfi_endproc
 4027              	.LFE117:
 4029              		.section	.text.u8g2_m_37_16_2,"ax",%progbits
 4030              		.align	1
 4031              		.global	u8g2_m_37_16_2
 4032              		.syntax unified
 4033              		.thumb
 4034              		.thumb_func
 4035              		.fpu softvfp
 4037              	u8g2_m_37_16_2:
 4038              	.LVL236:
 4039              	.LFB118:
1304:u8g2_lib/u8g2_d_memory.c **** uint8_t *u8g2_m_37_16_2(uint8_t *page_cnt)
1305:u8g2_lib/u8g2_d_memory.c **** {
 4040              		.loc 1 1305 1 is_stmt 1 view -0
 4041              		.cfi_startproc
 4042              		@ args = 0, pretend = 0, frame = 0
 4043              		@ frame_needed = 0, uses_anonymous_args = 0
 4044              		@ link register save eliminated.
1306:u8g2_lib/u8g2_d_memory.c ****   #ifdef U8G2_USE_DYNAMIC_ALLOC
1307:u8g2_lib/u8g2_d_memory.c ****   *page_cnt = 2;
1308:u8g2_lib/u8g2_d_memory.c ****   return 0;
1309:u8g2_lib/u8g2_d_memory.c ****   #else
1310:u8g2_lib/u8g2_d_memory.c ****   static uint8_t buf[592];
 4045              		.loc 1 1310 3 view .LVU827
1311:u8g2_lib/u8g2_d_memory.c ****   *page_cnt = 2;
 4046              		.loc 1 1311 3 view .LVU828
 4047              		.loc 1 1311 13 is_stmt 0 view .LVU829
 4048 0000 0223     		movs	r3, #2
 4049 0002 0370     		strb	r3, [r0]
1312:u8g2_lib/u8g2_d_memory.c ****   return buf;
 4050              		.loc 1 1312 3 is_stmt 1 view .LVU830
1313:u8g2_lib/u8g2_d_memory.c ****   #endif
1314:u8g2_lib/u8g2_d_memory.c **** }
 4051              		.loc 1 1314 1 is_stmt 0 view .LVU831
 4052 0004 0048     		ldr	r0, .L356
 4053              	.LVL237:
ARM GAS  C:\Users\GKQ\AppData\Local\Temp\ccTZzUR2.s 			page 91


 4054              		.loc 1 1314 1 view .LVU832
 4055 0006 7047     		bx	lr
 4056              	.L357:
 4057              		.align	2
 4058              	.L356:
 4059 0008 00000000 		.word	.LANCHOR111
 4060              		.cfi_endproc
 4061              	.LFE118:
 4063              		.section	.text.u8g2_m_37_16_f,"ax",%progbits
 4064              		.align	1
 4065              		.global	u8g2_m_37_16_f
 4066              		.syntax unified
 4067              		.thumb
 4068              		.thumb_func
 4069              		.fpu softvfp
 4071              	u8g2_m_37_16_f:
 4072              	.LVL238:
 4073              	.LFB119:
1315:u8g2_lib/u8g2_d_memory.c **** uint8_t *u8g2_m_37_16_f(uint8_t *page_cnt)
1316:u8g2_lib/u8g2_d_memory.c **** {
 4074              		.loc 1 1316 1 is_stmt 1 view -0
 4075              		.cfi_startproc
 4076              		@ args = 0, pretend = 0, frame = 0
 4077              		@ frame_needed = 0, uses_anonymous_args = 0
 4078              		@ link register save eliminated.
1317:u8g2_lib/u8g2_d_memory.c ****   #ifdef U8G2_USE_DYNAMIC_ALLOC
1318:u8g2_lib/u8g2_d_memory.c ****   *page_cnt = 16;
1319:u8g2_lib/u8g2_d_memory.c ****   return 0;
1320:u8g2_lib/u8g2_d_memory.c ****   #else
1321:u8g2_lib/u8g2_d_memory.c ****   static uint8_t buf[4736];
 4079              		.loc 1 1321 3 view .LVU834
1322:u8g2_lib/u8g2_d_memory.c ****   *page_cnt = 16;
 4080              		.loc 1 1322 3 view .LVU835
 4081              		.loc 1 1322 13 is_stmt 0 view .LVU836
 4082 0000 1023     		movs	r3, #16
 4083 0002 0370     		strb	r3, [r0]
1323:u8g2_lib/u8g2_d_memory.c ****   return buf;
 4084              		.loc 1 1323 3 is_stmt 1 view .LVU837
1324:u8g2_lib/u8g2_d_memory.c ****   #endif
1325:u8g2_lib/u8g2_d_memory.c **** }
 4085              		.loc 1 1325 1 is_stmt 0 view .LVU838
 4086 0004 0048     		ldr	r0, .L359
 4087              	.LVL239:
 4088              		.loc 1 1325 1 view .LVU839
 4089 0006 7047     		bx	lr
 4090              	.L360:
 4091              		.align	2
 4092              	.L359:
 4093 0008 00000000 		.word	buf.11497
 4094              		.cfi_endproc
 4095              	.LFE119:
 4097              		.section	.text.u8g2_m_8_1_1,"ax",%progbits
 4098              		.align	1
 4099              		.global	u8g2_m_8_1_1
 4100              		.syntax unified
 4101              		.thumb
 4102              		.thumb_func
ARM GAS  C:\Users\GKQ\AppData\Local\Temp\ccTZzUR2.s 			page 92


 4103              		.fpu softvfp
 4105              	u8g2_m_8_1_1:
 4106              	.LVL240:
 4107              	.LFB120:
1326:u8g2_lib/u8g2_d_memory.c **** uint8_t *u8g2_m_8_1_1(uint8_t *page_cnt)
1327:u8g2_lib/u8g2_d_memory.c **** {
 4108              		.loc 1 1327 1 is_stmt 1 view -0
 4109              		.cfi_startproc
 4110              		@ args = 0, pretend = 0, frame = 0
 4111              		@ frame_needed = 0, uses_anonymous_args = 0
 4112              		@ link register save eliminated.
1328:u8g2_lib/u8g2_d_memory.c ****   #ifdef U8G2_USE_DYNAMIC_ALLOC
1329:u8g2_lib/u8g2_d_memory.c ****   *page_cnt = 1;
1330:u8g2_lib/u8g2_d_memory.c ****   return 0;
1331:u8g2_lib/u8g2_d_memory.c ****   #else
1332:u8g2_lib/u8g2_d_memory.c ****   static uint8_t buf[64];
 4113              		.loc 1 1332 3 view .LVU841
1333:u8g2_lib/u8g2_d_memory.c ****   *page_cnt = 1;
 4114              		.loc 1 1333 3 view .LVU842
 4115              		.loc 1 1333 13 is_stmt 0 view .LVU843
 4116 0000 0123     		movs	r3, #1
 4117 0002 0370     		strb	r3, [r0]
1334:u8g2_lib/u8g2_d_memory.c ****   return buf;
 4118              		.loc 1 1334 3 is_stmt 1 view .LVU844
1335:u8g2_lib/u8g2_d_memory.c ****   #endif
1336:u8g2_lib/u8g2_d_memory.c **** }
 4119              		.loc 1 1336 1 is_stmt 0 view .LVU845
 4120 0004 0048     		ldr	r0, .L362
 4121              	.LVL241:
 4122              		.loc 1 1336 1 view .LVU846
 4123 0006 7047     		bx	lr
 4124              	.L363:
 4125              		.align	2
 4126              	.L362:
 4127 0008 00000000 		.word	.LANCHOR112
 4128              		.cfi_endproc
 4129              	.LFE120:
 4131              		.section	.text.u8g2_m_8_1_2,"ax",%progbits
 4132              		.align	1
 4133              		.global	u8g2_m_8_1_2
 4134              		.syntax unified
 4135              		.thumb
 4136              		.thumb_func
 4137              		.fpu softvfp
 4139              	u8g2_m_8_1_2:
 4140              	.LVL242:
 4141              	.LFB121:
1337:u8g2_lib/u8g2_d_memory.c **** uint8_t *u8g2_m_8_1_2(uint8_t *page_cnt)
1338:u8g2_lib/u8g2_d_memory.c **** {
 4142              		.loc 1 1338 1 is_stmt 1 view -0
 4143              		.cfi_startproc
 4144              		@ args = 0, pretend = 0, frame = 0
 4145              		@ frame_needed = 0, uses_anonymous_args = 0
 4146              		@ link register save eliminated.
1339:u8g2_lib/u8g2_d_memory.c ****   #ifdef U8G2_USE_DYNAMIC_ALLOC
1340:u8g2_lib/u8g2_d_memory.c ****   *page_cnt = 2;
1341:u8g2_lib/u8g2_d_memory.c ****   return 0;
ARM GAS  C:\Users\GKQ\AppData\Local\Temp\ccTZzUR2.s 			page 93


1342:u8g2_lib/u8g2_d_memory.c ****   #else
1343:u8g2_lib/u8g2_d_memory.c ****   static uint8_t buf[128];
 4147              		.loc 1 1343 3 view .LVU848
1344:u8g2_lib/u8g2_d_memory.c ****   *page_cnt = 2;
 4148              		.loc 1 1344 3 view .LVU849
 4149              		.loc 1 1344 13 is_stmt 0 view .LVU850
 4150 0000 0223     		movs	r3, #2
 4151 0002 0370     		strb	r3, [r0]
1345:u8g2_lib/u8g2_d_memory.c ****   return buf;
 4152              		.loc 1 1345 3 is_stmt 1 view .LVU851
1346:u8g2_lib/u8g2_d_memory.c ****   #endif
1347:u8g2_lib/u8g2_d_memory.c **** }
 4153              		.loc 1 1347 1 is_stmt 0 view .LVU852
 4154 0004 0048     		ldr	r0, .L365
 4155              	.LVL243:
 4156              		.loc 1 1347 1 view .LVU853
 4157 0006 7047     		bx	lr
 4158              	.L366:
 4159              		.align	2
 4160              	.L365:
 4161 0008 00000000 		.word	.LANCHOR113
 4162              		.cfi_endproc
 4163              	.LFE121:
 4165              		.section	.text.u8g2_m_8_1_f,"ax",%progbits
 4166              		.align	1
 4167              		.global	u8g2_m_8_1_f
 4168              		.syntax unified
 4169              		.thumb
 4170              		.thumb_func
 4171              		.fpu softvfp
 4173              	u8g2_m_8_1_f:
 4174              	.LVL244:
 4175              	.LFB122:
1348:u8g2_lib/u8g2_d_memory.c **** uint8_t *u8g2_m_8_1_f(uint8_t *page_cnt)
1349:u8g2_lib/u8g2_d_memory.c **** {
 4176              		.loc 1 1349 1 is_stmt 1 view -0
 4177              		.cfi_startproc
 4178              		@ args = 0, pretend = 0, frame = 0
 4179              		@ frame_needed = 0, uses_anonymous_args = 0
 4180              		@ link register save eliminated.
1350:u8g2_lib/u8g2_d_memory.c ****   #ifdef U8G2_USE_DYNAMIC_ALLOC
1351:u8g2_lib/u8g2_d_memory.c ****   *page_cnt = 1;
1352:u8g2_lib/u8g2_d_memory.c ****   return 0;
1353:u8g2_lib/u8g2_d_memory.c ****   #else
1354:u8g2_lib/u8g2_d_memory.c ****   static uint8_t buf[64];
 4181              		.loc 1 1354 3 view .LVU855
1355:u8g2_lib/u8g2_d_memory.c ****   *page_cnt = 1;
 4182              		.loc 1 1355 3 view .LVU856
 4183              		.loc 1 1355 13 is_stmt 0 view .LVU857
 4184 0000 0123     		movs	r3, #1
 4185 0002 0370     		strb	r3, [r0]
1356:u8g2_lib/u8g2_d_memory.c ****   return buf;
 4186              		.loc 1 1356 3 is_stmt 1 view .LVU858
1357:u8g2_lib/u8g2_d_memory.c ****   #endif
1358:u8g2_lib/u8g2_d_memory.c **** }
 4187              		.loc 1 1358 1 is_stmt 0 view .LVU859
 4188 0004 0048     		ldr	r0, .L368
ARM GAS  C:\Users\GKQ\AppData\Local\Temp\ccTZzUR2.s 			page 94


 4189              	.LVL245:
 4190              		.loc 1 1358 1 view .LVU860
 4191 0006 7047     		bx	lr
 4192              	.L369:
 4193              		.align	2
 4194              	.L368:
 4195 0008 00000000 		.word	.LANCHOR114
 4196              		.cfi_endproc
 4197              	.LFE122:
 4199              		.section	.text.u8g2_m_4_1_1,"ax",%progbits
 4200              		.align	1
 4201              		.global	u8g2_m_4_1_1
 4202              		.syntax unified
 4203              		.thumb
 4204              		.thumb_func
 4205              		.fpu softvfp
 4207              	u8g2_m_4_1_1:
 4208              	.LVL246:
 4209              	.LFB123:
1359:u8g2_lib/u8g2_d_memory.c **** uint8_t *u8g2_m_4_1_1(uint8_t *page_cnt)
1360:u8g2_lib/u8g2_d_memory.c **** {
 4210              		.loc 1 1360 1 is_stmt 1 view -0
 4211              		.cfi_startproc
 4212              		@ args = 0, pretend = 0, frame = 0
 4213              		@ frame_needed = 0, uses_anonymous_args = 0
 4214              		@ link register save eliminated.
1361:u8g2_lib/u8g2_d_memory.c ****   #ifdef U8G2_USE_DYNAMIC_ALLOC
1362:u8g2_lib/u8g2_d_memory.c ****   *page_cnt = 1;
1363:u8g2_lib/u8g2_d_memory.c ****   return 0;
1364:u8g2_lib/u8g2_d_memory.c ****   #else
1365:u8g2_lib/u8g2_d_memory.c ****   static uint8_t buf[32];
 4215              		.loc 1 1365 3 view .LVU862
1366:u8g2_lib/u8g2_d_memory.c ****   *page_cnt = 1;
 4216              		.loc 1 1366 3 view .LVU863
 4217              		.loc 1 1366 13 is_stmt 0 view .LVU864
 4218 0000 0123     		movs	r3, #1
 4219 0002 0370     		strb	r3, [r0]
1367:u8g2_lib/u8g2_d_memory.c ****   return buf;
 4220              		.loc 1 1367 3 is_stmt 1 view .LVU865
1368:u8g2_lib/u8g2_d_memory.c ****   #endif
1369:u8g2_lib/u8g2_d_memory.c **** }
 4221              		.loc 1 1369 1 is_stmt 0 view .LVU866
 4222 0004 0048     		ldr	r0, .L371
 4223              	.LVL247:
 4224              		.loc 1 1369 1 view .LVU867
 4225 0006 7047     		bx	lr
 4226              	.L372:
 4227              		.align	2
 4228              	.L371:
 4229 0008 00000000 		.word	.LANCHOR115
 4230              		.cfi_endproc
 4231              	.LFE123:
 4233              		.section	.text.u8g2_m_4_1_2,"ax",%progbits
 4234              		.align	1
 4235              		.global	u8g2_m_4_1_2
 4236              		.syntax unified
 4237              		.thumb
ARM GAS  C:\Users\GKQ\AppData\Local\Temp\ccTZzUR2.s 			page 95


 4238              		.thumb_func
 4239              		.fpu softvfp
 4241              	u8g2_m_4_1_2:
 4242              	.LVL248:
 4243              	.LFB124:
1370:u8g2_lib/u8g2_d_memory.c **** uint8_t *u8g2_m_4_1_2(uint8_t *page_cnt)
1371:u8g2_lib/u8g2_d_memory.c **** {
 4244              		.loc 1 1371 1 is_stmt 1 view -0
 4245              		.cfi_startproc
 4246              		@ args = 0, pretend = 0, frame = 0
 4247              		@ frame_needed = 0, uses_anonymous_args = 0
 4248              		@ link register save eliminated.
1372:u8g2_lib/u8g2_d_memory.c ****   #ifdef U8G2_USE_DYNAMIC_ALLOC
1373:u8g2_lib/u8g2_d_memory.c ****   *page_cnt = 2;
1374:u8g2_lib/u8g2_d_memory.c ****   return 0;
1375:u8g2_lib/u8g2_d_memory.c ****   #else
1376:u8g2_lib/u8g2_d_memory.c ****   static uint8_t buf[64];
 4249              		.loc 1 1376 3 view .LVU869
1377:u8g2_lib/u8g2_d_memory.c ****   *page_cnt = 2;
 4250              		.loc 1 1377 3 view .LVU870
 4251              		.loc 1 1377 13 is_stmt 0 view .LVU871
 4252 0000 0223     		movs	r3, #2
 4253 0002 0370     		strb	r3, [r0]
1378:u8g2_lib/u8g2_d_memory.c ****   return buf;
 4254              		.loc 1 1378 3 is_stmt 1 view .LVU872
1379:u8g2_lib/u8g2_d_memory.c ****   #endif
1380:u8g2_lib/u8g2_d_memory.c **** }
 4255              		.loc 1 1380 1 is_stmt 0 view .LVU873
 4256 0004 0048     		ldr	r0, .L374
 4257              	.LVL249:
 4258              		.loc 1 1380 1 view .LVU874
 4259 0006 7047     		bx	lr
 4260              	.L375:
 4261              		.align	2
 4262              	.L374:
 4263 0008 00000000 		.word	.LANCHOR116
 4264              		.cfi_endproc
 4265              	.LFE124:
 4267              		.section	.text.u8g2_m_4_1_f,"ax",%progbits
 4268              		.align	1
 4269              		.global	u8g2_m_4_1_f
 4270              		.syntax unified
 4271              		.thumb
 4272              		.thumb_func
 4273              		.fpu softvfp
 4275              	u8g2_m_4_1_f:
 4276              	.LVL250:
 4277              	.LFB125:
1381:u8g2_lib/u8g2_d_memory.c **** uint8_t *u8g2_m_4_1_f(uint8_t *page_cnt)
1382:u8g2_lib/u8g2_d_memory.c **** {
 4278              		.loc 1 1382 1 is_stmt 1 view -0
 4279              		.cfi_startproc
 4280              		@ args = 0, pretend = 0, frame = 0
 4281              		@ frame_needed = 0, uses_anonymous_args = 0
 4282              		@ link register save eliminated.
1383:u8g2_lib/u8g2_d_memory.c ****   #ifdef U8G2_USE_DYNAMIC_ALLOC
1384:u8g2_lib/u8g2_d_memory.c ****   *page_cnt = 1;
ARM GAS  C:\Users\GKQ\AppData\Local\Temp\ccTZzUR2.s 			page 96


1385:u8g2_lib/u8g2_d_memory.c ****   return 0;
1386:u8g2_lib/u8g2_d_memory.c ****   #else
1387:u8g2_lib/u8g2_d_memory.c ****   static uint8_t buf[32];
 4283              		.loc 1 1387 3 view .LVU876
1388:u8g2_lib/u8g2_d_memory.c ****   *page_cnt = 1;
 4284              		.loc 1 1388 3 view .LVU877
 4285              		.loc 1 1388 13 is_stmt 0 view .LVU878
 4286 0000 0123     		movs	r3, #1
 4287 0002 0370     		strb	r3, [r0]
1389:u8g2_lib/u8g2_d_memory.c ****   return buf;
 4288              		.loc 1 1389 3 is_stmt 1 view .LVU879
1390:u8g2_lib/u8g2_d_memory.c ****   #endif
1391:u8g2_lib/u8g2_d_memory.c **** }
 4289              		.loc 1 1391 1 is_stmt 0 view .LVU880
 4290 0004 0048     		ldr	r0, .L377
 4291              	.LVL251:
 4292              		.loc 1 1391 1 view .LVU881
 4293 0006 7047     		bx	lr
 4294              	.L378:
 4295              		.align	2
 4296              	.L377:
 4297 0008 00000000 		.word	.LANCHOR117
 4298              		.cfi_endproc
 4299              	.LFE125:
 4301              		.section	.text.u8g2_m_1_1_1,"ax",%progbits
 4302              		.align	1
 4303              		.global	u8g2_m_1_1_1
 4304              		.syntax unified
 4305              		.thumb
 4306              		.thumb_func
 4307              		.fpu softvfp
 4309              	u8g2_m_1_1_1:
 4310              	.LVL252:
 4311              	.LFB126:
1392:u8g2_lib/u8g2_d_memory.c **** uint8_t *u8g2_m_1_1_1(uint8_t *page_cnt)
1393:u8g2_lib/u8g2_d_memory.c **** {
 4312              		.loc 1 1393 1 is_stmt 1 view -0
 4313              		.cfi_startproc
 4314              		@ args = 0, pretend = 0, frame = 0
 4315              		@ frame_needed = 0, uses_anonymous_args = 0
 4316              		@ link register save eliminated.
1394:u8g2_lib/u8g2_d_memory.c ****   #ifdef U8G2_USE_DYNAMIC_ALLOC
1395:u8g2_lib/u8g2_d_memory.c ****   *page_cnt = 1;
1396:u8g2_lib/u8g2_d_memory.c ****   return 0;
1397:u8g2_lib/u8g2_d_memory.c ****   #else
1398:u8g2_lib/u8g2_d_memory.c ****   static uint8_t buf[8];
 4317              		.loc 1 1398 3 view .LVU883
1399:u8g2_lib/u8g2_d_memory.c ****   *page_cnt = 1;
 4318              		.loc 1 1399 3 view .LVU884
 4319              		.loc 1 1399 13 is_stmt 0 view .LVU885
 4320 0000 0123     		movs	r3, #1
 4321 0002 0370     		strb	r3, [r0]
1400:u8g2_lib/u8g2_d_memory.c ****   return buf;
 4322              		.loc 1 1400 3 is_stmt 1 view .LVU886
1401:u8g2_lib/u8g2_d_memory.c ****   #endif
1402:u8g2_lib/u8g2_d_memory.c **** }
 4323              		.loc 1 1402 1 is_stmt 0 view .LVU887
ARM GAS  C:\Users\GKQ\AppData\Local\Temp\ccTZzUR2.s 			page 97


 4324 0004 0048     		ldr	r0, .L380
 4325              	.LVL253:
 4326              		.loc 1 1402 1 view .LVU888
 4327 0006 7047     		bx	lr
 4328              	.L381:
 4329              		.align	2
 4330              	.L380:
 4331 0008 00000000 		.word	.LANCHOR118
 4332              		.cfi_endproc
 4333              	.LFE126:
 4335              		.section	.text.u8g2_m_1_1_2,"ax",%progbits
 4336              		.align	1
 4337              		.global	u8g2_m_1_1_2
 4338              		.syntax unified
 4339              		.thumb
 4340              		.thumb_func
 4341              		.fpu softvfp
 4343              	u8g2_m_1_1_2:
 4344              	.LVL254:
 4345              	.LFB127:
1403:u8g2_lib/u8g2_d_memory.c **** uint8_t *u8g2_m_1_1_2(uint8_t *page_cnt)
1404:u8g2_lib/u8g2_d_memory.c **** {
 4346              		.loc 1 1404 1 is_stmt 1 view -0
 4347              		.cfi_startproc
 4348              		@ args = 0, pretend = 0, frame = 0
 4349              		@ frame_needed = 0, uses_anonymous_args = 0
 4350              		@ link register save eliminated.
1405:u8g2_lib/u8g2_d_memory.c ****   #ifdef U8G2_USE_DYNAMIC_ALLOC
1406:u8g2_lib/u8g2_d_memory.c ****   *page_cnt = 2;
1407:u8g2_lib/u8g2_d_memory.c ****   return 0;
1408:u8g2_lib/u8g2_d_memory.c ****   #else
1409:u8g2_lib/u8g2_d_memory.c ****   static uint8_t buf[16];
 4351              		.loc 1 1409 3 view .LVU890
1410:u8g2_lib/u8g2_d_memory.c ****   *page_cnt = 2;
 4352              		.loc 1 1410 3 view .LVU891
 4353              		.loc 1 1410 13 is_stmt 0 view .LVU892
 4354 0000 0223     		movs	r3, #2
 4355 0002 0370     		strb	r3, [r0]
1411:u8g2_lib/u8g2_d_memory.c ****   return buf;
 4356              		.loc 1 1411 3 is_stmt 1 view .LVU893
1412:u8g2_lib/u8g2_d_memory.c ****   #endif
1413:u8g2_lib/u8g2_d_memory.c **** }
 4357              		.loc 1 1413 1 is_stmt 0 view .LVU894
 4358 0004 0048     		ldr	r0, .L383
 4359              	.LVL255:
 4360              		.loc 1 1413 1 view .LVU895
 4361 0006 7047     		bx	lr
 4362              	.L384:
 4363              		.align	2
 4364              	.L383:
 4365 0008 00000000 		.word	.LANCHOR119
 4366              		.cfi_endproc
 4367              	.LFE127:
 4369              		.section	.text.u8g2_m_1_1_f,"ax",%progbits
 4370              		.align	1
 4371              		.global	u8g2_m_1_1_f
 4372              		.syntax unified
ARM GAS  C:\Users\GKQ\AppData\Local\Temp\ccTZzUR2.s 			page 98


 4373              		.thumb
 4374              		.thumb_func
 4375              		.fpu softvfp
 4377              	u8g2_m_1_1_f:
 4378              	.LVL256:
 4379              	.LFB128:
