ARM GAS  C:\Users\GKQ\AppData\Local\Temp\cc9NndQv.s 			page 1


   1              		.cpu cortex-m3
   2              		.eabi_attribute 20, 1
   3              		.eabi_attribute 21, 1
   4              		.eabi_attribute 23, 3
   5              		.eabi_attribute 24, 1
   6              		.eabi_attribute 25, 1
   7              		.eabi_attribute 26, 1
   8              		.eabi_attribute 30, 1
   9              		.eabi_attribute 34, 1
  10              		.eabi_attribute 18, 4
  11              		.file	"u8log_u8g2.c"
  12              		.text
  13              	.Ltext0:
  14              		.cfi_sections	.debug_frame
  15              		.section	.text.u8g2_DrawLog,"ax",%progbits
  16              		.align	1
  17              		.global	u8g2_DrawLog
  18              		.arch armv7-m
  19              		.syntax unified
  20              		.thumb
  21              		.thumb_func
  22              		.fpu softvfp
  24              	u8g2_DrawLog:
  25              	.LVL0:
  26              	.LFB0:
  27              		.file 1 "u8g2_lib/u8log_u8g2.c"
   1:u8g2_lib/u8log_u8g2.c **** /*
   2:u8g2_lib/u8log_u8g2.c **** 
   3:u8g2_lib/u8log_u8g2.c ****   u8log_u8g2.c
   4:u8g2_lib/u8log_u8g2.c ****   
   5:u8g2_lib/u8log_u8g2.c **** 
   6:u8g2_lib/u8log_u8g2.c ****   Universal 8bit Graphics Library (https://github.com/olikraus/u8g2/)
   7:u8g2_lib/u8log_u8g2.c **** 
   8:u8g2_lib/u8log_u8g2.c ****   Copyright (c) 2018, olikraus@gmail.com
   9:u8g2_lib/u8log_u8g2.c ****   All rights reserved.
  10:u8g2_lib/u8log_u8g2.c **** 
  11:u8g2_lib/u8log_u8g2.c ****   Redistribution and use in source and binary forms, with or without modification, 
  12:u8g2_lib/u8log_u8g2.c ****   are permitted provided that the following conditions are met:
  13:u8g2_lib/u8log_u8g2.c **** 
  14:u8g2_lib/u8log_u8g2.c ****   * Redistributions of source code must retain the above copyright notice, this list 
  15:u8g2_lib/u8log_u8g2.c ****     of conditions and the following disclaimer.
  16:u8g2_lib/u8log_u8g2.c ****     
  17:u8g2_lib/u8log_u8g2.c ****   * Redistributions in binary form must reproduce the above copyright notice, this 
  18:u8g2_lib/u8log_u8g2.c ****     list of conditions and the following disclaimer in the documentation and/or other 
  19:u8g2_lib/u8log_u8g2.c ****     materials provided with the distribution.
  20:u8g2_lib/u8log_u8g2.c **** 
  21:u8g2_lib/u8log_u8g2.c ****   THIS SOFTWARE IS PROVIDED BY THE COPYRIGHT HOLDERS AND 
  22:u8g2_lib/u8log_u8g2.c ****   CONTRIBUTORS "AS IS" AND ANY EXPRESS OR IMPLIED WARRANTIES, 
  23:u8g2_lib/u8log_u8g2.c ****   INCLUDING, BUT NOT LIMITED TO, THE IMPLIED WARRANTIES OF 
  24:u8g2_lib/u8log_u8g2.c ****   MERCHANTABILITY AND FITNESS FOR A PARTICULAR PURPOSE ARE 
  25:u8g2_lib/u8log_u8g2.c ****   DISCLAIMED. IN NO EVENT SHALL THE COPYRIGHT HOLDER OR 
  26:u8g2_lib/u8log_u8g2.c ****   CONTRIBUTORS BE LIABLE FOR ANY DIRECT, INDIRECT, INCIDENTAL, 
  27:u8g2_lib/u8log_u8g2.c ****   SPECIAL, EXEMPLARY, OR CONSEQUENTIAL DAMAGES (INCLUDING, BUT 
  28:u8g2_lib/u8log_u8g2.c ****   NOT LIMITED TO, PROCUREMENT OF SUBSTITUTE GOODS OR SERVICES; 
  29:u8g2_lib/u8log_u8g2.c ****   LOSS OF USE, DATA, OR PROFITS; OR BUSINESS INTERRUPTION) HOWEVER 
  30:u8g2_lib/u8log_u8g2.c ****   CAUSED AND ON ANY THEORY OF LIABILITY, WHETHER IN CONTRACT, 
  31:u8g2_lib/u8log_u8g2.c ****   STRICT LIABILITY, OR TORT (INCLUDING NEGLIGENCE OR OTHERWISE) 
ARM GAS  C:\Users\GKQ\AppData\Local\Temp\cc9NndQv.s 			page 2


  32:u8g2_lib/u8log_u8g2.c ****   ARISING IN ANY WAY OUT OF THE USE OF THIS SOFTWARE, EVEN IF 
  33:u8g2_lib/u8log_u8g2.c ****   ADVISED OF THE POSSIBILITY OF SUCH DAMAGE.  
  34:u8g2_lib/u8log_u8g2.c **** 
  35:u8g2_lib/u8log_u8g2.c **** */
  36:u8g2_lib/u8log_u8g2.c **** 
  37:u8g2_lib/u8log_u8g2.c **** #include "u8g2.h"
  38:u8g2_lib/u8log_u8g2.c **** /*
  39:u8g2_lib/u8log_u8g2.c ****   Draw the u8log text at the specified x/y position.
  40:u8g2_lib/u8log_u8g2.c ****   x/y position is the reference position of the first char of the first line.
  41:u8g2_lib/u8log_u8g2.c ****   the line height is 
  42:u8g2_lib/u8log_u8g2.c ****     u8g2_GetAscent(u8g2) - u8g2_GetDescent(u8g2) + line_height_offset;
  43:u8g2_lib/u8log_u8g2.c ****   line_height_offset can be set with u8log_SetLineHeightOffset()
  44:u8g2_lib/u8log_u8g2.c ****   Use
  45:u8g2_lib/u8log_u8g2.c ****     u8g2_SetFontRefHeightText(u8g2_t *u8g2);
  46:u8g2_lib/u8log_u8g2.c ****     u8g2_SetFontRefHeightExtendedText(u8g2_t *u8g2);
  47:u8g2_lib/u8log_u8g2.c ****     u8g2_SetFontRefHeightAll(u8g2_t *u8g2);
  48:u8g2_lib/u8log_u8g2.c ****   to change the return values for u8g2_GetAscent and u8g2_GetDescent
  49:u8g2_lib/u8log_u8g2.c **** 
  50:u8g2_lib/u8log_u8g2.c **** */
  51:u8g2_lib/u8log_u8g2.c **** void u8g2_DrawLog(u8g2_t *u8g2, u8g2_uint_t x, u8g2_uint_t y, u8log_t *u8log)
  52:u8g2_lib/u8log_u8g2.c **** {
  28              		.loc 1 52 1 view -0
  29              		.cfi_startproc
  30              		@ args = 0, pretend = 0, frame = 0
  31              		@ frame_needed = 0, uses_anonymous_args = 0
  32              		.loc 1 52 1 is_stmt 0 view .LVU1
  33 0000 2DE9F84F 		push	{r3, r4, r5, r6, r7, r8, r9, r10, fp, lr}
  34              	.LCFI0:
  35              		.cfi_def_cfa_offset 40
  36              		.cfi_offset 3, -40
  37              		.cfi_offset 4, -36
  38              		.cfi_offset 5, -32
  39              		.cfi_offset 6, -28
  40              		.cfi_offset 7, -24
  41              		.cfi_offset 8, -20
  42              		.cfi_offset 9, -16
  43              		.cfi_offset 10, -12
  44              		.cfi_offset 11, -8
  45              		.cfi_offset 14, -4
  46 0004 8246     		mov	r10, r0
  47 0006 8B46     		mov	fp, r1
  48 0008 9046     		mov	r8, r2
  49 000a 1F46     		mov	r7, r3
  53:u8g2_lib/u8log_u8g2.c ****   u8g2_uint_t disp_x, disp_y;
  50              		.loc 1 53 3 is_stmt 1 view .LVU2
  54:u8g2_lib/u8log_u8g2.c ****   uint8_t buf_x, buf_y;
  51              		.loc 1 54 3 view .LVU3
  55:u8g2_lib/u8log_u8g2.c ****   uint8_t c;
  52              		.loc 1 55 3 view .LVU4
  56:u8g2_lib/u8log_u8g2.c ****   
  57:u8g2_lib/u8log_u8g2.c ****   disp_y = y;  
  53              		.loc 1 57 3 view .LVU5
  54              	.LVL1:
  58:u8g2_lib/u8log_u8g2.c ****   u8g2_SetFontDirection(u8g2, 0);
  55              		.loc 1 58 3 view .LVU6
  56 000c 0021     		movs	r1, #0
  57              	.LVL2:
ARM GAS  C:\Users\GKQ\AppData\Local\Temp\cc9NndQv.s 			page 3


  58              		.loc 1 58 3 is_stmt 0 view .LVU7
  59 000e FFF7FEFF 		bl	u8g2_SetFontDirection
  60              	.LVL3:
  59:u8g2_lib/u8log_u8g2.c ****   for( buf_y = 0; buf_y < u8log->height; buf_y++ )
  61              		.loc 1 59 3 is_stmt 1 view .LVU8
  62              		.loc 1 59 14 is_stmt 0 view .LVU9
  63 0012 4FF00009 		mov	r9, #0
  64              		.loc 1 59 3 view .LVU10
  65 0016 20E0     		b	.L2
  66              	.LVL4:
  67              	.L3:
  60:u8g2_lib/u8log_u8g2.c ****   {
  61:u8g2_lib/u8log_u8g2.c ****     disp_x = x;
  62:u8g2_lib/u8log_u8g2.c ****     for( buf_x = 0; buf_x < u8log->width; buf_x++ )
  63:u8g2_lib/u8log_u8g2.c ****     {
  64:u8g2_lib/u8log_u8g2.c ****       c = u8log->screen_buffer[buf_y * u8log->width + buf_x];
  68              		.loc 1 64 7 is_stmt 1 discriminator 3 view .LVU11
  69              		.loc 1 64 16 is_stmt 0 discriminator 3 view .LVU12
  70 0018 FB68     		ldr	r3, [r7, #12]
  71              		.loc 1 64 53 discriminator 3 view .LVU13
  72 001a 05FB0945 		mla	r5, r5, r9, r4
  73              	.LVL5:
  65:u8g2_lib/u8log_u8g2.c ****       disp_x += u8g2_DrawGlyph(u8g2, disp_x, disp_y, c);
  74              		.loc 1 65 7 is_stmt 1 discriminator 3 view .LVU14
  75              		.loc 1 65 17 is_stmt 0 discriminator 3 view .LVU15
  76 001e 5B5D     		ldrb	r3, [r3, r5]	@ zero_extendqisi2
  77              	.LVL6:
  78              		.loc 1 65 17 discriminator 3 view .LVU16
  79 0020 4246     		mov	r2, r8
  80 0022 3146     		mov	r1, r6
  81 0024 5046     		mov	r0, r10
  82 0026 FFF7FEFF 		bl	u8g2_DrawGlyph
  83              	.LVL7:
  84              		.loc 1 65 14 discriminator 3 view .LVU17
  85 002a 0644     		add	r6, r6, r0
  86              	.LVL8:
  87              		.loc 1 65 14 discriminator 3 view .LVU18
  88 002c F6B2     		uxtb	r6, r6
  89              	.LVL9:
  62:u8g2_lib/u8log_u8g2.c ****     {
  90              		.loc 1 62 43 is_stmt 1 discriminator 3 view .LVU19
  62:u8g2_lib/u8log_u8g2.c ****     {
  91              		.loc 1 62 48 is_stmt 0 discriminator 3 view .LVU20
  92 002e 0134     		adds	r4, r4, #1
  93              	.LVL10:
  62:u8g2_lib/u8log_u8g2.c ****     {
  94              		.loc 1 62 48 discriminator 3 view .LVU21
  95 0030 E4B2     		uxtb	r4, r4
  96              	.LVL11:
  97              	.L4:
  62:u8g2_lib/u8log_u8g2.c ****     {
  98              		.loc 1 62 21 is_stmt 1 discriminator 1 view .LVU22
  62:u8g2_lib/u8log_u8g2.c ****     {
  99              		.loc 1 62 34 is_stmt 0 discriminator 1 view .LVU23
 100 0032 3D79     		ldrb	r5, [r7, #4]	@ zero_extendqisi2
  62:u8g2_lib/u8log_u8g2.c ****     {
 101              		.loc 1 62 5 discriminator 1 view .LVU24
ARM GAS  C:\Users\GKQ\AppData\Local\Temp\cc9NndQv.s 			page 4


 102 0034 A542     		cmp	r5, r4
 103 0036 EFD8     		bhi	.L3
  66:u8g2_lib/u8log_u8g2.c ****     }
  67:u8g2_lib/u8log_u8g2.c ****     disp_y += u8g2_GetAscent(u8g2) - u8g2_GetDescent(u8g2);
 104              		.loc 1 67 5 is_stmt 1 discriminator 2 view .LVU25
 105              		.loc 1 67 15 is_stmt 0 discriminator 2 view .LVU26
 106 0038 9AF87E20 		ldrb	r2, [r10, #126]	@ zero_extendqisi2
 107              		.loc 1 67 38 discriminator 2 view .LVU27
 108 003c 9AF87F30 		ldrb	r3, [r10, #127]	@ zero_extendqisi2
 109              		.loc 1 67 36 discriminator 2 view .LVU28
 110 0040 D21A     		subs	r2, r2, r3
 111 0042 D2B2     		uxtb	r2, r2
 112              		.loc 1 67 12 discriminator 2 view .LVU29
 113 0044 9044     		add	r8, r8, r2
 114              	.LVL12:
 115              		.loc 1 67 12 discriminator 2 view .LVU30
 116 0046 5FFA88F8 		uxtb	r8, r8
 117              	.LVL13:
  68:u8g2_lib/u8log_u8g2.c ****     disp_y += u8log->line_height_offset;
 118              		.loc 1 68 5 is_stmt 1 discriminator 2 view .LVU31
 119              		.loc 1 68 20 is_stmt 0 discriminator 2 view .LVU32
 120 004a 7A7C     		ldrb	r2, [r7, #17]	@ zero_extendqisi2
 121              		.loc 1 68 12 discriminator 2 view .LVU33
 122 004c 9044     		add	r8, r8, r2
 123              	.LVL14:
 124              		.loc 1 68 12 discriminator 2 view .LVU34
 125 004e 5FFA88F8 		uxtb	r8, r8
 126              	.LVL15:
  59:u8g2_lib/u8log_u8g2.c ****   {
 127              		.loc 1 59 42 is_stmt 1 discriminator 2 view .LVU35
  59:u8g2_lib/u8log_u8g2.c ****   {
 128              		.loc 1 59 47 is_stmt 0 discriminator 2 view .LVU36
 129 0052 09F10109 		add	r9, r9, #1
 130              	.LVL16:
  59:u8g2_lib/u8log_u8g2.c ****   {
 131              		.loc 1 59 47 discriminator 2 view .LVU37
 132 0056 5FFA89F9 		uxtb	r9, r9
 133              	.LVL17:
 134              	.L2:
  59:u8g2_lib/u8log_u8g2.c ****   {
 135              		.loc 1 59 19 is_stmt 1 discriminator 1 view .LVU38
  59:u8g2_lib/u8log_u8g2.c ****   {
 136              		.loc 1 59 32 is_stmt 0 discriminator 1 view .LVU39
 137 005a 7B79     		ldrb	r3, [r7, #5]	@ zero_extendqisi2
  59:u8g2_lib/u8log_u8g2.c ****   {
 138              		.loc 1 59 3 discriminator 1 view .LVU40
 139 005c 4B45     		cmp	r3, r9
 140 005e 02D9     		bls	.L7
  61:u8g2_lib/u8log_u8g2.c ****     for( buf_x = 0; buf_x < u8log->width; buf_x++ )
 141              		.loc 1 61 12 view .LVU41
 142 0060 5E46     		mov	r6, fp
  62:u8g2_lib/u8log_u8g2.c ****     {
 143              		.loc 1 62 16 view .LVU42
 144 0062 0024     		movs	r4, #0
 145 0064 E5E7     		b	.L4
 146              	.L7:
  69:u8g2_lib/u8log_u8g2.c ****   }
ARM GAS  C:\Users\GKQ\AppData\Local\Temp\cc9NndQv.s 			page 5


  70:u8g2_lib/u8log_u8g2.c **** }
 147              		.loc 1 70 1 view .LVU43
 148 0066 BDE8F88F 		pop	{r3, r4, r5, r6, r7, r8, r9, r10, fp, pc}
 149              		.loc 1 70 1 view .LVU44
 150              		.cfi_endproc
 151              	.LFE0:
 153              		.section	.text.u8log_u8g2_cb,"ax",%progbits
 154              		.align	1
 155              		.global	u8log_u8g2_cb
 156              		.syntax unified
 157              		.thumb
 158              		.thumb_func
 159              		.fpu softvfp
 161              	u8log_u8g2_cb:
 162              	.LVL18:
 163              	.LFB1:
  71:u8g2_lib/u8log_u8g2.c **** 
  72:u8g2_lib/u8log_u8g2.c **** /*
  73:u8g2_lib/u8log_u8g2.c ****   u8lib callback for u8g2
  74:u8g2_lib/u8log_u8g2.c ****   
  75:u8g2_lib/u8log_u8g2.c ****   Only font direction 0 is supported: u8g2_SetFontDirection(u8g2, 0)
  76:u8g2_lib/u8log_u8g2.c ****   Use
  77:u8g2_lib/u8log_u8g2.c ****     u8g2_SetFontRefHeightText(u8g2_t *u8g2);
  78:u8g2_lib/u8log_u8g2.c ****     u8g2_SetFontRefHeightExtendedText(u8g2_t *u8g2);
  79:u8g2_lib/u8log_u8g2.c ****     u8g2_SetFontRefHeightAll(u8g2_t *u8g2);
  80:u8g2_lib/u8log_u8g2.c ****   to change the top offset and the line height and
  81:u8g2_lib/u8log_u8g2.c ****     u8log_SetLineHeightOffset(u8log_t *u8log, int8_t line_height_offset)
  82:u8g2_lib/u8log_u8g2.c ****   to change the line height.
  83:u8g2_lib/u8log_u8g2.c ****   
  84:u8g2_lib/u8log_u8g2.c **** */
  85:u8g2_lib/u8log_u8g2.c **** void u8log_u8g2_cb(u8log_t * u8log)
  86:u8g2_lib/u8log_u8g2.c **** {
 164              		.loc 1 86 1 is_stmt 1 view -0
 165              		.cfi_startproc
 166              		@ args = 0, pretend = 0, frame = 0
 167              		@ frame_needed = 0, uses_anonymous_args = 0
 168              		.loc 1 86 1 is_stmt 0 view .LVU46
 169 0000 38B5     		push	{r3, r4, r5, lr}
 170              	.LCFI1:
 171              		.cfi_def_cfa_offset 16
 172              		.cfi_offset 3, -16
 173              		.cfi_offset 4, -12
 174              		.cfi_offset 5, -8
 175              		.cfi_offset 14, -4
  87:u8g2_lib/u8log_u8g2.c ****   u8g2_t *u8g2 = (u8g2_t *)(u8log->aux_data);
 176              		.loc 1 87 3 is_stmt 1 view .LVU47
 177              		.loc 1 87 11 is_stmt 0 view .LVU48
 178 0002 0468     		ldr	r4, [r0]
 179              	.LVL19:
  88:u8g2_lib/u8log_u8g2.c ****   if ( u8log->is_redraw_line || u8log->is_redraw_all )
 180              		.loc 1 88 3 is_stmt 1 view .LVU49
 181              		.loc 1 88 30 is_stmt 0 view .LVU50
 182 0004 4369     		ldr	r3, [r0, #20]
 183 0006 23F07F43 		bic	r3, r3, #-16777216
 184 000a 23F0FF03 		bic	r3, r3, #255
 185              		.loc 1 88 6 view .LVU51
 186 000e 03B9     		cbnz	r3, .L12
ARM GAS  C:\Users\GKQ\AppData\Local\Temp\cc9NndQv.s 			page 6


 187              	.LVL20:
 188              	.L8:
  89:u8g2_lib/u8log_u8g2.c ****   {
  90:u8g2_lib/u8log_u8g2.c ****     u8g2_FirstPage(u8g2);
  91:u8g2_lib/u8log_u8g2.c ****     do
  92:u8g2_lib/u8log_u8g2.c ****     {
  93:u8g2_lib/u8log_u8g2.c ****       u8g2_DrawLog( u8g2, 0, u8g2_GetAscent(u8g2), u8log);
  94:u8g2_lib/u8log_u8g2.c ****     }
  95:u8g2_lib/u8log_u8g2.c ****     while( u8g2_NextPage(u8g2) );
  96:u8g2_lib/u8log_u8g2.c ****   }
  97:u8g2_lib/u8log_u8g2.c **** }
 189              		.loc 1 97 1 view .LVU52
 190 0010 38BD     		pop	{r3, r4, r5, pc}
 191              	.LVL21:
 192              	.L12:
 193              		.loc 1 97 1 view .LVU53
 194 0012 0546     		mov	r5, r0
  90:u8g2_lib/u8log_u8g2.c ****     do
 195              		.loc 1 90 5 is_stmt 1 view .LVU54
 196 0014 2046     		mov	r0, r4
 197              	.LVL22:
  90:u8g2_lib/u8log_u8g2.c ****     do
 198              		.loc 1 90 5 is_stmt 0 view .LVU55
 199 0016 FFF7FEFF 		bl	u8g2_FirstPage
 200              	.LVL23:
 201              	.L10:
  91:u8g2_lib/u8log_u8g2.c ****     {
 202              		.loc 1 91 5 is_stmt 1 discriminator 1 view .LVU56
  93:u8g2_lib/u8log_u8g2.c ****     }
 203              		.loc 1 93 7 discriminator 1 view .LVU57
  93:u8g2_lib/u8log_u8g2.c ****     }
 204              		.loc 1 93 30 is_stmt 0 discriminator 1 view .LVU58
 205 001a 94F97E20 		ldrsb	r2, [r4, #126]
  93:u8g2_lib/u8log_u8g2.c ****     }
 206              		.loc 1 93 7 discriminator 1 view .LVU59
 207 001e 2B46     		mov	r3, r5
 208 0020 D2B2     		uxtb	r2, r2
 209 0022 0021     		movs	r1, #0
 210 0024 2046     		mov	r0, r4
 211 0026 FFF7FEFF 		bl	u8g2_DrawLog
 212              	.LVL24:
  95:u8g2_lib/u8log_u8g2.c ****   }
 213              		.loc 1 95 10 is_stmt 1 discriminator 1 view .LVU60
  95:u8g2_lib/u8log_u8g2.c ****   }
 214              		.loc 1 95 12 is_stmt 0 discriminator 1 view .LVU61
 215 002a 2046     		mov	r0, r4
 216 002c FFF7FEFF 		bl	u8g2_NextPage
 217              	.LVL25:
  95:u8g2_lib/u8log_u8g2.c ****   }
 218              		.loc 1 95 5 discriminator 1 view .LVU62
 219 0030 0028     		cmp	r0, #0
 220 0032 F2D1     		bne	.L10
 221 0034 ECE7     		b	.L8
 222              		.cfi_endproc
 223              	.LFE1:
 225              		.text
 226              	.Letext0:
ARM GAS  C:\Users\GKQ\AppData\Local\Temp\cc9NndQv.s 			page 7


 227              		.file 2 "d:\\work_project\\9 2019-q4-major\\arm-none-eabi\\include\\machine\\_default_types.h"
 228              		.file 3 "d:\\work_project\\9 2019-q4-major\\arm-none-eabi\\include\\sys\\_stdint.h"
 229              		.file 4 "u8g2_lib/u8x8.h"
 230              		.file 5 "u8g2_lib/u8g2.h"
ARM GAS  C:\Users\GKQ\AppData\Local\Temp\cc9NndQv.s 			page 8

